(dp0
S'ind'
p1
(lp2
(I0
I341
I0
tp3
a(I1
I260
I42
tp4
a(I1
I261
I41
tp5
a(I1
I262
I40
tp6
a(I1
I263
I39
tp7
a(I1
I264
I38
tp8
a(I1
I265
I37
tp9
a(I1
I267
I36
tp10
a(I1
I268
I35
tp11
a(I1
I269
I34
tp12
a(I1
I270
I33
tp13
a(I1
I271
I32
tp14
a(I1
I272
I31
tp15
a(I1
I275
I30
tp16
a(I1
I276
I29
tp17
a(I1
I277
I28
tp18
a(I1
I278
I27
tp19
a(I1
I279
I26
tp20
a(I1
I282
I25
tp21
a(I1
I283
I24
tp22
a(I1
I284
I23
tp23
a(I1
I285
I22
tp24
a(I1
I286
I21
tp25
a(I1
I290
I20
tp26
a(I1
I291
I19
tp27
a(I1
I292
I18
tp28
a(I1
I293
I17
tp29
a(I1
I297
I16
tp30
a(I1
I298
I15
tp31
a(I1
I299
I14
tp32
a(I1
I300
I13
tp33
a(I1
I305
I12
tp34
a(I1
I306
I11
tp35
a(I1
I307
I10
tp36
a(I1
I312
I9
tp37
a(I1
I313
I8
tp38
a(I1
I314
I7
tp39
a(I1
I320
I6
tp40
a(I1
I321
I5
tp41
a(I1
I327
I4
tp42
a(I1
I328
I3
tp43
a(I1
I335
I2
tp44
a(I1
I341
I1
tp45
a(I2
I260
I41
tp46
a(I2
I261
I40
tp47
a(I2
I262
I39
tp48
a(I2
I263
I38
tp49
a(I2
I264
I37
tp50
a(I2
I265
I36
tp51
a(I2
I267
I35
tp52
a(I2
I268
I34
tp53
a(I2
I269
I33
tp54
a(I2
I270
I32
tp55
a(I2
I271
I31
tp56
a(I2
I274
I30
tp57
a(I2
I275
I29
tp58
a(I2
I276
I28
tp59
a(I2
I277
I27
tp60
a(I2
I278
I26
tp61
a(I2
I279
I25
tp62
a(I2
I282
I24
tp63
a(I2
I283
I23
tp64
a(I2
I284
I22
tp65
a(I2
I285
I21
tp66
a(I2
I289
I20
tp67
a(I2
I290
I19
tp68
a(I2
I291
I18
tp69
a(I2
I292
I17
tp70
a(I2
I293
I16
tp71
a(I2
I297
I15
tp72
a(I2
I298
I14
tp73
a(I2
I299
I13
tp74
a(I2
I304
I12
tp75
a(I2
I305
I11
tp76
a(I2
I306
I10
tp77
a(I2
I307
I9
tp78
a(I2
I312
I8
tp79
a(I2
I313
I7
tp80
a(I2
I319
I6
tp81
a(I2
I320
I5
tp82
a(I2
I321
I4
tp83
a(I2
I327
I3
tp84
a(I2
I334
I2
tp85
a(I2
I335
I1
tp86
a(I3
I260
I40
tp87
a(I3
I261
I39
tp88
a(I3
I262
I38
tp89
a(I3
I263
I37
tp90
a(I3
I264
I36
tp91
a(I3
I266
I35
tp92
a(I3
I267
I34
tp93
a(I3
I268
I33
tp94
a(I3
I269
I32
tp95
a(I3
I270
I31
tp96
a(I3
I272
I30
tp97
a(I3
I274
I28
tp98
a(I3
I275
I27
tp99
a(I3
I276
I26
tp100
a(I3
I278
I25
tp101
a(I3
I281
I24
tp102
a(I3
I282
I23
tp103
a(I3
I283
I22
tp104
a(I3
I284
I21
tp105
a(I3
I286
I20
tp106
a(I3
I289
I18
tp107
a(I3
I290
I17
tp108
a(I3
I292
I16
tp109
a(I3
I296
I15
tp110
a(I3
I297
I14
tp111
a(I3
I298
I13
tp112
a(I3
I300
I12
tp113
a(I3
I304
I10
tp114
a(I3
I306
I9
tp115
a(I3
I311
I8
tp116
a(I3
I312
I7
tp117
a(I3
I314
I6
tp118
a(I3
I320
I4
tp119
a(I3
I326
I3
tp120
a(I3
I328
I2
tp121
a(I3
I334
I1
tp122
a(I4
I260
I39
tp123
a(I4
I261
I38
tp124
a(I4
I262
I37
tp125
a(I4
I263
I36
tp126
a(I4
I265
I35
tp127
a(I4
I266
I34
tp128
a(I4
I267
I33
tp129
a(I4
I268
I32
tp130
a(I4
I269
I31
tp131
a(I4
I271
I30
tp132
a(I4
I273
I28
tp133
a(I4
I274
I27
tp134
a(I4
I275
I26
tp135
a(I4
I276
I25
tp136
a(I4
I279
I24
tp137
a(I4
I281
I21
tp138
a(I4
I283
I19
tp139
a(I4
I285
I20
tp140
a(I4
I288
I18
tp141
a(I4
I289
I17
tp142
a(I4
I290
I16
tp143
a(I4
I293
I15
tp144
a(I4
I297
I11
tp145
a(I4
I299
I12
tp146
a(I4
I303
I10
tp147
a(I4
I304
I9
tp148
a(I4
I307
I8
tp149
a(I4
I311
I5
tp150
a(I4
I313
I6
tp151
a(I4
I318
I4
tp152
a(I4
I321
I3
tp153
a(I4
I327
I2
tp154
a(I4
I328
I1
tp155
a(I5
I260
I38
tp156
a(I5
I261
I37
tp157
a(I5
I262
I36
tp158
a(I5
I264
I35
tp159
a(I5
I265
I34
tp160
a(I5
I266
I33
tp161
a(I5
I267
I32
tp162
a(I5
I268
I31
tp163
a(I5
I270
I30
tp164
a(I5
I272
I28
tp165
a(I5
I273
I27
tp166
a(I5
I274
I26
tp167
a(I5
I275
I25
tp168
a(I5
I278
I24
tp169
a(I5
I280
I21
tp170
a(I5
I281
I16
tp171
a(I5
I282
I19
tp172
a(I5
I284
I20
tp173
a(I5
I286
I18
tp174
a(I5
I288
I14
tp175
a(I5
I289
I13
tp176
a(I5
I292
I15
tp177
a(I5
I296
I11
tp178
a(I5
I298
I12
tp179
a(I5
I300
I10
tp180
a(I5
I306
I8
tp181
a(I5
I310
I5
tp182
a(I5
I312
I6
tp183
a(I5
I314
I4
tp184
a(I5
I320
I3
tp185
a(I5
I326
I2
tp186
a(I5
I327
I1
tp187
a(I6
I260
I37
tp188
a(I6
I261
I36
tp189
a(I6
I263
I35
tp190
a(I6
I264
I34
tp191
a(I6
I265
I33
tp192
a(I6
I266
I32
tp193
a(I6
I267
I31
tp194
a(I6
I269
I30
tp195
a(I6
I271
I28
tp196
a(I6
I272
I27
tp197
a(I6
I273
I26
tp198
a(I6
I274
I25
tp199
a(I6
I277
I24
tp200
a(I6
I279
I21
tp201
a(I6
I280
I20
tp202
a(I6
I281
I19
tp203
a(I6
I285
I18
tp204
a(I6
I287
I14
tp205
a(I6
I288
I13
tp206
a(I6
I291
I15
tp207
a(I6
I293
I12
tp208
a(I6
I295
I7
tp209
a(I6
I299
I10
tp210
a(I6
I302
I6
tp211
a(I6
I305
I8
tp212
a(I6
I307
I5
tp213
a(I6
I313
I4
tp214
a(I6
I319
I3
tp215
a(I6
I321
I2
tp216
a(I6
I326
I1
tp217
a(I7
I260
I36
tp218
a(I7
I262
I35
tp219
a(I7
I263
I34
tp220
a(I7
I264
I33
tp221
a(I7
I265
I32
tp222
a(I7
I266
I31
tp223
a(I7
I268
I30
tp224
a(I7
I270
I28
tp225
a(I7
I271
I27
tp226
a(I7
I272
I26
tp227
a(I7
I273
I25
tp228
a(I7
I276
I24
tp229
a(I7
I278
I21
tp230
a(I7
I279
I20
tp231
a(I7
I280
I19
tp232
a(I7
I284
I18
tp233
a(I7
I286
I14
tp234
a(I7
I287
I13
tp235
a(I7
I290
I15
tp236
a(I7
I292
I12
tp237
a(I7
I294
I7
tp238
a(I7
I298
I10
tp239
a(I7
I300
I6
tp240
a(I7
I304
I8
tp241
a(I7
I306
I5
tp242
a(I7
I312
I4
tp243
a(I7
I318
I3
tp244
a(I7
I320
I2
tp245
a(I7
I321
I1
tp246
a(I8
I261
I35
tp247
a(I8
I262
I34
tp248
a(I8
I263
I33
tp249
a(I8
I264
I32
tp250
a(I8
I265
I31
tp251
a(I8
I267
I30
tp252
a(I8
I269
I28
tp253
a(I8
I270
I27
tp254
a(I8
I271
I26
tp255
a(I8
I272
I25
tp256
a(I8
I275
I24
tp257
a(I8
I277
I21
tp258
a(I8
I278
I20
tp259
a(I8
I279
I19
tp260
a(I8
I283
I18
tp261
a(I8
I285
I14
tp262
a(I8
I286
I13
tp263
a(I8
I291
I12
tp264
a(I8
I293
I7
tp265
a(I8
I297
I10
tp266
a(I8
I299
I6
tp267
a(I8
I305
I5
tp268
a(I8
I311
I4
tp269
a(I8
I314
I3
tp270
a(I8
I319
I2
tp271
a(I8
I320
I1
tp272
a(I9
I260
I35
tp273
a(I9
I261
I34
tp274
a(I9
I262
I33
tp275
a(I9
I263
I32
tp276
a(I9
I264
I31
tp277
a(I9
I266
I30
tp278
a(I9
I268
I28
tp279
a(I9
I269
I27
tp280
a(I9
I270
I26
tp281
a(I9
I271
I25
tp282
a(I9
I274
I24
tp283
a(I9
I276
I21
tp284
a(I9
I277
I20
tp285
a(I9
I278
I19
tp286
a(I9
I282
I18
tp287
a(I9
I284
I14
tp288
a(I9
I285
I13
tp289
a(I9
I290
I12
tp290
a(I9
I292
I7
tp291
a(I9
I296
I10
tp292
a(I9
I298
I6
tp293
a(I9
I304
I5
tp294
a(I9
I310
I4
tp295
a(I9
I313
I3
tp296
a(I9
I318
I2
tp297
a(I9
I319
I1
tp298
a(I10
I260
I34
tp299
a(I10
I261
I33
tp300
a(I10
I262
I32
tp301
a(I10
I263
I31
tp302
a(I10
I265
I30
tp303
a(I10
I267
I28
tp304
a(I10
I268
I27
tp305
a(I10
I269
I26
tp306
a(I10
I270
I25
tp307
a(I10
I273
I24
tp308
a(I10
I275
I21
tp309
a(I10
I276
I20
tp310
a(I10
I277
I19
tp311
a(I10
I281
I18
tp312
a(I10
I283
I14
tp313
a(I10
I284
I13
tp314
a(I10
I289
I12
tp315
a(I10
I291
I7
tp316
a(I10
I297
I6
tp317
a(I10
I303
I5
tp318
a(I10
I307
I4
tp319
a(I10
I312
I3
tp320
a(I10
I314
I2
tp321
a(I10
I318
I1
tp322
a(I11
I260
I33
tp323
a(I11
I261
I32
tp324
a(I11
I262
I31
tp325
a(I11
I264
I30
tp326
a(I11
I266
I28
tp327
a(I11
I267
I27
tp328
a(I11
I268
I26
tp329
a(I11
I269
I25
tp330
a(I11
I272
I24
tp331
a(I11
I274
I21
tp332
a(I11
I275
I20
tp333
a(I11
I276
I19
tp334
a(I11
I280
I18
tp335
a(I11
I282
I14
tp336
a(I11
I283
I13
tp337
a(I11
I288
I12
tp338
a(I11
I290
I7
tp339
a(I11
I296
I6
tp340
a(I11
I302
I5
tp341
a(I11
I306
I4
tp342
a(I11
I311
I3
tp343
a(I11
I313
I2
tp344
a(I11
I314
I1
tp345
a(I12
I260
I32
tp346
a(I12
I261
I31
tp347
a(I12
I263
I30
tp348
a(I12
I265
I28
tp349
a(I12
I266
I27
tp350
a(I12
I267
I26
tp351
a(I12
I268
I25
tp352
a(I12
I271
I24
tp353
a(I12
I273
I21
tp354
a(I12
I274
I20
tp355
a(I12
I275
I19
tp356
a(I12
I279
I18
tp357
a(I12
I281
I14
tp358
a(I12
I282
I13
tp359
a(I12
I287
I12
tp360
a(I12
I289
I7
tp361
a(I12
I295
I6
tp362
a(I12
I300
I5
tp363
a(I12
I305
I4
tp364
a(I12
I310
I3
tp365
a(I12
I312
I2
tp366
a(I12
I313
I1
tp367
a(I13
I260
I31
tp368
a(I13
I262
I30
tp369
a(I13
I264
I28
tp370
a(I13
I265
I27
tp371
a(I13
I266
I26
tp372
a(I13
I267
I25
tp373
a(I13
I270
I24
tp374
a(I13
I272
I21
tp375
a(I13
I273
I20
tp376
a(I13
I274
I19
tp377
a(I13
I278
I18
tp378
a(I13
I280
I14
tp379
a(I13
I281
I13
tp380
a(I13
I286
I12
tp381
a(I13
I288
I7
tp382
a(I13
I294
I6
tp383
a(I13
I299
I5
tp384
a(I13
I304
I4
tp385
a(I13
I307
I3
tp386
a(I13
I311
I2
tp387
a(I13
I312
I1
tp388
a(I14
I261
I30
tp389
a(I14
I263
I28
tp390
a(I14
I264
I27
tp391
a(I14
I265
I26
tp392
a(I14
I266
I25
tp393
a(I14
I269
I24
tp394
a(I14
I271
I21
tp395
a(I14
I272
I20
tp396
a(I14
I273
I19
tp397
a(I14
I277
I18
tp398
a(I14
I279
I14
tp399
a(I14
I280
I13
tp400
a(I14
I285
I12
tp401
a(I14
I287
I7
tp402
a(I14
I293
I6
tp403
a(I14
I298
I5
tp404
a(I14
I303
I4
tp405
a(I14
I306
I3
tp406
a(I14
I310
I2
tp407
a(I14
I311
I1
tp408
a(I15
I260
I30
tp409
a(I15
I262
I28
tp410
a(I15
I263
I27
tp411
a(I15
I264
I26
tp412
a(I15
I265
I25
tp413
a(I15
I268
I24
tp414
a(I15
I270
I21
tp415
a(I15
I271
I20
tp416
a(I15
I272
I19
tp417
a(I15
I276
I18
tp418
a(I15
I278
I14
tp419
a(I15
I279
I13
tp420
a(I15
I284
I12
tp421
a(I15
I286
I7
tp422
a(I15
I292
I6
tp423
a(I15
I297
I5
tp424
a(I15
I302
I4
tp425
a(I15
I305
I3
tp426
a(I15
I307
I2
tp427
a(I15
I310
I1
tp428
a(I16
I261
I28
tp429
a(I16
I262
I27
tp430
a(I16
I263
I26
tp431
a(I16
I264
I25
tp432
a(I16
I267
I24
tp433
a(I16
I269
I21
tp434
a(I16
I270
I20
tp435
a(I16
I271
I19
tp436
a(I16
I275
I18
tp437
a(I16
I277
I14
tp438
a(I16
I278
I13
tp439
a(I16
I283
I12
tp440
a(I16
I285
I7
tp441
a(I16
I291
I6
tp442
a(I16
I296
I5
tp443
a(I16
I300
I4
tp444
a(I16
I304
I3
tp445
a(I16
I306
I2
tp446
a(I16
I307
I1
tp447
a(I17
I260
I28
tp448
a(I17
I261
I27
tp449
a(I17
I262
I26
tp450
a(I17
I263
I25
tp451
a(I17
I266
I24
tp452
a(I17
I268
I21
tp453
a(I17
I269
I20
tp454
a(I17
I270
I19
tp455
a(I17
I274
I18
tp456
a(I17
I276
I14
tp457
a(I17
I277
I13
tp458
a(I17
I282
I12
tp459
a(I17
I284
I7
tp460
a(I17
I290
I6
tp461
a(I17
I295
I5
tp462
a(I17
I299
I4
tp463
a(I17
I303
I3
tp464
a(I17
I305
I2
tp465
a(I17
I306
I1
tp466
a(I18
I260
I27
tp467
a(I18
I261
I26
tp468
a(I18
I262
I25
tp469
a(I18
I265
I24
tp470
a(I18
I267
I21
tp471
a(I18
I268
I20
tp472
a(I18
I269
I19
tp473
a(I18
I273
I18
tp474
a(I18
I275
I14
tp475
a(I18
I276
I13
tp476
a(I18
I281
I12
tp477
a(I18
I283
I7
tp478
a(I18
I289
I6
tp479
a(I18
I294
I5
tp480
a(I18
I298
I4
tp481
a(I18
I302
I3
tp482
a(I18
I304
I2
tp483
a(I18
I305
I1
tp484
a(I19
I260
I26
tp485
a(I19
I261
I25
tp486
a(I19
I264
I24
tp487
a(I19
I266
I21
tp488
a(I19
I267
I20
tp489
a(I19
I268
I19
tp490
a(I19
I272
I18
tp491
a(I19
I274
I14
tp492
a(I19
I275
I13
tp493
a(I19
I280
I12
tp494
a(I19
I282
I7
tp495
a(I19
I288
I6
tp496
a(I19
I293
I5
tp497
a(I19
I297
I4
tp498
a(I19
I300
I3
tp499
a(I19
I303
I2
tp500
a(I19
I304
I1
tp501
a(I20
I260
I25
tp502
a(I20
I263
I24
tp503
a(I20
I265
I21
tp504
a(I20
I266
I20
tp505
a(I20
I267
I19
tp506
a(I20
I271
I18
tp507
a(I20
I273
I14
tp508
a(I20
I274
I13
tp509
a(I20
I279
I12
tp510
a(I20
I281
I7
tp511
a(I20
I287
I6
tp512
a(I20
I292
I5
tp513
a(I20
I296
I4
tp514
a(I20
I299
I3
tp515
a(I20
I302
I2
tp516
a(I20
I303
I1
tp517
a(I21
I262
I24
tp518
a(I21
I264
I21
tp519
a(I21
I265
I20
tp520
a(I21
I266
I19
tp521
a(I21
I270
I18
tp522
a(I21
I272
I14
tp523
a(I21
I273
I13
tp524
a(I21
I278
I12
tp525
a(I21
I280
I7
tp526
a(I21
I286
I6
tp527
a(I21
I291
I5
tp528
a(I21
I295
I4
tp529
a(I21
I298
I3
tp530
a(I21
I300
I2
tp531
a(I21
I302
I1
tp532
a(I22
I261
I24
tp533
a(I22
I263
I21
tp534
a(I22
I264
I20
tp535
a(I22
I265
I19
tp536
a(I22
I269
I18
tp537
a(I22
I271
I14
tp538
a(I22
I272
I13
tp539
a(I22
I277
I12
tp540
a(I22
I279
I7
tp541
a(I22
I285
I6
tp542
a(I22
I290
I5
tp543
a(I22
I294
I4
tp544
a(I22
I297
I3
tp545
a(I22
I299
I2
tp546
a(I22
I300
I1
tp547
a(I23
I260
I24
tp548
a(I23
I262
I21
tp549
a(I23
I263
I20
tp550
a(I23
I264
I19
tp551
a(I23
I268
I18
tp552
a(I23
I270
I14
tp553
a(I23
I271
I13
tp554
a(I23
I276
I12
tp555
a(I23
I278
I7
tp556
a(I23
I284
I6
tp557
a(I23
I289
I5
tp558
a(I23
I293
I4
tp559
a(I23
I296
I3
tp560
a(I23
I298
I2
tp561
a(I23
I299
I1
tp562
a(I24
I261
I21
tp563
a(I24
I262
I20
tp564
a(I24
I263
I19
tp565
a(I24
I267
I18
tp566
a(I24
I269
I14
tp567
a(I24
I270
I13
tp568
a(I24
I275
I12
tp569
a(I24
I277
I7
tp570
a(I24
I283
I6
tp571
a(I24
I288
I5
tp572
a(I24
I292
I4
tp573
a(I24
I295
I3
tp574
a(I24
I297
I2
tp575
a(I24
I298
I1
tp576
a(I25
I260
I21
tp577
a(I25
I261
I20
tp578
a(I25
I262
I19
tp579
a(I25
I266
I18
tp580
a(I25
I268
I14
tp581
a(I25
I269
I13
tp582
a(I25
I274
I12
tp583
a(I25
I276
I7
tp584
a(I25
I282
I6
tp585
a(I25
I287
I5
tp586
a(I25
I291
I4
tp587
a(I25
I294
I3
tp588
a(I25
I296
I2
tp589
a(I25
I297
I1
tp590
a(I26
I260
I20
tp591
a(I26
I261
I19
tp592
a(I26
I265
I18
tp593
a(I26
I267
I14
tp594
a(I26
I268
I13
tp595
a(I26
I273
I12
tp596
a(I26
I275
I7
tp597
a(I26
I281
I6
tp598
a(I26
I286
I5
tp599
a(I26
I290
I4
tp600
a(I26
I293
I3
tp601
a(I26
I295
I2
tp602
a(I26
I296
I1
tp603
a(I27
I260
I19
tp604
a(I27
I264
I18
tp605
a(I27
I266
I14
tp606
a(I27
I267
I13
tp607
a(I27
I272
I12
tp608
a(I27
I274
I7
tp609
a(I27
I280
I6
tp610
a(I27
I285
I5
tp611
a(I27
I289
I4
tp612
a(I27
I292
I3
tp613
a(I27
I294
I2
tp614
a(I27
I295
I1
tp615
a(I28
I263
I18
tp616
a(I28
I265
I14
tp617
a(I28
I266
I13
tp618
a(I28
I271
I12
tp619
a(I28
I273
I7
tp620
a(I28
I279
I6
tp621
a(I28
I284
I5
tp622
a(I28
I288
I4
tp623
a(I28
I291
I3
tp624
a(I28
I293
I2
tp625
a(I28
I294
I1
tp626
a(I29
I262
I18
tp627
a(I29
I264
I14
tp628
a(I29
I265
I13
tp629
a(I29
I270
I12
tp630
a(I29
I272
I7
tp631
a(I29
I278
I6
tp632
a(I29
I283
I5
tp633
a(I29
I287
I4
tp634
a(I29
I290
I3
tp635
a(I29
I292
I2
tp636
a(I29
I293
I1
tp637
a(I30
I261
I18
tp638
a(I30
I263
I14
tp639
a(I30
I264
I13
tp640
a(I30
I269
I12
tp641
a(I30
I271
I7
tp642
a(I30
I277
I6
tp643
a(I30
I282
I5
tp644
a(I30
I286
I4
tp645
a(I30
I289
I3
tp646
a(I30
I291
I2
tp647
a(I30
I292
I1
tp648
a(I31
I260
I18
tp649
a(I31
I262
I14
tp650
a(I31
I263
I13
tp651
a(I31
I268
I12
tp652
a(I31
I270
I7
tp653
a(I31
I276
I6
tp654
a(I31
I281
I5
tp655
a(I31
I285
I4
tp656
a(I31
I288
I3
tp657
a(I31
I290
I2
tp658
a(I31
I291
I1
tp659
a(I32
I261
I14
tp660
a(I32
I262
I13
tp661
a(I32
I267
I12
tp662
a(I32
I269
I7
tp663
a(I32
I275
I6
tp664
a(I32
I280
I5
tp665
a(I32
I284
I4
tp666
a(I32
I287
I3
tp667
a(I32
I289
I2
tp668
a(I32
I290
I1
tp669
a(I33
I260
I14
tp670
a(I33
I261
I13
tp671
a(I33
I266
I12
tp672
a(I33
I268
I7
tp673
a(I33
I274
I6
tp674
a(I33
I279
I5
tp675
a(I33
I283
I4
tp676
a(I33
I286
I3
tp677
a(I33
I288
I2
tp678
a(I33
I289
I1
tp679
a(I34
I260
I13
tp680
a(I34
I265
I12
tp681
a(I34
I267
I7
tp682
a(I34
I273
I6
tp683
a(I34
I278
I5
tp684
a(I34
I282
I4
tp685
a(I34
I285
I3
tp686
a(I34
I287
I2
tp687
a(I34
I288
I1
tp688
a(I35
I264
I12
tp689
a(I35
I266
I7
tp690
a(I35
I272
I6
tp691
a(I35
I277
I5
tp692
a(I35
I281
I4
tp693
a(I35
I284
I3
tp694
a(I35
I286
I2
tp695
a(I35
I287
I1
tp696
a(I36
I263
I12
tp697
a(I36
I265
I7
tp698
a(I36
I271
I6
tp699
a(I36
I276
I5
tp700
a(I36
I280
I4
tp701
a(I36
I283
I3
tp702
a(I36
I285
I2
tp703
a(I36
I286
I1
tp704
a(I37
I262
I12
tp705
a(I37
I264
I7
tp706
a(I37
I270
I6
tp707
a(I37
I275
I5
tp708
a(I37
I279
I4
tp709
a(I37
I282
I3
tp710
a(I37
I284
I2
tp711
a(I37
I285
I1
tp712
a(I38
I261
I12
tp713
a(I38
I263
I7
tp714
a(I38
I269
I6
tp715
a(I38
I274
I5
tp716
a(I38
I278
I4
tp717
a(I38
I281
I3
tp718
a(I38
I283
I2
tp719
a(I38
I284
I1
tp720
a(I39
I260
I12
tp721
a(I39
I262
I7
tp722
a(I39
I268
I6
tp723
a(I39
I273
I5
tp724
a(I39
I277
I4
tp725
a(I39
I280
I3
tp726
a(I39
I282
I2
tp727
a(I39
I283
I1
tp728
a(I40
I261
I7
tp729
a(I40
I267
I6
tp730
a(I40
I272
I5
tp731
a(I40
I276
I4
tp732
a(I40
I279
I3
tp733
a(I40
I281
I2
tp734
a(I40
I282
I1
tp735
a(I41
I260
I7
tp736
a(I41
I266
I6
tp737
a(I41
I271
I5
tp738
a(I41
I275
I4
tp739
a(I41
I278
I3
tp740
a(I41
I280
I2
tp741
a(I41
I281
I1
tp742
a(I42
I265
I6
tp743
a(I42
I270
I5
tp744
a(I42
I274
I4
tp745
a(I42
I277
I3
tp746
a(I42
I279
I2
tp747
a(I42
I280
I1
tp748
a(I43
I264
I6
tp749
a(I43
I269
I5
tp750
a(I43
I273
I4
tp751
a(I43
I276
I3
tp752
a(I43
I278
I2
tp753
a(I43
I279
I1
tp754
a(I44
I263
I6
tp755
a(I44
I268
I5
tp756
a(I44
I272
I4
tp757
a(I44
I275
I3
tp758
a(I44
I277
I2
tp759
a(I44
I278
I1
tp760
a(I45
I262
I6
tp761
a(I45
I267
I5
tp762
a(I45
I271
I4
tp763
a(I45
I274
I3
tp764
a(I45
I276
I2
tp765
a(I45
I277
I1
tp766
a(I46
I261
I6
tp767
a(I46
I266
I5
tp768
a(I46
I270
I4
tp769
a(I46
I273
I3
tp770
a(I46
I275
I2
tp771
a(I46
I276
I1
tp772
a(I47
I260
I6
tp773
a(I47
I265
I5
tp774
a(I47
I269
I4
tp775
a(I47
I272
I3
tp776
a(I47
I274
I2
tp777
a(I47
I275
I1
tp778
a(I48
I264
I5
tp779
a(I48
I268
I4
tp780
a(I48
I271
I3
tp781
a(I48
I273
I2
tp782
a(I48
I274
I1
tp783
a(I49
I263
I5
tp784
a(I49
I267
I4
tp785
a(I49
I270
I3
tp786
a(I49
I272
I2
tp787
a(I49
I273
I1
tp788
a(I50
I262
I5
tp789
a(I50
I266
I4
tp790
a(I50
I269
I3
tp791
a(I50
I271
I2
tp792
a(I50
I272
I1
tp793
a(I51
I261
I5
tp794
a(I51
I265
I4
tp795
a(I51
I268
I3
tp796
a(I51
I270
I2
tp797
a(I51
I271
I1
tp798
a(I52
I260
I5
tp799
a(I52
I264
I4
tp800
a(I52
I267
I3
tp801
a(I52
I269
I2
tp802
a(I52
I270
I1
tp803
a(I53
I263
I4
tp804
a(I53
I266
I3
tp805
a(I53
I268
I2
tp806
a(I53
I269
I1
tp807
a(I54
I262
I4
tp808
a(I54
I265
I3
tp809
a(I54
I267
I2
tp810
a(I54
I268
I1
tp811
a(I55
I261
I4
tp812
a(I55
I264
I3
tp813
a(I55
I266
I2
tp814
a(I55
I267
I1
tp815
a(I56
I260
I4
tp816
a(I56
I263
I3
tp817
a(I56
I265
I2
tp818
a(I56
I266
I1
tp819
a(I57
I262
I3
tp820
a(I57
I264
I2
tp821
a(I57
I265
I1
tp822
a(I58
I261
I3
tp823
a(I58
I263
I2
tp824
a(I58
I264
I1
tp825
a(I59
I260
I3
tp826
a(I59
I262
I2
tp827
a(I59
I263
I1
tp828
a(I60
I261
I2
tp829
a(I60
I262
I1
tp830
a(I61
I260
I2
tp831
a(I61
I261
I1
tp832
a(I62
I260
I1
tp833
asS'witness'
p834
(dp835
g19
((idivisor
TwoPDivisor
p836
(dp838
S'Q'
p839
I5
sS'P'
p840
I18
sb(idivisor
TwoPDivisor
p841
(dp842
g839
I-6
sg840
I284
sbtp843
sg734
((idivisor
TwoPDivisor
p844
(dp845
g839
I6
sg840
I-35
sb(idivisor
TwoPDivisor
p846
(dp847
g839
I-8
sg840
I289
sbtp848
sg80
((idivisor
TwoPDivisor
p849
(dp850
g839
I7
sg840
I-20
sb(idivisor
TwoPDivisor
p851
(dp852
g839
I-8
sg840
I321
sbtp853
sg134
((idivisor
TwoPDivisor
p854
(dp855
g839
I7
sg840
I17
sb(idivisor
TwoPDivisor
p856
(dp857
g839
I-8
sg840
I282
sbtp858
sg670
((idivisor
TwoPDivisor
p859
(dp860
g839
I1
sg840
I8
sb(idivisor
TwoPDivisor
p861
(dp862
g839
I-8
sg840
I268
sbtp863
sg829
(g844
(idivisor
TwoPDivisor
p864
(dp865
g839
I-8
sg840
I269
sbtp866
sg250
((idivisor
TwoPDivisor
p867
(dp868
g839
I5
sg840
I25
sb(idivisor
TwoPDivisor
p869
(dp870
g839
I-8
sg840
I272
sbtp871
sg393
((idivisor
TwoPDivisor
p872
(dp873
g839
I5
sg840
I17
sb(idivisor
TwoPDivisor
p874
(dp875
g839
I-8
sg840
I274
sbtp876
sg385
((idivisor
TwoPDivisor
p877
(dp878
g839
I4
sg840
I-21
sb(idivisor
TwoPDivisor
p879
(dp880
g839
I-8
sg840
I312
sbtp881
sg583
((idivisor
TwoPDivisor
p882
(dp883
g839
I2
sg840
I1
sb(idivisor
TwoPDivisor
p884
(dp885
g839
I-8
sg840
I282
sbtp886
sg740
((idivisor
TwoPDivisor
p887
(dp888
g839
I5
sg840
I-28
sb(idivisor
TwoPDivisor
p889
(dp890
g839
I-8
sg840
I286
sbtp891
sg639
(g859
(idivisor
TwoPDivisor
p892
(dp893
g839
I-8
sg840
I271
sbtp894
sg473
((idivisor
TwoPDivisor
p895
(dp896
g839
I6
sg840
I9
sb(idivisor
TwoPDivisor
p897
(dp898
g839
I-8
sg840
I277
sbtp899
sg485
((idivisor
TwoPDivisor
p900
(dp901
g839
I6
sg840
I17
sb(idivisor
TwoPDivisor
p902
(dp903
g839
I-8
sg840
I268
sbtp904
sg652
(g882
(idivisor
TwoPDivisor
p905
(dp906
g839
I-8
sg840
I276
sbtp907
sg721
(g882
(idivisor
TwoPDivisor
p908
(dp909
g839
I-8
sg840
I268
sbtp910
sg272
((idivisor
TwoPDivisor
p911
(dp912
g839
I7
sg840
I-42
sb(idivisor
TwoPDivisor
p913
(dp914
g839
I-8
sg840
I328
sbtp915
sg689
(g882
(idivisor
TwoPDivisor
p916
(dp917
g839
I-8
sg840
I272
sbtp918
sg671
((idivisor
TwoPDivisor
p919
(dp920
g839
I7
sg840
I1
sb(idivisor
TwoPDivisor
p921
(dp922
g839
I-8
sg840
I269
sbtp923
sg621
((idivisor
TwoPDivisor
p924
(dp925
g839
I2
sg840
I-7
sb(idivisor
TwoPDivisor
p926
(dp927
g839
I-8
sg840
I287
sbtp928
sg87
((idivisor
TwoPDivisor
p929
(dp930
g839
I6
sg840
I33
sb(idivisor
TwoPDivisor
p931
(dp932
g839
I-8
sg840
I268
sbtp933
sg803
(g911
(idivisor
TwoPDivisor
p934
(dp935
g839
I-8
sg840
I278
sbtp936
sg664
(g924
(idivisor
TwoPDivisor
p937
(dp938
g839
I-8
sg840
I283
sbtp939
sg39
(g849
(idivisor
TwoPDivisor
p940
(dp941
g839
I-8
sg840
I322
sbtp942
sg653
((idivisor
TwoPDivisor
p943
(dp944
g839
I1
sg840
I0
sb(idivisor
TwoPDivisor
p945
(dp946
g839
I-8
sg840
I278
sbtp947
sg825
(g911
(idivisor
TwoPDivisor
p948
(dp949
g839
I-8
sg840
I272
sbtp950
sg352
(g872
(idivisor
TwoPDivisor
p951
(dp952
g839
I-8
sg840
I276
sbtp953
sg426
(g887
(idivisor
TwoPDivisor
p954
(dp955
g839
I-8
sg840
I313
sbtp956
sg501
(g911
(idivisor
TwoPDivisor
p957
(dp958
g839
I-8
sg840
I312
sbtp959
sg30
((idivisor
TwoPDivisor
p960
(dp961
g839
I4
sg840
I0
sb(idivisor
TwoPDivisor
p962
(dp963
g839
I-6
sg840
I303
sbtp964
sg387
(g844
(idivisor
TwoPDivisor
p965
(dp966
g839
I-8
sg840
I319
sbtp967
sg237
(g882
(idivisor
TwoPDivisor
p968
(dp969
g839
I-8
sg840
I300
sbtp970
sg90
((idivisor
TwoPDivisor
p971
(dp972
g839
I3
sg840
I33
sb(idivisor
TwoPDivisor
p973
(dp974
g839
I-7
sg840
I270
sbtp975
sg214
(g877
(idivisor
TwoPDivisor
p976
(dp977
g839
I-8
sg840
I321
sbtp978
sg750
((idivisor
TwoPDivisor
p979
(dp980
g839
I3
sg840
I-14
sb(idivisor
TwoPDivisor
p981
(dp982
g839
I-8
sg840
I277
sbtp983
sg554
(g919
(idivisor
TwoPDivisor
p984
(dp985
g839
I-8
sg840
I279
sbtp986
sg449
(g854
(idivisor
TwoPDivisor
p987
(dp988
g839
I-8
sg840
I269
sbtp989
sg650
(g859
(idivisor
TwoPDivisor
p990
(dp991
g839
I-8
sg840
I270
sbtp992
sg314
(g919
(idivisor
TwoPDivisor
p993
(dp994
g839
I-8
sg840
I292
sbtp995
sg169
((idivisor
TwoPDivisor
p996
(dp997
g839
I2
sg840
I17
sb(idivisor
TwoPDivisor
p998
(dp999
g839
I-8
sg840
I286
sbtp1000
sg238
(g943
(idivisor
TwoPDivisor
p1001
(dp1002
g839
I-8
sg840
I302
sbtp1003
sg283
(g996
(idivisor
TwoPDivisor
p1004
(dp1005
g839
I-8
sg840
I282
sbtp1006
sg391
(g854
(idivisor
TwoPDivisor
p1007
(dp1008
g839
I-8
sg840
I272
sbtp1009
sg450
(g900
(idivisor
TwoPDivisor
p1010
(dp1011
g839
I-8
sg840
I270
sbtp1012
sg78
((idivisor
TwoPDivisor
p1013
(dp1014
g839
I5
sg840
I-12
sb(idivisor
TwoPDivisor
p1015
(dp1016
g839
I-7
sg840
I314
sbtp1017
sg528
(g979
(idivisor
TwoPDivisor
p1018
(dp1019
g839
I-8
sg840
I299
sbtp1020
sg200
(g996
(idivisor
TwoPDivisor
p1021
(dp1022
g839
I-8
sg840
I285
sbtp1023
sg444
(g877
(idivisor
TwoPDivisor
p1024
(dp1025
g839
I-8
sg840
I308
sbtp1026
sg622
(g979
(idivisor
TwoPDivisor
p1027
(dp1028
g839
I-8
sg840
I292
sbtp1029
sg58
((idivisor
TwoPDivisor
p1030
(dp1031
g839
I7
sg840
I18
sb(idivisor
TwoPDivisor
p1032
(dp1033
g839
I-8
sg840
I283
sbtp1034
sg92
((idivisor
TwoPDivisor
p1035
(dp1036
g839
I1
sg840
I32
sb(idivisor
TwoPDivisor
p1037
(dp1038
g839
I-5
sg840
I271
sbtp1039
sg52
(g1035
(idivisor
TwoPDivisor
p1040
(dp1041
g839
I-4
sg840
I271
sbtp1042
sg284
((idivisor
TwoPDivisor
p1043
(dp1044
g839
I1
sg840
I16
sb(idivisor
TwoPDivisor
p1045
(dp1046
g839
I-8
sg840
I284
sbtp1047
sg718
(g887
(idivisor
TwoPDivisor
p1048
(dp1049
g839
I-8
sg840
I289
sbtp1050
sg616
((idivisor
TwoPDivisor
p1051
(dp1052
g839
I2
sg840
I9
sb(idivisor
TwoPDivisor
p1053
(dp1054
g839
I-8
sg840
I271
sbtp1055
sg24
((idivisor
TwoPDivisor
p1056
(dp1057
g839
I6
sg840
I10
sb(idivisor
TwoPDivisor
p1058
(dp1059
g839
I-7
sg840
I292
sbtp1060
sg381
(g882
(idivisor
TwoPDivisor
p1061
(dp1062
g839
I-8
sg840
I294
sbtp1063
sg723
(g924
(idivisor
TwoPDivisor
p1064
(dp1065
g839
I-8
sg840
I276
sbtp1066
sg207
((idivisor
TwoPDivisor
p1067
(dp1068
g839
I3
sg840
I2
sb(idivisor
TwoPDivisor
p1069
(dp1070
g839
I-7
sg840
I298
sbtp1071
sg746
(g887
(idivisor
TwoPDivisor
p1072
(dp1073
g839
I-8
sg840
I285
sbtp1074
sg318
(g979
(idivisor
TwoPDivisor
p1075
(dp1076
g839
I-8
sg840
I311
sbtp1077
sg89
((idivisor
TwoPDivisor
p1078
(dp1079
g839
I4
sg840
I33
sb(idivisor
TwoPDivisor
p1080
(dp1081
g839
I-8
sg840
I270
sbtp1082
sg603
(g911
(idivisor
TwoPDivisor
p1083
(dp1084
g839
I-8
sg840
I304
sbtp1085
sg749
(g924
(idivisor
TwoPDivisor
p1086
(dp1087
g839
I-8
sg840
I272
sbtp1088
sg503
(g996
(idivisor
TwoPDivisor
p1089
(dp1090
g839
I-8
sg840
I271
sbtp1091
sg613
(g887
(idivisor
TwoPDivisor
p1092
(dp1093
g839
I-8
sg840
I300
sbtp1094
sg420
(g919
(idivisor
TwoPDivisor
p1095
(dp1096
g839
I-8
sg840
I287
sbtp1097
sg61
((idivisor
TwoPDivisor
p1098
(dp1099
g839
I4
sg840
I18
sb(idivisor
TwoPDivisor
p1100
(dp1101
g839
I-5
sg840
I283
sbtp1102
sg47
(g929
(idivisor
TwoPDivisor
p1103
(dp1104
g839
I-8
sg840
I269
sbtp1105
sg376
((idivisor
TwoPDivisor
p1106
(dp1107
g839
I7
sg840
I9
sb(idivisor
TwoPDivisor
p1108
(dp1109
g839
I-8
sg840
I281
sbtp1110
sg86
(g911
(idivisor
TwoPDivisor
p1111
(dp1112
g839
I-8
sg840
I343
sbtp1113
sg345
(g911
(idivisor
TwoPDivisor
p1114
(dp1115
g839
I-8
sg840
I322
sbtp1116
sg147
((idivisor
TwoPDivisor
p1117
(dp1118
g839
I3
sg840
I-8
sb(idivisor
TwoPDivisor
p1119
(dp1120
g839
I-8
sg840
I311
sbtp1121
sg254
(g854
(idivisor
TwoPDivisor
p1122
(dp1123
g839
I-8
sg840
I278
sbtp1124
sg73
((idivisor
TwoPDivisor
p1125
(dp1126
g839
I7
sg840
I-5
sb(idivisor
TwoPDivisor
p1127
(dp1128
g839
I-8
sg840
I306
sbtp1129
sg208
(g882
(idivisor
TwoPDivisor
p1130
(dp1131
g839
I-8
sg840
I301
sbtp1132
sg317
(g924
(idivisor
TwoPDivisor
p1133
(dp1134
g839
I-8
sg840
I305
sbtp1135
sg177
(g1067
(idivisor
TwoPDivisor
p1136
(dp1137
g839
I-7
sg840
I299
sbtp1138
sg635
(g887
(idivisor
TwoPDivisor
p1139
(dp1140
g839
I-8
sg840
I298
sbtp1141
sg137
(g996
(idivisor
TwoPDivisor
p1142
(dp1143
g839
I-7
sg840
I286
sbtp1144
sg7
((idivisor
TwoPDivisor
p1145
(dp1146
g839
I5
sg840
I33
sb(idivisor
TwoPDivisor
p1147
(dp1148
g839
I-7
sg840
I270
sbtp1149
sg714
(g943
(idivisor
TwoPDivisor
p1150
(dp1151
g839
I-8
sg840
I271
sbtp1152
sg223
((idivisor
TwoPDivisor
p1153
(dp1154
g839
I4
sg840
I25
sb(idivisor
TwoPDivisor
p1155
(dp1156
g839
I-8
sg840
I274
sbtp1157
sg110
((idivisor
TwoPDivisor
p1158
(dp1159
g839
I3
sg840
I0
sb(idivisor
TwoPDivisor
p1160
(dp1161
g839
I-7
sg840
I303
sbtp1162
sg508
(g859
(idivisor
TwoPDivisor
p1163
(dp1164
g839
I-8
sg840
I281
sbtp1165
sg415
(g1043
(idivisor
TwoPDivisor
p1166
(dp1167
g839
I-8
sg840
I278
sbtp1168
sg733
(g887
(idivisor
TwoPDivisor
p1169
(dp1170
g839
I-8
sg840
I287
sbtp1171
sg242
(g979
(idivisor
TwoPDivisor
p1172
(dp1173
g839
I-8
sg840
I314
sbtp1174
sg727
(g844
(idivisor
TwoPDivisor
p1175
(dp1176
g839
I-8
sg840
I290
sbtp1177
sg469
(g872
(idivisor
TwoPDivisor
p1178
(dp1179
g839
I-8
sg840
I270
sbtp1180
sg399
(g859
(idivisor
TwoPDivisor
p1181
(dp1182
g839
I-8
sg840
I287
sbtp1183
sg293
(g924
(idivisor
TwoPDivisor
p1184
(dp1185
g839
I-8
sg840
I306
sbtp1186
sg168
(g872
(idivisor
TwoPDivisor
p1187
(dp1188
g839
I-8
sg840
I283
sbtp1189
sg288
(g859
(idivisor
TwoPDivisor
p1190
(dp1191
g839
I-8
sg840
I292
sbtp1192
sg432
(g872
(idivisor
TwoPDivisor
p1193
(dp1194
g839
I-8
sg840
I272
sbtp1195
sg765
(g844
(idivisor
TwoPDivisor
p1196
(dp1197
g839
I-8
sg840
I284
sbtp1198
sg597
(g943
(idivisor
TwoPDivisor
p1199
(dp1200
g839
I-8
sg840
I283
sbtp1201
sg826
(g887
(idivisor
TwoPDivisor
p1202
(dp1203
g839
I-8
sg840
I268
sbtp1204
sg257
(g996
(idivisor
TwoPDivisor
p1205
(dp1206
g839
I-8
sg840
I283
sbtp1207
sg221
((idivisor
TwoPDivisor
p1208
(dp1209
g839
I6
sg840
I25
sb(idivisor
TwoPDivisor
p1210
(dp1211
g839
I-8
sg840
I272
sbtp1212
sg787
(g844
(idivisor
TwoPDivisor
p1213
(dp1214
g839
I-8
sg840
I280
sbtp1215
sg728
(g911
(idivisor
TwoPDivisor
p1216
(dp1217
g839
I-8
sg840
I291
sbtp1218
sg37
((idivisor
TwoPDivisor
p1219
(dp1220
g839
I5
sg840
I-16
sb(idivisor
TwoPDivisor
p1221
(dp1222
g839
I-7
sg840
I319
sbtp1223
sg744
(g979
(idivisor
TwoPDivisor
p1224
(dp1225
g839
I-8
sg840
I278
sbtp1226
sg470
(g996
(idivisor
TwoPDivisor
p1227
(dp1228
g839
I-8
sg840
I273
sbtp1229
sg289
(g919
(idivisor
TwoPDivisor
p1230
(dp1231
g839
I-8
sg840
I293
sbtp1232
sg784
(g979
(idivisor
TwoPDivisor
p1233
(dp1234
g839
I-8
sg840
I271
sbtp1235
sg88
(g1145
(idivisor
TwoPDivisor
p1236
(dp1237
g839
I-8
sg840
I269
sbtp1238
sg67
((idivisor
TwoPDivisor
p1239
(dp1240
g839
I3
sg840
I8
sb(idivisor
TwoPDivisor
p1241
(dp1242
g839
I-6
sg840
I295
sbtp1243
sg766
(g911
(idivisor
TwoPDivisor
p1244
(dp1245
g839
I-8
sg840
I285
sbtp1246
sg487
(g996
(idivisor
TwoPDivisor
p1247
(dp1248
g839
I-8
sg840
I272
sbtp1249
sg51
((idivisor
TwoPDivisor
p1250
(dp1251
g839
I2
sg840
I33
sb(idivisor
TwoPDivisor
p1252
(dp1253
g839
I-5
sg840
I270
sbtp1254
sg233
(g1051
(idivisor
TwoPDivisor
p1255
(dp1256
g839
I-8
sg840
I292
sbtp1257
sg788
(g911
(idivisor
TwoPDivisor
p1258
(dp1259
g839
I-8
sg840
I281
sbtp1260
sg175
(g859
(idivisor
TwoPDivisor
p1261
(dp1262
g839
I-7
sg840
I295
sbtp1263
sg347
(g1153
(idivisor
TwoPDivisor
p1264
(dp1265
g839
I-8
sg840
I269
sbtp1266
sg647
(g844
(idivisor
TwoPDivisor
p1267
(dp1268
g839
I-8
sg840
I299
sbtp1269
sg292
((idivisor
TwoPDivisor
p1270
(dp1271
g839
I3
sg840
I-6
sb(idivisor
TwoPDivisor
p1272
(dp1273
g839
I-8
sg840
I304
sbtp1274
sg359
(g919
(idivisor
TwoPDivisor
p1275
(dp1276
g839
I-8
sg840
I290
sbtp1277
sg633
(g979
(idivisor
TwoPDivisor
p1278
(dp1279
g839
I-8
sg840
I291
sbtp1280
sg804
(g877
(idivisor
TwoPDivisor
p1281
(dp1282
g839
I-8
sg840
I271
sbtp1283
sg472
(g1106
(idivisor
TwoPDivisor
p1284
(dp1285
g839
I-8
sg840
I276
sbtp1286
sg517
(g911
(idivisor
TwoPDivisor
p1287
(dp1288
g839
I-8
sg840
I311
sbtp1289
sg700
(g979
(idivisor
TwoPDivisor
p1290
(dp1291
g839
I-8
sg840
I284
sbtp1292
sg649
(g1051
(idivisor
TwoPDivisor
p1293
(dp1294
g839
I-8
sg840
I268
sbtp1295
sg330
(g872
(idivisor
TwoPDivisor
p1296
(dp1297
g839
I-8
sg840
I277
sbtp1298
sg176
(g919
(idivisor
TwoPDivisor
p1299
(dp1300
g839
I-8
sg840
I297
sbtp1301
sg14
(g867
(idivisor
TwoPDivisor
p1302
(dp1303
g839
I-7
sg840
I278
sbtp1304
sg520
(g1106
(idivisor
TwoPDivisor
p1305
(dp1306
g839
I-8
sg840
I273
sbtp1307
sg121
(g844
(idivisor
TwoPDivisor
p1308
(dp1309
g839
I-8
sg840
I336
sbtp1310
sg160
((idivisor
TwoPDivisor
p1311
(dp1312
g839
I7
sg840
I25
sb(idivisor
TwoPDivisor
p1313
(dp1314
g839
I-8
sg840
I273
sbtp1315
sg209
(g943
(idivisor
TwoPDivisor
p1316
(dp1317
g839
I-8
sg840
I303
sbtp1318
sg101
((idivisor
TwoPDivisor
p1319
(dp1320
g839
I3
sg840
I18
sb(idivisor
TwoPDivisor
p1321
(dp1322
g839
I-5
sg840
I283
sbtp1323
sg555
(g882
(idivisor
TwoPDivisor
p1324
(dp1325
g839
I-8
sg840
I284
sbtp1326
sg516
(g844
(idivisor
TwoPDivisor
p1327
(dp1328
g839
I-1
sg840
I303
sbtp1329
sg553
(g859
(idivisor
TwoPDivisor
p1330
(dp1331
g839
I-8
sg840
I278
sbtp1332
sg710
(g887
(idivisor
TwoPDivisor
p1333
(dp1334
g839
I-8
sg840
I290
sbtp1335
sg713
(g882
(idivisor
TwoPDivisor
p1336
(dp1337
g839
I-8
sg840
I269
sbtp1338
sg761
(g924
(idivisor
TwoPDivisor
p1339
(dp1340
g839
I-8
sg840
I270
sbtp1341
sg277
(g1153
(idivisor
TwoPDivisor
p1342
(dp1343
g839
I-8
sg840
I272
sbtp1344
sg475
(g859
(idivisor
TwoPDivisor
p1345
(dp1346
g839
I-8
sg840
I283
sbtp1347
sg26
(g1239
(idivisor
TwoPDivisor
p1348
(dp1349
g839
I-5
sg840
I295
sbtp1350
sg690
(g943
(idivisor
TwoPDivisor
p1351
(dp1352
g839
I-8
sg840
I274
sbtp1353
sg629
(g919
(idivisor
TwoPDivisor
p1354
(dp1355
g839
I-8
sg840
I273
sbtp1356
sg556
(g943
(idivisor
TwoPDivisor
p1357
(dp1358
g839
I-8
sg840
I286
sbtp1359
sg261
(g1051
(idivisor
TwoPDivisor
p1360
(dp1361
g839
I-8
sg840
I291
sbtp1362
sg278
((idivisor
TwoPDivisor
p1363
(dp1364
g839
I2
sg840
I25
sb(idivisor
TwoPDivisor
p1365
(dp1366
g839
I-8
sg840
I274
sbtp1367
sg382
(g943
(idivisor
TwoPDivisor
p1368
(dp1369
g839
I-8
sg840
I296
sbtp1370
sg71
((idivisor
TwoPDivisor
p1371
(dp1372
g839
I4
sg840
I3
sb(idivisor
TwoPDivisor
p1373
(dp1374
g839
I-6
sg840
I299
sbtp1375
sg189
(g1250
(idivisor
TwoPDivisor
p1376
(dp1377
g839
I-8
sg840
I269
sbtp1378
sg216
(g844
(idivisor
TwoPDivisor
p1379
(dp1380
g839
I-8
sg840
I329
sbtp1381
sg816
(g877
(idivisor
TwoPDivisor
p1382
(dp1383
g839
I-8
sg840
I268
sbtp1384
sg498
(g877
(idivisor
TwoPDivisor
p1385
(dp1386
g839
I-8
sg840
I305
sbtp1387
sg799
(g979
(idivisor
TwoPDivisor
p1388
(dp1389
g839
I-8
sg840
I268
sbtp1390
sg806
(g844
(idivisor
TwoPDivisor
p1391
(dp1392
g839
I-8
sg840
I276
sbtp1393
sg477
(g882
(idivisor
TwoPDivisor
p1394
(dp1395
g839
I-8
sg840
I289
sbtp1396
sg462
(g979
(idivisor
TwoPDivisor
p1397
(dp1398
g839
I-8
sg840
I303
sbtp1399
sg821
(g844
(idivisor
TwoPDivisor
p1400
(dp1401
g839
I-8
sg840
I272
sbtp1402
sg666
(g877
(idivisor
TwoPDivisor
p1403
(dp1404
g839
I-8
sg840
I292
sbtp1405
sg362
(g924
(idivisor
TwoPDivisor
p1406
(dp1407
g839
I-8
sg840
I303
sbtp1408
sg617
(g859
(idivisor
TwoPDivisor
p1409
(dp1410
g839
I-8
sg840
I273
sbtp1411
sg323
(g1208
(idivisor
TwoPDivisor
p1412
(dp1413
g839
I-8
sg840
I268
sbtp1414
sg807
(g911
(idivisor
TwoPDivisor
p1415
(dp1416
g839
I-8
sg840
I277
sbtp1417
sg273
(g1035
(idivisor
TwoPDivisor
p1418
(dp1419
g839
I-8
sg840
I268
sbtp1420
sg822
(g911
(idivisor
TwoPDivisor
p1421
(dp1422
g839
I-8
sg840
I273
sbtp1423
sg25
((idivisor
TwoPDivisor
p1424
(dp1425
g839
I5
sg840
I10
sb(idivisor
TwoPDivisor
p1426
(dp1427
g839
I-6
sg840
I292
sbtp1428
sg574
(g887
(idivisor
TwoPDivisor
p1429
(dp1430
g839
I-8
sg840
I303
sbtp1431
sg479
(g924
(idivisor
TwoPDivisor
p1432
(dp1433
g839
I-8
sg840
I297
sbtp1434
sg587
(g877
(idivisor
TwoPDivisor
p1435
(dp1436
g839
I-8
sg840
I299
sbtp1437
sg105
(g1424
(idivisor
TwoPDivisor
p1438
(dp1439
g839
I-6
sg840
I290
sbtp1440
sg682
(g943
(idivisor
TwoPDivisor
p1441
(dp1442
g839
I-8
sg840
I275
sbtp1443
sg620
(g943
(idivisor
TwoPDivisor
p1444
(dp1445
g839
I-8
sg840
I281
sbtp1446
sg489
(g1106
(idivisor
TwoPDivisor
p1447
(dp1448
g839
I-8
sg840
I275
sbtp1449
sg220
(g1311
(idivisor
TwoPDivisor
p1450
(dp1451
g839
I-8
sg840
I271
sbtp1452
sg651
(g919
(idivisor
TwoPDivisor
p1453
(dp1454
g839
I-8
sg840
I271
sbtp1455
sg100
(g900
(idivisor
TwoPDivisor
p1456
(dp1457
g839
I-8
sg840
I284
sbtp1458
sg136
(g872
(idivisor
TwoPDivisor
p1459
(dp1460
g839
I-8
sg840
I284
sbtp1461
sg547
(g911
(idivisor
TwoPDivisor
p1462
(dp1463
g839
I-8
sg840
I308
sbtp1464
sg338
(g882
(idivisor
TwoPDivisor
p1465
(dp1466
g839
I-8
sg840
I296
sbtp1467
sg471
(g1043
(idivisor
TwoPDivisor
p1468
(dp1469
g839
I-8
sg840
I275
sbtp1470
sg461
(g924
(idivisor
TwoPDivisor
p1471
(dp1472
g839
I-8
sg840
I298
sbtp1473
sg611
(g979
(idivisor
TwoPDivisor
p1474
(dp1475
g839
I-8
sg840
I293
sbtp1476
sg76
((idivisor
TwoPDivisor
p1477
(dp1478
g839
I7
sg840
I-12
sb(idivisor
TwoPDivisor
p1479
(dp1480
g839
I-8
sg840
I313
sbtp1481
sg286
(g895
(idivisor
TwoPDivisor
p1482
(dp1483
g839
I-8
sg840
I286
sbtp1484
sg96
(g1153
(idivisor
TwoPDivisor
p1485
(dp1486
g839
I-8
sg840
I278
sbtp1487
sg669
(g911
(idivisor
TwoPDivisor
p1488
(dp1489
g839
I-8
sg840
I298
sbtp1490
sg130
(g867
(idivisor
TwoPDivisor
p1491
(dp1492
g839
I-8
sg840
I276
sbtp1493
sg708
(g979
(idivisor
TwoPDivisor
p1494
(dp1495
g839
I-8
sg840
I283
sbtp1496
sg109
(g1371
(idivisor
TwoPDivisor
p1497
(dp1498
g839
I-6
sg840
I298
sbtp1499
sg339
(g943
(idivisor
TwoPDivisor
p1500
(dp1501
g839
I-8
sg840
I298
sbtp1502
sg98
((idivisor
TwoPDivisor
p1503
(dp1504
g839
I1
sg840
I24
sb(idivisor
TwoPDivisor
p1505
(dp1506
g839
I-5
sg840
I279
sbtp1507
sg589
(g844
(idivisor
TwoPDivisor
p1508
(dp1509
g839
I-8
sg840
I304
sbtp1510
sg429
(g1503
(idivisor
TwoPDivisor
p1511
(dp1512
g839
I-8
sg840
I269
sbtp1513
sg490
(g895
(idivisor
TwoPDivisor
p1514
(dp1515
g839
I-8
sg840
I276
sbtp1516
sg363
(g979
(idivisor
TwoPDivisor
p1517
(dp1518
g839
I-8
sg840
I308
sbtp1519
sg259
(g1106
(idivisor
TwoPDivisor
p1520
(dp1521
g839
I-8
sg840
I286
sbtp1522
sg124
(g1078
(idivisor
TwoPDivisor
p1523
(dp1524
g839
I-8
sg840
I269
sbtp1525
sg441
(g943
(idivisor
TwoPDivisor
p1526
(dp1527
g839
I-8
sg840
I293
sbtp1528
sg155
(g911
(idivisor
TwoPDivisor
p1529
(dp1530
g839
I-8
sg840
I336
sbtp1531
sg564
(g1106
(idivisor
TwoPDivisor
p1532
(dp1533
g839
I-8
sg840
I270
sbtp1534
sg116
((idivisor
TwoPDivisor
p1535
(dp1536
g839
I4
sg840
I-16
sb(idivisor
TwoPDivisor
p1537
(dp1538
g839
I-8
sg840
I319
sbtp1539
sg370
(g1503
(idivisor
TwoPDivisor
p1540
(dp1541
g839
I-8
sg840
I272
sbtp1542
sg590
(g911
(idivisor
TwoPDivisor
p1543
(dp1544
g839
I-8
sg840
I305
sbtp1545
sg327
(g1503
(idivisor
TwoPDivisor
p1546
(dp1547
g839
I-8
sg840
I274
sbtp1548
sg550
(g1106
(idivisor
TwoPDivisor
p1549
(dp1550
g839
I-8
sg840
I271
sbtp1551
sg133
(g1503
(idivisor
TwoPDivisor
p1552
(dp1553
g839
I-6
sg840
I279
sbtp1554
sg12
(g1311
(idivisor
TwoPDivisor
p1555
(dp1556
g839
I-8
sg840
I277
sbtp1557
sg510
(g882
(idivisor
TwoPDivisor
p1558
(dp1559
g839
I-8
sg840
I287
sbtp1560
sg563
(g1043
(idivisor
TwoPDivisor
p1561
(dp1562
g839
I-8
sg840
I269
sbtp1563
sg523
(g859
(idivisor
TwoPDivisor
p1564
(dp1565
g839
I-8
sg840
I280
sbtp1566
sg514
(g877
(idivisor
TwoPDivisor
p1567
(dp1568
g839
I-8
sg840
I304
sbtp1569
sg569
(g882
(idivisor
TwoPDivisor
p1570
(dp1571
g839
I-8
sg840
I283
sbtp1572
sg120
((idivisor
TwoPDivisor
p1573
(dp1574
g839
I5
sg840
I-32
sb(idivisor
TwoPDivisor
p1575
(dp1576
g839
I-1
sg840
I327
sbtp1577
sg451
(g872
(idivisor
TwoPDivisor
p1578
(dp1579
g839
I-8
sg840
I271
sbtp1580
sg771
(g844
(idivisor
TwoPDivisor
p1581
(dp1582
g839
I-8
sg840
I283
sbtp1583
sg232
(g895
(idivisor
TwoPDivisor
p1584
(dp1585
g839
I-8
sg840
I288
sbtp1586
sg538
(g859
(idivisor
TwoPDivisor
p1587
(dp1588
g839
I-8
sg840
I279
sbtp1589
sg661
(g919
(idivisor
TwoPDivisor
p1590
(dp1591
g839
I-8
sg840
I270
sbtp1592
sg558
(g979
(idivisor
TwoPDivisor
p1593
(dp1594
g839
I-8
sg840
I297
sbtp1595
sg196
(g1503
(idivisor
TwoPDivisor
p1596
(dp1597
g839
I-8
sg840
I279
sbtp1598
sg673
(g943
(idivisor
TwoPDivisor
p1599
(dp1600
g839
I-8
sg840
I276
sbtp1601
sg145
((idivisor
TwoPDivisor
p1602
(dp1603
g839
I7
sg840
I-6
sb(idivisor
TwoPDivisor
p1604
(dp1605
g839
I-8
sg840
I305
sbtp1606
sg753
(g844
(idivisor
TwoPDivisor
p1607
(dp1608
g839
I-8
sg840
I286
sbtp1609
sg541
(g943
(idivisor
TwoPDivisor
p1610
(dp1611
g839
I-8
sg840
I287
sbtp1612
sg335
(g1051
(idivisor
TwoPDivisor
p1613
(dp1614
g839
I-8
sg840
I288
sbtp1615
sg577
(g1043
(idivisor
TwoPDivisor
p1616
(dp1617
g839
I-8
sg840
I268
sbtp1618
sg600
(g877
(idivisor
TwoPDivisor
p1619
(dp1620
g839
I-8
sg840
I298
sbtp1621
sg69
((idivisor
TwoPDivisor
p1622
(dp1623
g839
I6
sg840
I3
sb(idivisor
TwoPDivisor
p1624
(dp1625
g839
I-7
sg840
I298
sbtp1626
sg129
(g1208
(idivisor
TwoPDivisor
p1627
(dp1628
g839
I-8
sg840
I275
sbtp1629
sg373
(g872
(idivisor
TwoPDivisor
p1630
(dp1631
g839
I-8
sg840
I275
sbtp1632
sg322
(g911
(idivisor
TwoPDivisor
p1633
(dp1634
g839
I-1
sg840
I319
sbtp1635
sg253
(g1503
(idivisor
TwoPDivisor
p1636
(dp1637
g839
I-8
sg840
I277
sbtp1638
sg247
(g1035
(idivisor
TwoPDivisor
p1639
(dp1640
g839
I-8
sg840
I269
sbtp1641
sg299
(g1311
(idivisor
TwoPDivisor
p1642
(dp1643
g839
I-8
sg840
I268
sbtp1644
sg754
(g911
(idivisor
TwoPDivisor
p1645
(dp1646
g839
I-8
sg840
I287
sbtp1647
sg368
(g1153
(idivisor
TwoPDivisor
p1648
(dp1649
g839
I-8
sg840
I268
sbtp1650
sg305
(g854
(idivisor
TwoPDivisor
p1651
(dp1652
g839
I-8
sg840
I276
sbtp1653
sg316
(g943
(idivisor
TwoPDivisor
p1654
(dp1655
g839
I-8
sg840
I299
sbtp1656
sg741
(g844
(idivisor
TwoPDivisor
p1657
(dp1658
g839
I-8
sg840
I288
sbtp1659
sg143
((idivisor
TwoPDivisor
p1660
(dp1661
g839
I6
sg840
I2
sb(idivisor
TwoPDivisor
p1662
(dp1663
g839
I-7
sg840
I297
sbtp1664
sg599
(g979
(idivisor
TwoPDivisor
p1665
(dp1666
g839
I-8
sg840
I294
sbtp1667
sg767
(g924
(idivisor
TwoPDivisor
p1668
(dp1669
g839
I-8
sg840
I269
sbtp1670
sg692
(g979
(idivisor
TwoPDivisor
p1671
(dp1672
g839
I-8
sg840
I285
sbtp1673
sg334
(g895
(idivisor
TwoPDivisor
p1674
(dp1675
g839
I-8
sg840
I284
sbtp1676
sg248
(g1311
(idivisor
TwoPDivisor
p1677
(dp1678
g839
I-8
sg840
I270
sbtp1679
sg696
(g911
(idivisor
TwoPDivisor
p1680
(dp1681
g839
I-8
sg840
I295
sbtp1682
sg675
(g979
(idivisor
TwoPDivisor
p1683
(dp1684
g839
I-8
sg840
I287
sbtp1685
sg239
(g1270
(idivisor
TwoPDivisor
p1686
(dp1687
g839
I-8
sg840
I306
sbtp1688
sg365
(g887
(idivisor
TwoPDivisor
p1689
(dp1690
g839
I-1
sg840
I311
sbtp1691
sg18
((idivisor
TwoPDivisor
p1692
(dp1693
g839
I6
sg840
I18
sb(idivisor
TwoPDivisor
p1694
(dp1695
g839
I-7
sg840
I284
sbtp1696
sg605
(g1051
(idivisor
TwoPDivisor
p1697
(dp1698
g839
I-8
sg840
I272
sbtp1699
sg256
(g872
(idivisor
TwoPDivisor
p1700
(dp1701
g839
I-8
sg840
I280
sbtp1702
sg725
(g877
(idivisor
TwoPDivisor
p1703
(dp1704
g839
I-8
sg840
I285
sbtp1705
sg163
(g1153
(idivisor
TwoPDivisor
p1706
(dp1707
g839
I-8
sg840
I276
sbtp1708
sg548
(g996
(idivisor
TwoPDivisor
p1709
(dp1710
g839
I-8
sg840
I268
sbtp1711
sg751
(g877
(idivisor
TwoPDivisor
p1712
(dp1713
g839
I-8
sg840
I281
sbtp1714
sg384
(g979
(idivisor
TwoPDivisor
p1715
(dp1716
g839
I-8
sg840
I307
sbtp1717
sg683
(g924
(idivisor
TwoPDivisor
p1718
(dp1719
g839
I-8
sg840
I281
sbtp1720
sg113
((idivisor
TwoPDivisor
p1721
(dp1722
g839
I4
sg840
I-5
sb(idivisor
TwoPDivisor
p1723
(dp1724
g839
I-7
sg840
I307
sbtp1725
sg274
(g1311
(idivisor
TwoPDivisor
p1726
(dp1727
g839
I-8
sg840
I269
sbtp1728
sg324
(g867
(idivisor
TwoPDivisor
p1729
(dp1730
g839
I-8
sg840
I269
sbtp1731
sg464
(g887
(idivisor
TwoPDivisor
p1732
(dp1733
g839
I-8
sg840
I311
sbtp1734
sg540
(g882
(idivisor
TwoPDivisor
p1735
(dp1736
g839
I-8
sg840
I285
sbtp1737
sg150
((idivisor
TwoPDivisor
p1738
(dp1739
g839
I3
sg840
I-16
sb(idivisor
TwoPDivisor
p1740
(dp1741
g839
I-8
sg840
I319
sbtp1742
sg646
(g887
(idivisor
TwoPDivisor
p1743
(dp1744
g839
I-8
sg840
I297
sbtp1745
sg413
(g872
(idivisor
TwoPDivisor
p1746
(dp1747
g839
I-8
sg840
I273
sbtp1748
sg20
(g1098
(idivisor
TwoPDivisor
p1749
(dp1750
g839
I-5
sg840
I284
sbtp1751
sg654
(g924
(idivisor
TwoPDivisor
p1752
(dp1753
g839
I-8
sg840
I284
sbtp1754
sg140
((idivisor
TwoPDivisor
p1755
(dp1756
g839
I3
sg840
I10
sb(idivisor
TwoPDivisor
p1757
(dp1758
g839
I-6
sg840
I291
sbtp1759
sg691
(g924
(idivisor
TwoPDivisor
p1760
(dp1761
g839
I-8
sg840
I280
sbtp1762
sg632
(g924
(idivisor
TwoPDivisor
p1763
(dp1764
g839
I-8
sg840
I286
sbtp1765
sg797
(g844
(idivisor
TwoPDivisor
p1766
(dp1767
g839
I-8
sg840
I278
sbtp1768
sg604
(g895
(idivisor
TwoPDivisor
p1769
(dp1770
g839
I-8
sg840
I268
sbtp1771
sg445
(g887
(idivisor
TwoPDivisor
p1772
(dp1773
g839
I-8
sg840
I312
sbtp1774
sg619
(g882
(idivisor
TwoPDivisor
p1775
(dp1776
g839
I-8
sg840
I279
sbtp1777
sg366
(g844
(idivisor
TwoPDivisor
p1778
(dp1779
g839
I-8
sg840
I320
sbtp1780
sg674
(g924
(idivisor
TwoPDivisor
p1781
(dp1782
g839
I-8
sg840
I282
sbtp1783
sg628
(g859
(idivisor
TwoPDivisor
p1784
(dp1785
g839
I-8
sg840
I272
sbtp1786
sg532
(g911
(idivisor
TwoPDivisor
p1787
(dp1788
g839
I-1
sg840
I303
sbtp1789
sg431
(g900
(idivisor
TwoPDivisor
p1790
(dp1791
g839
I-8
sg840
I271
sbtp1792
sg662
(g882
(idivisor
TwoPDivisor
p1793
(dp1794
g839
I-8
sg840
I275
sbtp1795
sg484
(g911
(idivisor
TwoPDivisor
p1796
(dp1797
g839
I-8
sg840
I313
sbtp1798
sg810
(g844
(idivisor
TwoPDivisor
p1799
(dp1800
g839
I-8
sg840
I275
sbtp1801
sg34
((idivisor
TwoPDivisor
p1802
(dp1803
g839
I4
sg840
I-8
sb(idivisor
TwoPDivisor
p1804
(dp1805
g839
I-6
sg840
I311
sbtp1806
sg824
(g844
(idivisor
TwoPDivisor
p1807
(dp1808
g839
I-8
sg840
I271
sbtp1809
sg798
(g911
(idivisor
TwoPDivisor
p1810
(dp1811
g839
I-8
sg840
I279
sbtp1812
sg187
(g911
(idivisor
TwoPDivisor
p1813
(dp1814
g839
I-8
sg840
I335
sbtp1815
sg103
((idivisor
TwoPDivisor
p1816
(dp1817
g839
I7
sg840
I10
sb(idivisor
TwoPDivisor
p1818
(dp1819
g839
I-8
sg840
I290
sbtp1820
sg519
(g1043
(idivisor
TwoPDivisor
p1821
(dp1822
g839
I-8
sg840
I272
sbtp1823
sg354
(g1043
(idivisor
TwoPDivisor
p1824
(dp1825
g839
I-8
sg840
I281
sbtp1826
sg132
(g1363
(idivisor
TwoPDivisor
p1827
(dp1828
g839
I-7
sg840
I278
sbtp1829
sg403
(g924
(idivisor
TwoPDivisor
p1830
(dp1831
g839
I-8
sg840
I301
sbtp1832
sg483
(g844
(idivisor
TwoPDivisor
p1833
(dp1834
g839
I-8
sg840
I312
sbtp1835
sg631
(g943
(idivisor
TwoPDivisor
p1836
(dp1837
g839
I-8
sg840
I280
sbtp1838
sg62
(g1319
(idivisor
TwoPDivisor
p1839
(dp1840
g839
I-5
sg840
I284
sbtp1841
sg252
(g1363
(idivisor
TwoPDivisor
p1842
(dp1843
g839
I-8
sg840
I275
sbtp1844
sg565
(g895
(idivisor
TwoPDivisor
p1845
(dp1846
g839
I-8
sg840
I271
sbtp1847
sg126
(g1250
(idivisor
TwoPDivisor
p1848
(dp1849
g839
I-7
sg840
I270
sbtp1850
sg623
(g877
(idivisor
TwoPDivisor
p1851
(dp1852
g839
I-8
sg840
I296
sbtp1853
sg438
(g859
(idivisor
TwoPDivisor
p1854
(dp1855
g839
I-8
sg840
I285
sbtp1856
sg742
(g911
(idivisor
TwoPDivisor
p1857
(dp1858
g839
I-8
sg840
I289
sbtp1859
sg658
(g844
(idivisor
TwoPDivisor
p1860
(dp1861
g839
I-8
sg840
I298
sbtp1862
sg260
(g895
(idivisor
TwoPDivisor
p1863
(dp1864
g839
I-8
sg840
I287
sbtp1865
sg775
(g877
(idivisor
TwoPDivisor
p1866
(dp1867
g839
I-8
sg840
I277
sbtp1868
sg172
(g895
(idivisor
TwoPDivisor
p1869
(dp1870
g839
I-8
sg840
I290
sbtp1871
sg819
(g911
(idivisor
TwoPDivisor
p1872
(dp1873
g839
I-8
sg840
I274
sbtp1874
sg720
(g911
(idivisor
TwoPDivisor
p1875
(dp1876
g839
I-8
sg840
I292
sbtp1877
sg428
(g911
(idivisor
TwoPDivisor
p1878
(dp1879
g839
I-1
sg840
I311
sbtp1880
sg644
(g979
(idivisor
TwoPDivisor
p1881
(dp1882
g839
I-8
sg840
I290
sbtp1883
sg294
(g979
(idivisor
TwoPDivisor
p1884
(dp1885
g839
I-8
sg840
I312
sbtp1886
sg10
((idivisor
TwoPDivisor
p1887
(dp1888
g839
I2
sg840
I32
sb(idivisor
TwoPDivisor
p1889
(dp1890
g839
I-4
sg840
I271
sbtp1891
sg795
(g877
(idivisor
TwoPDivisor
p1892
(dp1893
g839
I-8
sg840
I273
sbtp1894
sg361
(g943
(idivisor
TwoPDivisor
p1895
(dp1896
g839
I-8
sg840
I297
sbtp1897
sg263
(g919
(idivisor
TwoPDivisor
p1898
(dp1899
g839
I-8
sg840
I294
sbtp1900
sg808
(g877
(idivisor
TwoPDivisor
p1901
(dp1902
g839
I-8
sg840
I270
sbtp1903
sg659
(g911
(idivisor
TwoPDivisor
p1904
(dp1905
g839
I-8
sg840
I299
sbtp1906
sg227
(g900
(idivisor
TwoPDivisor
p1907
(dp1908
g839
I-8
sg840
I280
sbtp1909
sg371
(g854
(idivisor
TwoPDivisor
p1910
(dp1911
g839
I-8
sg840
I273
sbtp1912
sg755
(g924
(idivisor
TwoPDivisor
p1913
(dp1914
g839
I-8
sg840
I271
sbtp1915
sg131
(g1153
(idivisor
TwoPDivisor
p1916
(dp1917
g839
I-8
sg840
I277
sbtp1918
sg23
(g1816
(idivisor
TwoPDivisor
p1919
(dp1920
g839
I-8
sg840
I292
sbtp1921
sg488
(g1043
(idivisor
TwoPDivisor
p1922
(dp1923
g839
I-8
sg840
I274
sbtp1924
sg3
((idivisor
TwoPDivisor
p1925
(dp1926
g839
I7
sg840
I-47
sb(idivisor
TwoPDivisor
p1927
(dp1928
g839
I-8
sg840
I349
sbtp1929
sg79
(g1535
(idivisor
TwoPDivisor
p1930
(dp1931
g839
I-7
sg840
I319
sbtp1932
sg419
(g859
(idivisor
TwoPDivisor
p1933
(dp1934
g839
I-8
sg840
I286
sbtp1935
sg142
((idivisor
TwoPDivisor
p1936
(dp1937
g839
I7
sg840
I2
sb(idivisor
TwoPDivisor
p1938
(dp1939
g839
I-8
sg840
I297
sbtp1940
sg225
(g1503
(idivisor
TwoPDivisor
p1941
(dp1942
g839
I-8
sg840
I278
sbtp1943
sg627
(g1051
(idivisor
TwoPDivisor
p1944
(dp1945
g839
I-8
sg840
I270
sbtp1946
sg170
(g1043
(idivisor
TwoPDivisor
p1947
(dp1948
g839
I-7
sg840
I287
sbtp1949
sg194
(g1153
(idivisor
TwoPDivisor
p1950
(dp1951
g839
I-8
sg840
I275
sbtp1952
sg372
(g900
(idivisor
TwoPDivisor
p1953
(dp1954
g839
I-8
sg840
I274
sbtp1955
sg460
(g943
(idivisor
TwoPDivisor
p1956
(dp1957
g839
I-8
sg840
I292
sbtp1958
sg757
(g877
(idivisor
TwoPDivisor
p1959
(dp1960
g839
I-8
sg840
I280
sbtp1961
sg59
(g1692
(idivisor
TwoPDivisor
p1962
(dp1963
g839
I-7
sg840
I283
sbtp1964
sg593
(g1051
(idivisor
TwoPDivisor
p1965
(dp1966
g839
I-8
sg840
I273
sbtp1967
sg782
(g844
(idivisor
TwoPDivisor
p1968
(dp1969
g839
I-8
sg840
I281
sbtp1970
sg763
(g877
(idivisor
TwoPDivisor
p1971
(dp1972
g839
I-8
sg840
I279
sbtp1973
sg602
(g844
(idivisor
TwoPDivisor
p1974
(dp1975
g839
I-8
sg840
I303
sbtp1976
sg118
((idivisor
TwoPDivisor
p1977
(dp1978
g839
I5
sg840
I-20
sb(idivisor
TwoPDivisor
p1979
(dp1980
g839
I-8
sg840
I322
sbtp1981
sg204
(g1051
(idivisor
TwoPDivisor
p1982
(dp1983
g839
I-8
sg840
I293
sbtp1984
sg785
(g877
(idivisor
TwoPDivisor
p1985
(dp1986
g839
I-8
sg840
I275
sbtp1987
sg82
((idivisor
TwoPDivisor
p1988
(dp1989
g839
I7
sg840
I-27
sb(idivisor
TwoPDivisor
p1990
(dp1991
g839
I-8
sg840
I328
sbtp1992
sg467
(g854
(idivisor
TwoPDivisor
p1993
(dp1994
g839
I-8
sg840
I268
sbtp1995
sg198
(g900
(idivisor
TwoPDivisor
p1996
(dp1997
g839
I-8
sg840
I281
sbtp1998
sg504
(g1043
(idivisor
TwoPDivisor
p1999
(dp2000
g839
I-8
sg840
I273
sbtp2001
sg735
(g911
(idivisor
TwoPDivisor
p2002
(dp2003
g839
I-8
sg840
I290
sbtp2004
sg699
(g924
(idivisor
TwoPDivisor
p2005
(dp2006
g839
I-8
sg840
I279
sbtp2007
sg665
(g979
(idivisor
TwoPDivisor
p2008
(dp2009
g839
I-8
sg840
I288
sbtp2010
sg830
(g911
(idivisor
TwoPDivisor
p2011
(dp2012
g839
I-8
sg840
I270
sbtp2013
sg423
(g924
(idivisor
TwoPDivisor
p2014
(dp2015
g839
I-8
sg840
I300
sbtp2016
sg672
(g882
(idivisor
TwoPDivisor
p2017
(dp2018
g839
I-8
sg840
I274
sbtp2019
sg244
(g887
(idivisor
TwoPDivisor
p2020
(dp2021
g839
I-1
sg840
I319
sbtp2022
sg701
(g877
(idivisor
TwoPDivisor
p2023
(dp2024
g839
I-8
sg840
I288
sbtp2025
sg722
(g943
(idivisor
TwoPDivisor
p2026
(dp2027
g839
I-8
sg840
I270
sbtp2028
sg199
(g872
(idivisor
TwoPDivisor
p2029
(dp2030
g839
I-8
sg840
I282
sbtp2031
sg60
(g836
(idivisor
TwoPDivisor
p2032
(dp2033
g839
I-6
sg840
I283
sbtp2034
sg567
(g859
(idivisor
TwoPDivisor
p2035
(dp2036
g839
I-8
sg840
I277
sbtp2037
sg310
(g1106
(idivisor
TwoPDivisor
p2038
(dp2039
g839
I-8
sg840
I284
sbtp2040
sg91
(g1250
(idivisor
TwoPDivisor
p2041
(dp2042
g839
I-6
sg840
I270
sbtp2043
sg213
(g979
(idivisor
TwoPDivisor
p2044
(dp2045
g839
I-8
sg840
I315
sbtp2046
sg141
((idivisor
TwoPDivisor
p2047
(dp2048
g839
I2
sg840
I8
sb(idivisor
TwoPDivisor
p2049
(dp2050
g839
I-7
sg840
I295
sbtp2051
sg40
((idivisor
TwoPDivisor
p2052
(dp2053
g839
I5
sg840
I-24
sb(idivisor
TwoPDivisor
p2054
(dp2055
g839
I-7
sg840
I327
sbtp2056
sg780
(g877
(idivisor
TwoPDivisor
p2057
(dp2058
g839
I-8
sg840
I276
sbtp2059
sg534
(g1043
(idivisor
TwoPDivisor
p2060
(dp2061
g839
I-8
sg840
I271
sbtp2062
sg756
(g979
(idivisor
TwoPDivisor
p2063
(dp2064
g839
I-8
sg840
I276
sbtp2065
sg313
(g859
(idivisor
TwoPDivisor
p2066
(dp2067
g839
I-8
sg840
I291
sbtp2068
sg551
(g895
(idivisor
TwoPDivisor
p2069
(dp2070
g839
I-8
sg840
I272
sbtp2071
sg230
(g1043
(idivisor
TwoPDivisor
p2072
(dp2073
g839
I-8
sg840
I286
sbtp2074
sg412
(g900
(idivisor
TwoPDivisor
p2075
(dp2076
g839
I-8
sg840
I272
sbtp2077
sg41
(g1988
(idivisor
TwoPDivisor
p2078
(dp2079
g839
I-8
sg840
I329
sbtp2080
sg476
(g919
(idivisor
TwoPDivisor
p2081
(dp2082
g839
I-8
sg840
I284
sbtp2083
sg694
(g887
(idivisor
TwoPDivisor
p2084
(dp2085
g839
I-8
sg840
I292
sbtp2086
sg351
(g900
(idivisor
TwoPDivisor
p2087
(dp2088
g839
I-8
sg840
I275
sbtp2089
sg341
(g979
(idivisor
TwoPDivisor
p2090
(dp2091
g839
I-1
sg840
I303
sbtp2092
sg770
(g887
(idivisor
TwoPDivisor
p2093
(dp2094
g839
I-8
sg840
I281
sbtp2095
sg66
(g1424
(idivisor
TwoPDivisor
p2096
(dp2097
g839
I-6
sg840
I291
sbtp2098
sg367
(g911
(idivisor
TwoPDivisor
p2099
(dp2100
g839
I-8
sg840
I321
sbtp2101
sg525
(g882
(idivisor
TwoPDivisor
p2102
(dp2103
g839
I-8
sg840
I286
sbtp2104
sg356
(g895
(idivisor
TwoPDivisor
p2105
(dp2106
g839
I-8
sg840
I283
sbtp2107
sg410
(g1503
(idivisor
TwoPDivisor
p2108
(dp2109
g839
I-8
sg840
I270
sbtp2110
sg655
(g979
(idivisor
TwoPDivisor
p2111
(dp2112
g839
I-8
sg840
I289
sbtp2113
sg369
(g1363
(idivisor
TwoPDivisor
p2114
(dp2115
g839
I-8
sg840
I270
sbtp2116
sg800
(g877
(idivisor
TwoPDivisor
p2117
(dp2118
g839
I-8
sg840
I272
sbtp2119
sg463
(g877
(idivisor
TwoPDivisor
p2120
(dp2121
g839
I-8
sg840
I307
sbtp2122
sg386
(g887
(idivisor
TwoPDivisor
p2123
(dp2124
g839
I-8
sg840
I315
sbtp2125
sg505
(g1106
(idivisor
TwoPDivisor
p2126
(dp2127
g839
I-8
sg840
I274
sbtp2128
sg818
(g844
(idivisor
TwoPDivisor
p2129
(dp2130
g839
I-8
sg840
I273
sbtp2131
sg29
((idivisor
TwoPDivisor
p2132
(dp2133
g839
I5
sg840
I3
sb(idivisor
TwoPDivisor
p2134
(dp2135
g839
I-6
sg840
I299
sbtp2136
sg591
(g1106
(idivisor
TwoPDivisor
p2137
(dp2138
g839
I-8
sg840
I268
sbtp2139
sg186
(g844
(idivisor
TwoPDivisor
p2140
(dp2141
g839
I-1
sg840
I327
sbtp2142
sg320
(g887
(idivisor
TwoPDivisor
p2143
(dp2144
g839
I-8
sg840
I320
sbtp2145
sg820
(g887
(idivisor
TwoPDivisor
p2146
(dp2147
g839
I-8
sg840
I270
sbtp2148
sg427
(g844
(idivisor
TwoPDivisor
p2149
(dp2150
g839
I-8
sg840
I315
sbtp2151
sg15
(g1153
(idivisor
TwoPDivisor
p2152
(dp2153
g839
I-6
sg840
I278
sbtp2154
sg218
(g1250
(idivisor
TwoPDivisor
p2155
(dp2156
g839
I-8
sg840
I268
sbtp2157
sg46
((idivisor
TwoPDivisor
p2158
(dp2159
g839
I7
sg840
I33
sb(idivisor
TwoPDivisor
p2160
(dp2161
g839
I-8
sg840
I268
sbtp2162
sg726
(g887
(idivisor
TwoPDivisor
p2163
(dp2164
g839
I-8
sg840
I288
sbtp2165
sg435
(g1106
(idivisor
TwoPDivisor
p2166
(dp2167
g839
I-8
sg840
I278
sbtp2168
sg388
(g911
(idivisor
TwoPDivisor
p2169
(dp2170
g839
I-8
sg840
I320
sbtp2171
sg9
(g971
(idivisor
TwoPDivisor
p2172
(dp2173
g839
I-5
sg840
I270
sbtp2174
sg790
(g877
(idivisor
TwoPDivisor
p2175
(dp2176
g839
I-8
sg840
I274
sbtp2177
sg625
(g844
(idivisor
TwoPDivisor
p2178
(dp2179
g839
I-8
sg840
I301
sbtp2180
sg279
(g1503
(idivisor
TwoPDivisor
p2181
(dp2182
g839
I-8
sg840
I276
sbtp2183
sg49
(g1078
(idivisor
TwoPDivisor
p2184
(dp2185
g839
I-7
sg840
I270
sbtp2186
sg271
(g844
(idivisor
TwoPDivisor
p2187
(dp2188
g839
I-8
sg840
I327
sbtp2189
sg434
(g1043
(idivisor
TwoPDivisor
p2190
(dp2191
g839
I-8
sg840
I277
sbtp2192
sg500
(g844
(idivisor
TwoPDivisor
p2193
(dp2194
g839
I-8
sg840
I311
sbtp2195
sg32
(g1125
(idivisor
TwoPDivisor
p2196
(dp2197
g839
I-8
sg840
I307
sbtp2198
sg777
(g844
(idivisor
TwoPDivisor
p2199
(dp2200
g839
I-8
sg840
I282
sbtp2201
sg407
(g844
(idivisor
TwoPDivisor
p2202
(dp2203
g839
I-1
sg840
I311
sbtp2204
sg529
(g877
(idivisor
TwoPDivisor
p2205
(dp2206
g839
I-8
sg840
I303
sbtp2207
sg48
(g1145
(idivisor
TwoPDivisor
p2208
(dp2209
g839
I-8
sg840
I270
sbtp2210
sg645
(g877
(idivisor
TwoPDivisor
p2211
(dp2212
g839
I-8
sg840
I294
sbtp2213
sg375
(g1043
(idivisor
TwoPDivisor
p2214
(dp2215
g839
I-8
sg840
I280
sbtp2216
sg421
(g882
(idivisor
TwoPDivisor
p2217
(dp2218
g839
I-8
sg840
I292
sbtp2219
sg561
(g844
(idivisor
TwoPDivisor
p2220
(dp2221
g839
I-8
sg840
I306
sbtp2222
sg499
(g887
(idivisor
TwoPDivisor
p2223
(dp2224
g839
I-8
sg840
I308
sbtp2225
sg576
(g911
(idivisor
TwoPDivisor
p2226
(dp2227
g839
I-8
sg840
I306
sbtp2228
sg778
(g911
(idivisor
TwoPDivisor
p2229
(dp2230
g839
I-8
sg840
I283
sbtp2231
sg210
(g1270
(idivisor
TwoPDivisor
p2232
(dp2233
g839
I-8
sg840
I307
sbtp2234
sg174
(g1051
(idivisor
TwoPDivisor
p2235
(dp2236
g839
I-8
sg840
I294
sbtp2237
sg397
(g895
(idivisor
TwoPDivisor
p2238
(dp2239
g839
I-8
sg840
I281
sbtp2240
sg562
(g911
(idivisor
TwoPDivisor
p2241
(dp2242
g839
I-8
sg840
I307
sbtp2243
sg518
(g996
(idivisor
TwoPDivisor
p2244
(dp2245
g839
I-8
sg840
I270
sbtp2246
sg344
(g844
(idivisor
TwoPDivisor
p2247
(dp2248
g839
I-8
sg840
I321
sbtp2249
sg595
(g919
(idivisor
TwoPDivisor
p2250
(dp2251
g839
I-8
sg840
I276
sbtp2252
sg383
(g924
(idivisor
TwoPDivisor
p2253
(dp2254
g839
I-8
sg840
I302
sbtp2255
sg75
(g1802
(idivisor
TwoPDivisor
p2256
(dp2257
g839
I-7
sg840
I311
sbtp2258
sg287
(g1051
(idivisor
TwoPDivisor
p2259
(dp2260
g839
I-8
sg840
I290
sbtp2261
sg8
(g1078
(idivisor
TwoPDivisor
p2262
(dp2263
g839
I-6
sg840
I270
sbtp2264
sg106
(g1755
(idivisor
TwoPDivisor
p2265
(dp2266
g839
I-6
sg840
I292
sbtp2267
sg457
(g859
(idivisor
TwoPDivisor
p2268
(dp2269
g839
I-8
sg840
I284
sbtp2270
sg759
(g844
(idivisor
TwoPDivisor
p2271
(dp2272
g839
I-8
sg840
I285
sbtp2273
sg610
(g924
(idivisor
TwoPDivisor
p2274
(dp2275
g839
I-8
sg840
I288
sbtp2276
sg588
(g887
(idivisor
TwoPDivisor
p2277
(dp2278
g839
I-8
sg840
I302
sbtp2279
sg640
(g919
(idivisor
TwoPDivisor
p2280
(dp2281
g839
I-8
sg840
I272
sbtp2282
sg509
(g919
(idivisor
TwoPDivisor
p2283
(dp2284
g839
I-8
sg840
I282
sbtp2285
sg154
(g844
(idivisor
TwoPDivisor
p2286
(dp2287
g839
I-8
sg840
I335
sbtp2288
sg533
(g996
(idivisor
TwoPDivisor
p2289
(dp2290
g839
I-8
sg840
I269
sbtp2291
sg789
(g979
(idivisor
TwoPDivisor
p2292
(dp2293
g839
I-8
sg840
I270
sbtp2294
sg182
(g1738
(idivisor
TwoPDivisor
p2295
(dp2296
g839
I-1
sg840
I311
sbtp2297
sg465
(g844
(idivisor
TwoPDivisor
p2298
(dp2299
g839
I-8
sg840
I313
sbtp2300
sg315
(g882
(idivisor
TwoPDivisor
p2301
(dp2302
g839
I-8
sg840
I297
sbtp2303
sg458
(g919
(idivisor
TwoPDivisor
p2304
(dp2305
g839
I-8
sg840
I285
sbtp2306
sg575
(g844
(idivisor
TwoPDivisor
p2307
(dp2308
g839
I-8
sg840
I305
sbtp2309
sg165
(g1503
(idivisor
TwoPDivisor
p2310
(dp2311
g839
I-7
sg840
I279
sbtp2312
sg531
(g844
(idivisor
TwoPDivisor
p2313
(dp2314
g839
I-8
sg840
I308
sbtp2315
sg809
(g887
(idivisor
TwoPDivisor
p2316
(dp2317
g839
I-8
sg840
I273
sbtp2318
sg630
(g882
(idivisor
TwoPDivisor
p2319
(dp2320
g839
I-8
sg840
I278
sbtp2321
sg405
(g877
(idivisor
TwoPDivisor
p2322
(dp2323
g839
I-8
sg840
I311
sbtp2324
sg634
(g877
(idivisor
TwoPDivisor
p2325
(dp2326
g839
I-8
sg840
I295
sbtp2327
sg481
(g877
(idivisor
TwoPDivisor
p2328
(dp2329
g839
I-8
sg840
I306
sbtp2330
sg823
(g887
(idivisor
TwoPDivisor
p2331
(dp2332
g839
I-8
sg840
I269
sbtp2333
sg193
(g867
(idivisor
TwoPDivisor
p2334
(dp2335
g839
I-8
sg840
I274
sbtp2336
sg748
(g911
(idivisor
TwoPDivisor
p2337
(dp2338
g839
I-8
sg840
I288
sbtp2339
sg119
((idivisor
TwoPDivisor
p2340
(dp2341
g839
I6
sg840
I-27
sb(idivisor
TwoPDivisor
p2342
(dp2343
g839
I-8
sg840
I328
sbtp2344
sg195
(g1363
(idivisor
TwoPDivisor
p2345
(dp2346
g839
I-8
sg840
I277
sbtp2347
sg424
(g979
(idivisor
TwoPDivisor
p2348
(dp2349
g839
I-8
sg840
I305
sbtp2350
sg703
(g844
(idivisor
TwoPDivisor
p2351
(dp2352
g839
I-8
sg840
I293
sbtp2353
sg737
(g924
(idivisor
TwoPDivisor
p2354
(dp2355
g839
I-8
sg840
I274
sbtp2356
sg188
(g971
(idivisor
TwoPDivisor
p2357
(dp2358
g839
I-8
sg840
I268
sbtp2359
sg151
(g1977
(idivisor
TwoPDivisor
p2360
(dp2361
g839
I-8
sg840
I321
sbtp2362
sg336
(g859
(idivisor
TwoPDivisor
p2363
(dp2364
g839
I-8
sg840
I290
sbtp2365
sg486
(g872
(idivisor
TwoPDivisor
p2366
(dp2367
g839
I-8
sg840
I269
sbtp2368
sg95
(g867
(idivisor
TwoPDivisor
p2369
(dp2370
g839
I-8
sg840
I277
sbtp2371
sg425
(g877
(idivisor
TwoPDivisor
p2372
(dp2373
g839
I-1
sg840
I303
sbtp2374
sg537
(g1051
(idivisor
TwoPDivisor
p2375
(dp2376
g839
I-8
sg840
I277
sbtp2377
sg715
(g924
(idivisor
TwoPDivisor
p2378
(dp2379
g839
I-8
sg840
I277
sbtp2380
sg211
((idivisor
TwoPDivisor
p2381
(dp2382
g839
I2
sg840
I-8
sb(idivisor
TwoPDivisor
p2383
(dp2384
g839
I-1
sg840
I303
sbtp2385
sg764
(g887
(idivisor
TwoPDivisor
p2386
(dp2387
g839
I-8
sg840
I282
sbtp2388
sg38
((idivisor
TwoPDivisor
p2389
(dp2390
g839
I7
sg840
I-19
sb(idivisor
TwoPDivisor
p2391
(dp2392
g839
I-8
sg840
I321
sbtp2393
sg596
(g882
(idivisor
TwoPDivisor
p2394
(dp2395
g839
I-8
sg840
I281
sbtp2396
sg497
(g979
(idivisor
TwoPDivisor
p2397
(dp2398
g839
I-8
sg840
I301
sbtp2399
sg158
(g1250
(idivisor
TwoPDivisor
p2400
(dp2401
g839
I-8
sg840
I270
sbtp2402
sg337
(g919
(idivisor
TwoPDivisor
p2403
(dp2404
g839
I-8
sg840
I291
sbtp2405
sg53
(g1311
(idivisor
TwoPDivisor
p2406
(dp2407
g839
I-8
sg840
I276
sbtp2408
sg817
(g887
(idivisor
TwoPDivisor
p2409
(dp2410
g839
I-8
sg840
I271
sbtp2411
sg452
(g996
(idivisor
TwoPDivisor
p2412
(dp2413
g839
I-8
sg840
I274
sbtp2414
sg814
(g844
(idivisor
TwoPDivisor
p2415
(dp2416
g839
I-8
sg840
I274
sbtp2417
sg321
(g844
(idivisor
TwoPDivisor
p2418
(dp2419
g839
I-8
sg840
I322
sbtp2420
sg667
(g887
(idivisor
TwoPDivisor
p2421
(dp2422
g839
I-8
sg840
I295
sbtp2423
sg731
(g979
(idivisor
TwoPDivisor
p2424
(dp2425
g839
I-8
sg840
I280
sbtp2426
sg123
(g1145
(idivisor
TwoPDivisor
p2427
(dp2428
g839
I-8
sg840
I268
sbtp2429
sg93
(g1311
(idivisor
TwoPDivisor
p2430
(dp2431
g839
I-8
sg840
I275
sbtp2432
sg480
(g979
(idivisor
TwoPDivisor
p2433
(dp2434
g839
I-8
sg840
I302
sbtp2435
sg581
(g859
(idivisor
TwoPDivisor
p2436
(dp2437
g839
I-8
sg840
I276
sbtp2438
sg802
(g844
(idivisor
TwoPDivisor
p2439
(dp2440
g839
I-8
sg840
I277
sbtp2441
sg833
(g911
(idivisor
TwoPDivisor
p2442
(dp2443
g839
I-8
sg840
I268
sbtp2444
sg676
(g877
(idivisor
TwoPDivisor
p2445
(dp2446
g839
I-8
sg840
I291
sbtp2447
sg831
(g844
(idivisor
TwoPDivisor
p2448
(dp2449
g839
I-8
sg840
I268
sbtp2450
sg680
(g919
(idivisor
TwoPDivisor
p2451
(dp2452
g839
I-8
sg840
I268
sbtp2453
sg815
(g911
(idivisor
TwoPDivisor
p2454
(dp2455
g839
I-8
sg840
I275
sbtp2456
sg332
(g1043
(idivisor
TwoPDivisor
p2457
(dp2458
g839
I-8
sg840
I282
sbtp2459
sg357
(g1051
(idivisor
TwoPDivisor
p2460
(dp2461
g839
I-8
sg840
I287
sbtp2462
sg608
(g882
(idivisor
TwoPDivisor
p2463
(dp2464
g839
I-8
sg840
I280
sbtp2465
sg606
(g859
(idivisor
TwoPDivisor
p2466
(dp2467
g839
I-8
sg840
I274
sbtp2468
sg436
(g895
(idivisor
TwoPDivisor
p2469
(dp2470
g839
I-8
sg840
I279
sbtp2471
sg512
(g924
(idivisor
TwoPDivisor
p2472
(dp2473
g839
I-8
sg840
I295
sbtp2474
sg190
(g1035
(idivisor
TwoPDivisor
p2475
(dp2476
g839
I-8
sg840
I271
sbtp2477
sg601
(g887
(idivisor
TwoPDivisor
p2478
(dp2479
g839
I-8
sg840
I301
sbtp2480
sg68
((idivisor
TwoPDivisor
p2481
(dp2482
g839
I7
sg840
I3
sb(idivisor
TwoPDivisor
p2483
(dp2484
g839
I-8
sg840
I298
sbtp2485
sg832
(g911
(idivisor
TwoPDivisor
p2486
(dp2487
g839
I-8
sg840
I269
sbtp2488
sg571
(g924
(idivisor
TwoPDivisor
p2489
(dp2490
g839
I-8
sg840
I291
sbtp2491
sg301
(g867
(idivisor
TwoPDivisor
p2492
(dp2493
g839
I-8
sg840
I270
sbtp2494
sg536
(g895
(idivisor
TwoPDivisor
p2495
(dp2496
g839
I-8
sg840
I273
sbtp2497
sg496
(g924
(idivisor
TwoPDivisor
p2498
(dp2499
g839
I-8
sg840
I296
sbtp2500
sg455
(g895
(idivisor
TwoPDivisor
p2501
(dp2502
g839
I-8
sg840
I278
sbtp2503
sg607
(g919
(idivisor
TwoPDivisor
p2504
(dp2505
g839
I-8
sg840
I275
sbtp2506
sg736
(g943
(idivisor
TwoPDivisor
p2507
(dp2508
g839
I-8
sg840
I268
sbtp2509
sg312
(g1051
(idivisor
TwoPDivisor
p2510
(dp2511
g839
I-8
sg840
I289
sbtp2512
sg202
(g1106
(idivisor
TwoPDivisor
p2513
(dp2514
g839
I-8
sg840
I288
sbtp2515
sg609
(g943
(idivisor
TwoPDivisor
p2516
(dp2517
g839
I-8
sg840
I282
sbtp2518
sg456
(g1051
(idivisor
TwoPDivisor
p2519
(dp2520
g839
I-8
sg840
I282
sbtp2521
sg236
(g1067
(idivisor
TwoPDivisor
p2522
(dp2523
g839
I-7
sg840
I297
sbtp2524
sg618
(g919
(idivisor
TwoPDivisor
p2525
(dp2526
g839
I-8
sg840
I274
sbtp2527
sg698
(g943
(idivisor
TwoPDivisor
p2528
(dp2529
g839
I-8
sg840
I273
sbtp2530
sg792
(g844
(idivisor
TwoPDivisor
p2531
(dp2532
g839
I-8
sg840
I279
sbtp2533
sg219
(g1035
(idivisor
TwoPDivisor
p2534
(dp2535
g839
I-8
sg840
I270
sbtp2536
sg408
(g911
(idivisor
TwoPDivisor
p2537
(dp2538
g839
I-8
sg840
I319
sbtp2539
sg139
(g895
(idivisor
TwoPDivisor
p2540
(dp2541
g839
I-8
sg840
I291
sbtp2542
sg243
(g877
(idivisor
TwoPDivisor
p2543
(dp2544
g839
I-8
sg840
I320
sbtp2545
sg298
(g911
(idivisor
TwoPDivisor
p2546
(dp2547
g839
I-8
sg840
I327
sbtp2548
sg70
(g2132
(idivisor
TwoPDivisor
p2549
(dp2550
g839
I-6
sg840
I298
sbtp2551
sg494
(g882
(idivisor
TwoPDivisor
p2552
(dp2553
g839
I-8
sg840
I288
sbtp2554
sg543
(g979
(idivisor
TwoPDivisor
p2555
(dp2556
g839
I-8
sg840
I298
sbtp2557
sg319
(g877
(idivisor
TwoPDivisor
p2558
(dp2559
g839
I-8
sg840
I315
sbtp2560
sg268
(g979
(idivisor
TwoPDivisor
p2561
(dp2562
g839
I-8
sg840
I313
sbtp2563
sg325
(g1153
(idivisor
TwoPDivisor
p2564
(dp2565
g839
I-8
sg840
I270
sbtp2566
sg805
(g887
(idivisor
TwoPDivisor
p2567
(dp2568
g839
I-8
sg840
I274
sbtp2569
sg280
(g854
(idivisor
TwoPDivisor
p2570
(dp2571
g839
I-8
sg840
I277
sbtp2572
sg437
(g1051
(idivisor
TwoPDivisor
p2573
(dp2574
g839
I-8
sg840
I283
sbtp2575
sg570
(g943
(idivisor
TwoPDivisor
p2576
(dp2577
g839
I-8
sg840
I285
sbtp2578
sg406
(g887
(idivisor
TwoPDivisor
p2579
(dp2580
g839
I-8
sg840
I314
sbtp2581
sg16
((idivisor
TwoPDivisor
p2582
(dp2583
g839
I2
sg840
I24
sb(idivisor
TwoPDivisor
p2584
(dp2585
g839
I-4
sg840
I279
sbtp2586
sg495
(g943
(idivisor
TwoPDivisor
p2587
(dp2588
g839
I-8
sg840
I290
sbtp2589
sg491
(g1051
(idivisor
TwoPDivisor
p2590
(dp2591
g839
I-8
sg840
I280
sbtp2592
sg331
(g996
(idivisor
TwoPDivisor
p2593
(dp2594
g839
I-8
sg840
I280
sbtp2595
sg300
(g1208
(idivisor
TwoPDivisor
p2596
(dp2597
g839
I-8
sg840
I269
sbtp2598
sg281
(g900
(idivisor
TwoPDivisor
p2599
(dp2600
g839
I-8
sg840
I278
sbtp2601
sg107
(g2047
(idivisor
TwoPDivisor
p2602
(dp2603
g839
I-6
sg840
I295
sbtp2604
sg648
(g911
(idivisor
TwoPDivisor
p2605
(dp2606
g839
I-8
sg840
I300
sbtp2607
sg246
(g911
(idivisor
TwoPDivisor
p2608
(dp2609
g839
I-8
sg840
I329
sbtp2610
sg774
(g979
(idivisor
TwoPDivisor
p2611
(dp2612
g839
I-8
sg840
I273
sbtp2613
sg636
(g844
(idivisor
TwoPDivisor
p2614
(dp2615
g839
I-8
sg840
I300
sbtp2616
sg350
(g854
(idivisor
TwoPDivisor
p2617
(dp2618
g839
I-8
sg840
I274
sbtp2619
sg296
(g887
(idivisor
TwoPDivisor
p2620
(dp2621
g839
I-8
sg840
I321
sbtp2622
sg752
(g887
(idivisor
TwoPDivisor
p2623
(dp2624
g839
I-8
sg840
I284
sbtp2625
sg343
(g887
(idivisor
TwoPDivisor
p2626
(dp2627
g839
I-8
sg840
I319
sbtp2628
sg309
(g1043
(idivisor
TwoPDivisor
p2629
(dp2630
g839
I-8
sg840
I283
sbtp2631
sg57
(g2582
(idivisor
TwoPDivisor
p2632
(dp2633
g839
I-5
sg840
I279
sbtp2634
sg681
(g882
(idivisor
TwoPDivisor
p2635
(dp2636
g839
I-8
sg840
I273
sbtp2637
sg637
(g911
(idivisor
TwoPDivisor
p2638
(dp2639
g839
I-8
sg840
I301
sbtp2640
sg241
((idivisor
TwoPDivisor
p2641
(dp2642
g839
I4
sg840
I-13
sb(idivisor
TwoPDivisor
p2643
(dp2644
g839
I-8
sg840
I312
sbtp2645
sg228
(g872
(idivisor
TwoPDivisor
p2646
(dp2647
g839
I-8
sg840
I281
sbtp2648
sg162
(g867
(idivisor
TwoPDivisor
p2649
(dp2650
g839
I-8
sg840
I275
sbtp2651
sg515
(g887
(idivisor
TwoPDivisor
p2652
(dp2653
g839
I-8
sg840
I307
sbtp2654
sg104
(g1056
(idivisor
TwoPDivisor
p2655
(dp2656
g839
I-7
sg840
I290
sbtp2657
sg566
(g1051
(idivisor
TwoPDivisor
p2658
(dp2659
g839
I-8
sg840
I275
sbtp2660
sg524
(g919
(idivisor
TwoPDivisor
p2661
(dp2662
g839
I-8
sg840
I281
sbtp2663
sg275
(g1208
(idivisor
TwoPDivisor
p2664
(dp2665
g839
I-8
sg840
I270
sbtp2666
sg148
((idivisor
TwoPDivisor
p2667
(dp2668
g839
I7
sg840
I-13
sb(idivisor
TwoPDivisor
p2669
(dp2670
g839
I-8
sg840
I312
sbtp2671
sg709
(g877
(idivisor
TwoPDivisor
p2672
(dp2673
g839
I-8
sg840
I287
sbtp2674
sg303
(g1363
(idivisor
TwoPDivisor
p2675
(dp2676
g839
I-8
sg840
I273
sbtp2677
sg685
(g877
(idivisor
TwoPDivisor
p2678
(dp2679
g839
I-8
sg840
I290
sbtp2680
sg739
(g877
(idivisor
TwoPDivisor
p2681
(dp2682
g839
I-8
sg840
I283
sbtp2683
sg146
(g1721
(idivisor
TwoPDivisor
p2684
(dp2685
g839
I-7
sg840
I306
sbtp2686
sg108
(g1936
(idivisor
TwoPDivisor
p2687
(dp2688
g839
I-8
sg840
I298
sbtp2689
sg572
(g979
(idivisor
TwoPDivisor
p2690
(dp2691
g839
I-8
sg840
I296
sbtp2692
sg502
(g872
(idivisor
TwoPDivisor
p2693
(dp2694
g839
I-8
sg840
I268
sbtp2695
sg269
(g877
(idivisor
TwoPDivisor
p2696
(dp2697
g839
I-8
sg840
I319
sbtp2698
sg234
(g859
(idivisor
TwoPDivisor
p2699
(dp2700
g839
I-8
sg840
I294
sbtp2701
sg342
(g877
(idivisor
TwoPDivisor
p2702
(dp2703
g839
I-8
sg840
I314
sbtp2704
sg94
(g1208
(idivisor
TwoPDivisor
p2705
(dp2706
g839
I-8
sg840
I276
sbtp2707
sg97
(g1363
(idivisor
TwoPDivisor
p2708
(dp2709
g839
I-6
sg840
I278
sbtp2710
sg164
(g1363
(idivisor
TwoPDivisor
p2711
(dp2712
g839
I-8
sg840
I278
sbtp2713
sg240
(g924
(idivisor
TwoPDivisor
p2714
(dp2715
g839
I-8
sg840
I308
sbtp2716
sg642
(g943
(idivisor
TwoPDivisor
p2717
(dp2718
g839
I-8
sg840
I279
sbtp2719
sg117
(g849
(idivisor
TwoPDivisor
p2720
(dp2721
g839
I-8
sg840
I320
sbtp2722
sg157
(g971
(idivisor
TwoPDivisor
p2723
(dp2724
g839
I-8
sg840
I269
sbtp2725
sg264
(g882
(idivisor
TwoPDivisor
p2726
(dp2727
g839
I-8
sg840
I299
sbtp2728
sg167
(g900
(idivisor
TwoPDivisor
p2729
(dp2730
g839
I-8
sg840
I282
sbtp2731
sg304
(g1503
(idivisor
TwoPDivisor
p2732
(dp2733
g839
I-8
sg840
I275
sbtp2734
sg579
(g895
(idivisor
TwoPDivisor
p2735
(dp2736
g839
I-8
sg840
I270
sbtp2737
sg192
(g1208
(idivisor
TwoPDivisor
p2738
(dp2739
g839
I-8
sg840
I273
sbtp2740
sg178
(g1602
(idivisor
TwoPDivisor
p2741
(dp2742
g839
I-8
sg840
I304
sbtp2743
sg235
(g919
(idivisor
TwoPDivisor
p2744
(dp2745
g839
I-8
sg840
I295
sbtp2746
sg307
(g872
(idivisor
TwoPDivisor
p2747
(dp2748
g839
I-8
sg840
I278
sbtp2749
sg468
(g900
(idivisor
TwoPDivisor
p2750
(dp2751
g839
I-8
sg840
I269
sbtp2752
sg346
(g867
(idivisor
TwoPDivisor
p2753
(dp2754
g839
I-8
sg840
I268
sbtp2755
sg546
(g844
(idivisor
TwoPDivisor
p2756
(dp2757
g839
I-8
sg840
I307
sbtp2758
sg732
(g877
(idivisor
TwoPDivisor
p2759
(dp2760
g839
I-8
sg840
I284
sbtp2761
sg411
(g854
(idivisor
TwoPDivisor
p2762
(dp2763
g839
I-8
sg840
I271
sbtp2764
sg711
(g844
(idivisor
TwoPDivisor
p2765
(dp2766
g839
I-8
sg840
I292
sbtp2767
sg557
(g924
(idivisor
TwoPDivisor
p2768
(dp2769
g839
I-8
sg840
I292
sbtp2770
sg705
(g882
(idivisor
TwoPDivisor
p2771
(dp2772
g839
I-8
sg840
I270
sbtp2773
sg474
(g1051
(idivisor
TwoPDivisor
p2774
(dp2775
g839
I-8
sg840
I281
sbtp2776
sg796
(g887
(idivisor
TwoPDivisor
p2777
(dp2778
g839
I-8
sg840
I276
sbtp2779
sg559
(g877
(idivisor
TwoPDivisor
p2780
(dp2781
g839
I-8
sg840
I301
sbtp2782
sg364
(g877
(idivisor
TwoPDivisor
p2783
(dp2784
g839
I-8
sg840
I313
sbtp2785
sg684
(g979
(idivisor
TwoPDivisor
p2786
(dp2787
g839
I-8
sg840
I286
sbtp2788
sg206
(g919
(idivisor
TwoPDivisor
p2789
(dp2790
g839
I-8
sg840
I296
sbtp2791
sg99
(g854
(idivisor
TwoPDivisor
p2792
(dp2793
g839
I-8
sg840
I283
sbtp2794
sg454
(g1106
(idivisor
TwoPDivisor
p2795
(dp2796
g839
I-8
sg840
I277
sbtp2797
sg183
(g1977
(idivisor
TwoPDivisor
p2798
(dp2799
g839
I-8
sg840
I320
sbtp2800
sg306
(g900
(idivisor
TwoPDivisor
p2801
(dp2802
g839
I-8
sg840
I277
sbtp2803
sg358
(g859
(idivisor
TwoPDivisor
p2804
(dp2805
g839
I-8
sg840
I289
sbtp2806
sg115
(g1013
(idivisor
TwoPDivisor
p2807
(dp2808
g839
I-7
sg840
I313
sbtp2809
sg697
(g882
(idivisor
TwoPDivisor
p2810
(dp2811
g839
I-8
sg840
I271
sbtp2812
sg738
(g979
(idivisor
TwoPDivisor
p2813
(dp2814
g839
I-8
sg840
I279
sbtp2815
sg663
(g943
(idivisor
TwoPDivisor
p2816
(dp2817
g839
I-8
sg840
I277
sbtp2818
sg712
(g911
(idivisor
TwoPDivisor
p2819
(dp2820
g839
I-8
sg840
I293
sbtp2821
sg21
((idivisor
TwoPDivisor
p2822
(dp2823
g839
I3
sg840
I16
sb(idivisor
TwoPDivisor
p2824
(dp2825
g839
I-5
sg840
I287
sbtp2826
sg333
(g1106
(idivisor
TwoPDivisor
p2827
(dp2828
g839
I-8
sg840
I283
sbtp2829
sg64
(g1816
(idivisor
TwoPDivisor
p2830
(dp2831
g839
I-8
sg840
I291
sbtp2832
sg400
(g919
(idivisor
TwoPDivisor
p2833
(dp2834
g839
I-8
sg840
I288
sbtp2835
sg13
(g1208
(idivisor
TwoPDivisor
p2836
(dp2837
g839
I-8
sg840
I278
sbtp2838
sg311
(g895
(idivisor
TwoPDivisor
p2839
(dp2840
g839
I-8
sg840
I285
sbtp2841
sg251
(g1153
(idivisor
TwoPDivisor
p2842
(dp2843
g839
I-8
sg840
I273
sbtp2844
sg478
(g943
(idivisor
TwoPDivisor
p2845
(dp2846
g839
I-8
sg840
I291
sbtp2847
sg217
(g911
(idivisor
TwoPDivisor
p2848
(dp2849
g839
I-1
sg840
I327
sbtp2850
sg45
(g1925
(idivisor
TwoPDivisor
p2851
(dp2852
g839
I-1
sg840
I342
sbtp2853
sg743
(g924
(idivisor
TwoPDivisor
p2854
(dp2855
g839
I-8
sg840
I273
sbtp2856
sg156
(g1078
(idivisor
TwoPDivisor
p2857
(dp2858
g839
I-8
sg840
I268
sbtp2859
sg398
(g1051
(idivisor
TwoPDivisor
p2860
(dp2861
g839
I-8
sg840
I285
sbtp2862
sg249
(g1208
(idivisor
TwoPDivisor
p2863
(dp2864
g839
I-8
sg840
I271
sbtp2865
sg786
(g887
(idivisor
TwoPDivisor
p2866
(dp2867
g839
I-8
sg840
I278
sbtp2868
sg11
((idivisor
TwoPDivisor
p2869
(dp2870
g839
I7
sg840
I26
sb(idivisor
TwoPDivisor
p2871
(dp2872
g839
I-8
sg840
I276
sbtp2873
sg184
(g877
(idivisor
TwoPDivisor
p2874
(dp2875
g839
I-8
sg840
I322
sbtp2876
sg297
(g844
(idivisor
TwoPDivisor
p2877
(dp2878
g839
I-1
sg840
I319
sbtp2879
sg28
(g1622
(idivisor
TwoPDivisor
p2880
(dp2881
g839
I-7
sg840
I299
sbtp2882
sg229
(g996
(idivisor
TwoPDivisor
p2883
(dp2884
g839
I-8
sg840
I284
sbtp2885
sg161
(g1208
(idivisor
TwoPDivisor
p2886
(dp2887
g839
I-8
sg840
I274
sbtp2888
sg657
(g887
(idivisor
TwoPDivisor
p2889
(dp2890
g839
I-8
sg840
I296
sbtp2891
sg544
(g877
(idivisor
TwoPDivisor
p2892
(dp2893
g839
I-8
sg840
I302
sbtp2894
sg542
(g924
(idivisor
TwoPDivisor
p2895
(dp2896
g839
I-8
sg840
I293
sbtp2897
sg185
(g887
(idivisor
TwoPDivisor
p2898
(dp2899
g839
I-8
sg840
I328
sbtp2900
sg282
(g872
(idivisor
TwoPDivisor
p2901
(dp2902
g839
I-8
sg840
I279
sbtp2903
sg33
((idivisor
TwoPDivisor
p2904
(dp2905
g839
I6
sg840
I-5
sb(idivisor
TwoPDivisor
p2906
(dp2907
g839
I-7
sg840
I307
sbtp2908
sg707
(g924
(idivisor
TwoPDivisor
p2909
(dp2910
g839
I-8
sg840
I278
sbtp2911
sg827
(g844
(idivisor
TwoPDivisor
p2912
(dp2913
g839
I-8
sg840
I270
sbtp2914
sg54
(g1208
(idivisor
TwoPDivisor
p2915
(dp2916
g839
I-8
sg840
I277
sbtp2917
sg745
(g877
(idivisor
TwoPDivisor
p2918
(dp2919
g839
I-8
sg840
I282
sbtp2920
sg374
(g996
(idivisor
TwoPDivisor
p2921
(dp2922
g839
I-8
sg840
I278
sbtp2923
sg678
(g844
(idivisor
TwoPDivisor
p2924
(dp2925
g839
I-8
sg840
I296
sbtp2926
sg396
(g1106
(idivisor
TwoPDivisor
p2927
(dp2928
g839
I-8
sg840
I280
sbtp2929
sg173
(g1755
(idivisor
TwoPDivisor
p2930
(dp2931
g839
I-6
sg840
I290
sbtp2932
sg149
(g2641
(idivisor
TwoPDivisor
p2933
(dp2934
g839
I-8
sg840
I315
sbtp2935
sg422
(g943
(idivisor
TwoPDivisor
p2936
(dp2937
g839
I-8
sg840
I294
sbtp2938
sg418
(g1051
(idivisor
TwoPDivisor
p2939
(dp2940
g839
I-8
sg840
I284
sbtp2941
sg245
(g844
(idivisor
TwoPDivisor
p2942
(dp2943
g839
I-8
sg840
I328
sbtp2944
sg828
(g911
(idivisor
TwoPDivisor
p2945
(dp2946
g839
I-8
sg840
I271
sbtp2947
sg22
((idivisor
TwoPDivisor
p2948
(dp2949
g839
I7
sg840
I11
sb(idivisor
TwoPDivisor
p2950
(dp2951
g839
I-8
sg840
I291
sbtp2952
sg394
(g996
(idivisor
TwoPDivisor
p2953
(dp2954
g839
I-8
sg840
I277
sbtp2955
sg592
(g895
(idivisor
TwoPDivisor
p2956
(dp2957
g839
I-8
sg840
I269
sbtp2958
sg624
(g887
(idivisor
TwoPDivisor
p2959
(dp2960
g839
I-8
sg840
I299
sbtp2961
sg348
(g1363
(idivisor
TwoPDivisor
p2962
(dp2963
g839
I-8
sg840
I271
sbtp2964
sg772
(g911
(idivisor
TwoPDivisor
p2965
(dp2966
g839
I-8
sg840
I284
sbtp2967
sg706
(g943
(idivisor
TwoPDivisor
p2968
(dp2969
g839
I-8
sg840
I272
sbtp2970
sg203
(g895
(idivisor
TwoPDivisor
p2971
(dp2972
g839
I-8
sg840
I289
sbtp2973
sg638
(g1051
(idivisor
TwoPDivisor
p2974
(dp2975
g839
I-8
sg840
I269
sbtp2976
sg417
(g895
(idivisor
TwoPDivisor
p2977
(dp2978
g839
I-8
sg840
I280
sbtp2979
sg42
((idivisor
TwoPDivisor
p2980
(dp2981
g839
I6
sg840
I-32
sb(idivisor
TwoPDivisor
p2982
(dp2983
g839
I-8
sg840
I335
sbtp2984
sg794
(g979
(idivisor
TwoPDivisor
p2985
(dp2986
g839
I-8
sg840
I269
sbtp2987
sg27
(g2481
(idivisor
TwoPDivisor
p2988
(dp2989
g839
I-8
sg840
I299
sbtp2990
sg453
(g1043
(idivisor
TwoPDivisor
p2991
(dp2992
g839
I-8
sg840
I276
sbtp2993
sg440
(g882
(idivisor
TwoPDivisor
p2994
(dp2995
g839
I-8
sg840
I291
sbtp2996
sg389
(g1363
(idivisor
TwoPDivisor
p2997
(dp2998
g839
I-8
sg840
I269
sbtp2999
sg447
(g911
(idivisor
TwoPDivisor
p3000
(dp3001
g839
I-8
sg840
I315
sbtp3002
sg267
(g924
(idivisor
TwoPDivisor
p3003
(dp3004
g839
I-8
sg840
I307
sbtp3005
sg258
(g1043
(idivisor
TwoPDivisor
p3006
(dp3007
g839
I-8
sg840
I285
sbtp3008
sg50
(g971
(idivisor
TwoPDivisor
p3009
(dp3010
g839
I-6
sg840
I270
sbtp3011
sg688
(g911
(idivisor
TwoPDivisor
p3012
(dp3013
g839
I-8
sg840
I296
sbtp3014
sg812
(g877
(idivisor
TwoPDivisor
p3015
(dp3016
g839
I-8
sg840
I269
sbtp3017
sg584
(g943
(idivisor
TwoPDivisor
p3018
(dp3019
g839
I-8
sg840
I284
sbtp3020
sg377
(g895
(idivisor
TwoPDivisor
p3021
(dp3022
g839
I-8
sg840
I282
sbtp3023
sg641
(g882
(idivisor
TwoPDivisor
p3024
(dp3025
g839
I-8
sg840
I277
sbtp3026
sg205
(g859
(idivisor
TwoPDivisor
p3027
(dp3028
g839
I-8
sg840
I295
sbtp3029
sg446
(g844
(idivisor
TwoPDivisor
p3030
(dp3031
g839
I-8
sg840
I314
sbtp3032
sg716
(g979
(idivisor
TwoPDivisor
p3033
(dp3034
g839
I-8
sg840
I282
sbtp3035
sg215
(g887
(idivisor
TwoPDivisor
p3036
(dp3037
g839
I-8
sg840
I327
sbtp3038
sg511
(g943
(idivisor
TwoPDivisor
p3039
(dp3040
g839
I-8
sg840
I289
sbtp3041
sg687
(g844
(idivisor
TwoPDivisor
p3042
(dp3043
g839
I-8
sg840
I295
sbtp3044
sg439
(g919
(idivisor
TwoPDivisor
p3045
(dp3046
g839
I-8
sg840
I286
sbtp3047
sg35
(g1477
(idivisor
TwoPDivisor
p3048
(dp3049
g839
I-8
sg840
I314
sbtp3050
sg166
(g854
(idivisor
TwoPDivisor
p3051
(dp3052
g839
I-8
sg840
I281
sbtp3053
sg573
(g877
(idivisor
TwoPDivisor
p3054
(dp3055
g839
I-8
sg840
I300
sbtp3056
sg181
(g2641
(idivisor
TwoPDivisor
p3057
(dp3058
g839
I-8
sg840
I314
sbtp3059
sg353
(g996
(idivisor
TwoPDivisor
p3060
(dp3061
g839
I-8
sg840
I279
sbtp3062
sg433
(g996
(idivisor
TwoPDivisor
p3063
(dp3064
g839
I-8
sg840
I275
sbtp3065
sg36
((idivisor
TwoPDivisor
p3066
(dp3067
g839
I6
sg840
I-12
sb(idivisor
TwoPDivisor
p3068
(dp3069
g839
I-7
sg840
I314
sbtp3070
sg135
(g900
(idivisor
TwoPDivisor
p3071
(dp3072
g839
I-8
sg840
I283
sbtp3073
sg758
(g887
(idivisor
TwoPDivisor
p3074
(dp3075
g839
I-8
sg840
I283
sbtp3076
sg171
((idivisor
TwoPDivisor
p3077
(dp3078
g839
I0
sg840
I16
sb(idivisor
TwoPDivisor
p3079
(dp3080
g839
I-6
sg840
I287
sbtp3081
sg414
(g996
(idivisor
TwoPDivisor
p3082
(dp3083
g839
I-8
sg840
I276
sbtp3084
sg614
(g844
(idivisor
TwoPDivisor
p3085
(dp3086
g839
I-8
sg840
I302
sbtp3087
sg401
(g882
(idivisor
TwoPDivisor
p3088
(dp3089
g839
I-8
sg840
I293
sbtp3090
sg179
(g1721
(idivisor
TwoPDivisor
p3091
(dp3092
g839
I-7
sg840
I305
sbtp3093
sg791
(g887
(idivisor
TwoPDivisor
p3094
(dp3095
g839
I-8
sg840
I277
sbtp3096
sg355
(g1106
(idivisor
TwoPDivisor
p3097
(dp3098
g839
I-8
sg840
I282
sbtp3099
sg212
(g2641
(idivisor
TwoPDivisor
p3100
(dp3101
g839
I-8
sg840
I313
sbtp3102
sg265
(g943
(idivisor
TwoPDivisor
p3103
(dp3104
g839
I-8
sg840
I301
sbtp3105
sg84
(g1573
(idivisor
TwoPDivisor
p3106
(dp3107
g839
I-8
sg840
I335
sbtp3108
sg302
(g1153
(idivisor
TwoPDivisor
p3109
(dp3110
g839
I-8
sg840
I271
sbtp3111
sg328
(g854
(idivisor
TwoPDivisor
p3112
(dp3113
g839
I-8
sg840
I275
sbtp3114
sg349
(g1503
(idivisor
TwoPDivisor
p3115
(dp3116
g839
I-8
sg840
I273
sbtp3117
sg668
(g844
(idivisor
TwoPDivisor
p3118
(dp3119
g839
I-8
sg840
I297
sbtp3120
sg783
(g911
(idivisor
TwoPDivisor
p3121
(dp3122
g839
I-8
sg840
I282
sbtp3123
sg702
(g887
(idivisor
TwoPDivisor
p3124
(dp3125
g839
I-8
sg840
I291
sbtp3126
sg643
(g924
(idivisor
TwoPDivisor
p3127
(dp3128
g839
I-8
sg840
I285
sbtp3129
sg180
(g1270
(idivisor
TwoPDivisor
p3130
(dp3131
g839
I-8
sg840
I308
sbtp3132
sg17
(g1030
(idivisor
TwoPDivisor
p3133
(dp3134
g839
I-8
sg840
I284
sbtp3135
sg539
(g919
(idivisor
TwoPDivisor
p3136
(dp3137
g839
I-8
sg840
I280
sbtp3138
sg660
(g859
(idivisor
TwoPDivisor
p3139
(dp3140
g839
I-8
sg840
I269
sbtp3141
sg781
(g887
(idivisor
TwoPDivisor
p3142
(dp3143
g839
I-8
sg840
I279
sbtp3144
sg409
(g1363
(idivisor
TwoPDivisor
p3145
(dp3146
g839
I-8
sg840
I268
sbtp3147
sg612
(g877
(idivisor
TwoPDivisor
p3148
(dp3149
g839
I-8
sg840
I297
sbtp3150
sg159
(g1035
(idivisor
TwoPDivisor
p3151
(dp3152
g839
I-7
sg840
I271
sbtp3153
sg521
(g895
(idivisor
TwoPDivisor
p3154
(dp3155
g839
I-8
sg840
I274
sbtp3156
sg390
(g1503
(idivisor
TwoPDivisor
p3157
(dp3158
g839
I-8
sg840
I271
sbtp3159
sg811
(g911
(idivisor
TwoPDivisor
p3160
(dp3161
g839
I-8
sg840
I276
sbtp3162
sg768
(g979
(idivisor
TwoPDivisor
p3163
(dp3164
g839
I-8
sg840
I274
sbtp3165
sg56
(g1153
(idivisor
TwoPDivisor
p3166
(dp3167
g839
I-7
sg840
I278
sbtp3168
sg568
(g919
(idivisor
TwoPDivisor
p3169
(dp3170
g839
I-8
sg840
I278
sbtp3171
sg4
((idivisor
TwoPDivisor
p3172
(dp3173
g839
I1
sg840
I40
sb(idivisor
TwoPDivisor
p3174
(dp3175
g839
I-3
sg840
I263
sbtp3176
sg730
(g924
(idivisor
TwoPDivisor
p3177
(dp3178
g839
I-8
sg840
I275
sbtp3179
sg801
(g887
(idivisor
TwoPDivisor
p3180
(dp3181
g839
I-8
sg840
I275
sbtp3182
sg695
(g844
(idivisor
TwoPDivisor
p3183
(dp3184
g839
I-8
sg840
I294
sbtp3185
sg55
(g867
(idivisor
TwoPDivisor
p3186
(dp3187
g839
I-8
sg840
I278
sbtp3188
sg402
(g943
(idivisor
TwoPDivisor
p3189
(dp3190
g839
I-8
sg840
I295
sbtp3191
sg776
(g887
(idivisor
TwoPDivisor
p3192
(dp3193
g839
I-8
sg840
I280
sbtp3194
sg360
(g882
(idivisor
TwoPDivisor
p3195
(dp3196
g839
I-8
sg840
I295
sbtp3197
sg379
(g859
(idivisor
TwoPDivisor
p3198
(dp3199
g839
I-8
sg840
I288
sbtp3200
sg340
(g924
(idivisor
TwoPDivisor
p3201
(dp3202
g839
I-8
sg840
I304
sbtp3203
sg552
(g1051
(idivisor
TwoPDivisor
p3204
(dp3205
g839
I-8
sg840
I276
sbtp3206
sg724
(g979
(idivisor
TwoPDivisor
p3207
(dp3208
g839
I-8
sg840
I281
sbtp3209
sg719
(g844
(idivisor
TwoPDivisor
p3210
(dp3211
g839
I-8
sg840
I291
sbtp3212
sg191
(g1311
(idivisor
TwoPDivisor
p3213
(dp3214
g839
I-8
sg840
I272
sbtp3215
sg560
(g887
(idivisor
TwoPDivisor
p3216
(dp3217
g839
I-8
sg840
I304
sbtp3218
sg773
(g924
(idivisor
TwoPDivisor
p3219
(dp3220
g839
I-8
sg840
I268
sbtp3221
sg747
(g844
(idivisor
TwoPDivisor
p3222
(dp3223
g839
I-8
sg840
I287
sbtp3224
sg380
(g919
(idivisor
TwoPDivisor
p3225
(dp3226
g839
I-8
sg840
I289
sbtp3227
sg6
(g929
(idivisor
TwoPDivisor
p3228
(dp3229
g839
I-8
sg840
I270
sbtp3230
sg295
(g877
(idivisor
TwoPDivisor
p3231
(dp3232
g839
I-1
sg840
I311
sbtp3233
sg65
(g1056
(idivisor
TwoPDivisor
p3234
(dp3235
g839
I-7
sg840
I291
sbtp3236
sg290
(g882
(idivisor
TwoPDivisor
p3237
(dp3238
g839
I-8
sg840
I298
sbtp3239
sg442
(g924
(idivisor
TwoPDivisor
p3240
(dp3241
g839
I-8
sg840
I299
sbtp3242
sg459
(g882
(idivisor
TwoPDivisor
p3243
(dp3244
g839
I-8
sg840
I290
sbtp3245
sg416
(g1106
(idivisor
TwoPDivisor
p3246
(dp3247
g839
I-8
sg840
I279
sbtp3248
sg729
(g943
(idivisor
TwoPDivisor
p3249
(dp3250
g839
I-8
sg840
I269
sbtp3251
sg127
(g1035
(idivisor
TwoPDivisor
p3252
(dp3253
g839
I-6
sg840
I271
sbtp3254
sg81
(g2052
(idivisor
TwoPDivisor
p3255
(dp3256
g839
I-8
sg840
I327
sbtp3257
sg231
(g1106
(idivisor
TwoPDivisor
p3258
(dp3259
g839
I-8
sg840
I287
sbtp3260
sg506
(g895
(idivisor
TwoPDivisor
p3261
(dp3262
g839
I-8
sg840
I275
sbtp3263
sg586
(g979
(idivisor
TwoPDivisor
p3264
(dp3265
g839
I-8
sg840
I295
sbtp3266
sg74
(g2904
(idivisor
TwoPDivisor
p3267
(dp3268
g839
I-7
sg840
I306
sbtp3269
sg545
(g887
(idivisor
TwoPDivisor
p3270
(dp3271
g839
I-8
sg840
I305
sbtp3272
sg448
(g1503
(idivisor
TwoPDivisor
p3273
(dp3274
g839
I-8
sg840
I268
sbtp3275
sg270
(g887
(idivisor
TwoPDivisor
p3276
(dp3277
g839
I-8
sg840
I322
sbtp3278
sg111
(g1125
(idivisor
TwoPDivisor
p3279
(dp3280
g839
I-8
sg840
I305
sbtp3281
sg656
(g877
(idivisor
TwoPDivisor
p3282
(dp3283
g839
I-8
sg840
I293
sbtp3284
sg404
(g979
(idivisor
TwoPDivisor
p3285
(dp3286
g839
I-8
sg840
I306
sbtp3287
sg693
(g877
(idivisor
TwoPDivisor
p3288
(dp3289
g839
I-8
sg840
I289
sbtp3290
sg598
(g924
(idivisor
TwoPDivisor
p3291
(dp3292
g839
I-8
sg840
I289
sbtp3293
sg717
(g877
(idivisor
TwoPDivisor
p3294
(dp3295
g839
I-8
sg840
I286
sbtp3296
sg255
(g900
(idivisor
TwoPDivisor
p3297
(dp3298
g839
I-8
sg840
I279
sbtp3299
sg626
(g911
(idivisor
TwoPDivisor
p3300
(dp3301
g839
I-8
sg840
I302
sbtp3302
sg677
(g887
(idivisor
TwoPDivisor
p3303
(dp3304
g839
I-8
sg840
I294
sbtp3305
sg329
(g900
(idivisor
TwoPDivisor
p3306
(dp3307
g839
I-8
sg840
I276
sbtp3308
sg44
((idivisor
TwoPDivisor
p3309
(dp3310
g839
I6
sg840
I-40
sb(idivisor
TwoPDivisor
p3311
(dp3312
g839
I-8
sg840
I343
sbtp3313
sg153
(g887
(idivisor
TwoPDivisor
p3314
(dp3315
g839
I-8
sg840
I329
sbtp3316
sg378
(g1051
(idivisor
TwoPDivisor
p3317
(dp3318
g839
I-8
sg840
I286
sbtp3319
sg72
(g1158
(idivisor
TwoPDivisor
p3320
(dp3321
g839
I-6
sg840
I303
sbtp3322
sg549
(g1043
(idivisor
TwoPDivisor
p3323
(dp3324
g839
I-8
sg840
I270
sbtp3325
sg527
(g924
(idivisor
TwoPDivisor
p3326
(dp3327
g839
I-8
sg840
I294
sbtp3328
sg615
(g911
(idivisor
TwoPDivisor
p3329
(dp3330
g839
I-8
sg840
I303
sbtp3331
sg222
(g867
(idivisor
TwoPDivisor
p3332
(dp3333
g839
I-8
sg840
I273
sbtp3334
sg43
((idivisor
TwoPDivisor
p3335
(dp3336
g839
I7
sg840
I-34
sb(idivisor
TwoPDivisor
p3337
(dp3338
g839
I-8
sg840
I336
sbtp3339
sg585
(g924
(idivisor
TwoPDivisor
p3340
(dp3341
g839
I-8
sg840
I290
sbtp3342
sg5
(g2158
(idivisor
TwoPDivisor
p3343
(dp3344
g839
I-8
sg840
I269
sbtp3345
sg77
(g3066
(idivisor
TwoPDivisor
p3346
(dp3347
g839
I-7
sg840
I313
sbtp3348
sg144
(g1067
(idivisor
TwoPDivisor
p3349
(dp3350
g839
I-7
sg840
I300
sbtp3351
sg443
(g979
(idivisor
TwoPDivisor
p3352
(dp3353
g839
I-8
sg840
I304
sbtp3354
sg152
((idivisor
TwoPDivisor
p3355
(dp3356
g839
I4
sg840
I-24
sb(idivisor
TwoPDivisor
p3357
(dp3358
g839
I-1
sg840
I319
sbtp3359
sg276
(g867
(idivisor
TwoPDivisor
p3360
(dp3361
g839
I-8
sg840
I271
sbtp3362
sg226
(g854
(idivisor
TwoPDivisor
p3363
(dp3364
g839
I-8
sg840
I279
sbtp3365
sg138
(g1043
(idivisor
TwoPDivisor
p3366
(dp3367
g839
I-6
sg840
I287
sbtp3368
sg535
(g1106
(idivisor
TwoPDivisor
p3369
(dp3370
g839
I-8
sg840
I272
sbtp3371
sg266
(g1270
(idivisor
TwoPDivisor
p3372
(dp3373
g839
I-8
sg840
I305
sbtp3374
sg285
(g1106
(idivisor
TwoPDivisor
p3375
(dp3376
g839
I-8
sg840
I285
sbtp3377
sg31
((idivisor
TwoPDivisor
p3378
(dp3379
g839
I7
sg840
I-4
sb(idivisor
TwoPDivisor
p3380
(dp3381
g839
I-8
sg840
I306
sbtp3382
sg125
(g971
(idivisor
TwoPDivisor
p3383
(dp3384
g839
I-8
sg840
I270
sbtp3385
sg526
(g943
(idivisor
TwoPDivisor
p3386
(dp3387
g839
I-8
sg840
I288
sbtp3388
sg224
(g1363
(idivisor
TwoPDivisor
p3389
(dp3390
g839
I-8
sg840
I276
sbtp3391
sg760
(g911
(idivisor
TwoPDivisor
p3392
(dp3393
g839
I-8
sg840
I286
sbtp3394
sg492
(g859
(idivisor
TwoPDivisor
p3395
(dp3396
g839
I-8
sg840
I282
sbtp3397
sg813
(g887
(idivisor
TwoPDivisor
p3398
(dp3399
g839
I-8
sg840
I272
sbtp3400
sg102
((idivisor
TwoPDivisor
p3401
(dp3402
g839
I2
sg840
I16
sb(idivisor
TwoPDivisor
p3403
(dp3404
g839
I-6
sg840
I287
sbtp3405
sg395
(g1043
(idivisor
TwoPDivisor
p3406
(dp3407
g839
I-8
sg840
I279
sbtp3408
sg793
(g911
(idivisor
TwoPDivisor
p3409
(dp3410
g839
I-8
sg840
I280
sbtp3411
sg114
(g1117
(idivisor
TwoPDivisor
p3412
(dp3413
g839
I-7
sg840
I311
sbtp3414
sg262
(g859
(idivisor
TwoPDivisor
p3415
(dp3416
g839
I-8
sg840
I293
sbtp3417
sg201
(g1043
(idivisor
TwoPDivisor
p3418
(dp3419
g839
I-8
sg840
I287
sbtp3420
sg762
(g979
(idivisor
TwoPDivisor
p3421
(dp3422
g839
I-8
sg840
I275
sbtp3423
sg326
(g1363
(idivisor
TwoPDivisor
p3424
(dp3425
g839
I-8
sg840
I272
sbtp3426
sg493
(g919
(idivisor
TwoPDivisor
p3427
(dp3428
g839
I-8
sg840
I283
sbtp3429
sg83
(g2340
(idivisor
TwoPDivisor
p3430
(dp3431
g839
I-8
sg840
I329
sbtp3432
sg308
(g996
(idivisor
TwoPDivisor
p3433
(dp3434
g839
I-8
sg840
I281
sbtp3435
sg112
(g2904
(idivisor
TwoPDivisor
p3436
(dp3437
g839
I-7
sg840
I305
sbtp3438
sg578
(g1106
(idivisor
TwoPDivisor
p3439
(dp3440
g839
I-8
sg840
I269
sbtp3441
sg679
(g911
(idivisor
TwoPDivisor
p3442
(dp3443
g839
I-8
sg840
I297
sbtp3444
sg582
(g919
(idivisor
TwoPDivisor
p3445
(dp3446
g839
I-8
sg840
I277
sbtp3447
sg779
(g979
(idivisor
TwoPDivisor
p3448
(dp3449
g839
I-8
sg840
I272
sbtp3450
sg291
(g943
(idivisor
TwoPDivisor
p3451
(dp3452
g839
I-8
sg840
I300
sbtp3453
sg85
(g3309
(idivisor
TwoPDivisor
p3454
(dp3455
g839
I-1
sg840
I335
sbtp3456
sg769
(g877
(idivisor
TwoPDivisor
p3457
(dp3458
g839
I-8
sg840
I278
sbtp3459
sg513
(g979
(idivisor
TwoPDivisor
p3460
(dp3461
g839
I-8
sg840
I300
sbtp3462
sg704
(g911
(idivisor
TwoPDivisor
p3463
(dp3464
g839
I-8
sg840
I294
sbtp3465
sg128
(g1311
(idivisor
TwoPDivisor
p3466
(dp3467
g839
I-8
sg840
I274
sbtp3468
sg63
(g3401
(idivisor
TwoPDivisor
p3469
(dp3470
g839
I-5
sg840
I287
sbtp3471
sg466
(g911
(idivisor
TwoPDivisor
p3472
(dp3473
g839
I-8
sg840
I314
sbtp3474
sg507
(g1051
(idivisor
TwoPDivisor
p3475
(dp3476
g839
I-8
sg840
I279
sbtp3477
sg430
(g854
(idivisor
TwoPDivisor
p3478
(dp3479
g839
I-8
sg840
I270
sbtp3480
sg580
(g1051
(idivisor
TwoPDivisor
p3481
(dp3482
g839
I-8
sg840
I274
sbtp3483
sg594
(g859
(idivisor
TwoPDivisor
p3484
(dp3485
g839
I-8
sg840
I275
sbtp3486
sg482
(g887
(idivisor
TwoPDivisor
p3487
(dp3488
g839
I-1
sg840
I303
sbtp3489
sg522
(g1051
(idivisor
TwoPDivisor
p3490
(dp3491
g839
I-8
sg840
I278
sbtp3492
sg686
(g887
(idivisor
TwoPDivisor
p3493
(dp3494
g839
I-8
sg840
I293
sbtp3495
sg122
(g911
(idivisor
TwoPDivisor
p3496
(dp3497
g839
I-1
sg840
I335
sbtp3498
sg197
(g854
(idivisor
TwoPDivisor
p3499
(dp3500
g839
I-8
sg840
I280
sbtp3501
sg530
(g887
(idivisor
TwoPDivisor
p3502
(dp3503
g839
I-8
sg840
I306
sbtp3504
sg392
(g900
(idivisor
TwoPDivisor
p3505
(dp3506
g839
I-8
sg840
I273
sbtp3507
ss.