(dp0
S'ind'
p1
(lp2
(I0
I510
I0
tp3
a(I1
I401
I56
tp4
a(I1
I402
I55
tp5
a(I1
I403
I54
tp6
a(I1
I404
I53
tp7
a(I1
I405
I52
tp8
a(I1
I406
I51
tp9
a(I1
I407
I50
tp10
a(I1
I409
I49
tp11
a(I1
I410
I48
tp12
a(I1
I411
I47
tp13
a(I1
I412
I46
tp14
a(I1
I413
I45
tp15
a(I1
I414
I44
tp16
a(I1
I415
I43
tp17
a(I1
I418
I42
tp18
a(I1
I419
I41
tp19
a(I1
I420
I40
tp20
a(I1
I421
I39
tp21
a(I1
I422
I38
tp22
a(I1
I423
I37
tp23
a(I1
I426
I36
tp24
a(I1
I427
I35
tp25
a(I1
I428
I34
tp26
a(I1
I429
I33
tp27
a(I1
I430
I32
tp28
a(I1
I431
I31
tp29
a(I1
I435
I30
tp30
a(I1
I436
I29
tp31
a(I1
I437
I28
tp32
a(I1
I438
I27
tp33
a(I1
I439
I26
tp34
a(I1
I443
I25
tp35
a(I1
I444
I24
tp36
a(I1
I445
I23
tp37
a(I1
I446
I22
tp38
a(I1
I447
I21
tp39
a(I1
I452
I20
tp40
a(I1
I453
I19
tp41
a(I1
I454
I18
tp42
a(I1
I455
I17
tp43
a(I1
I460
I16
tp44
a(I1
I461
I15
tp45
a(I1
I462
I14
tp46
a(I1
I463
I13
tp47
a(I1
I469
I12
tp48
a(I1
I470
I11
tp49
a(I1
I471
I10
tp50
a(I1
I477
I9
tp51
a(I1
I478
I8
tp52
a(I1
I479
I7
tp53
a(I1
I486
I6
tp54
a(I1
I487
I5
tp55
a(I1
I494
I4
tp56
a(I1
I495
I3
tp57
a(I1
I503
I2
tp58
a(I1
I510
I1
tp59
a(I2
I401
I55
tp60
a(I2
I402
I54
tp61
a(I2
I403
I53
tp62
a(I2
I404
I52
tp63
a(I2
I405
I51
tp64
a(I2
I406
I50
tp65
a(I2
I407
I49
tp66
a(I2
I409
I48
tp67
a(I2
I410
I47
tp68
a(I2
I411
I46
tp69
a(I2
I412
I45
tp70
a(I2
I413
I44
tp71
a(I2
I414
I43
tp72
a(I2
I417
I42
tp73
a(I2
I418
I41
tp74
a(I2
I419
I40
tp75
a(I2
I420
I39
tp76
a(I2
I421
I38
tp77
a(I2
I422
I37
tp78
a(I2
I423
I36
tp79
a(I2
I426
I35
tp80
a(I2
I427
I34
tp81
a(I2
I428
I33
tp82
a(I2
I429
I32
tp83
a(I2
I430
I31
tp84
a(I2
I434
I30
tp85
a(I2
I435
I29
tp86
a(I2
I436
I28
tp87
a(I2
I437
I27
tp88
a(I2
I438
I26
tp89
a(I2
I439
I25
tp90
a(I2
I443
I24
tp91
a(I2
I444
I23
tp92
a(I2
I445
I22
tp93
a(I2
I446
I21
tp94
a(I2
I451
I20
tp95
a(I2
I452
I19
tp96
a(I2
I453
I18
tp97
a(I2
I454
I17
tp98
a(I2
I455
I16
tp99
a(I2
I460
I15
tp100
a(I2
I461
I14
tp101
a(I2
I462
I13
tp102
a(I2
I468
I12
tp103
a(I2
I469
I11
tp104
a(I2
I470
I10
tp105
a(I2
I471
I9
tp106
a(I2
I477
I8
tp107
a(I2
I478
I7
tp108
a(I2
I485
I6
tp109
a(I2
I486
I5
tp110
a(I2
I487
I4
tp111
a(I2
I494
I3
tp112
a(I2
I502
I2
tp113
a(I2
I503
I1
tp114
a(I3
I401
I54
tp115
a(I3
I402
I53
tp116
a(I3
I403
I52
tp117
a(I3
I404
I51
tp118
a(I3
I405
I50
tp119
a(I3
I406
I49
tp120
a(I3
I408
I48
tp121
a(I3
I409
I47
tp122
a(I3
I410
I46
tp123
a(I3
I411
I45
tp124
a(I3
I412
I44
tp125
a(I3
I413
I43
tp126
a(I3
I415
I42
tp127
a(I3
I417
I40
tp128
a(I3
I418
I39
tp129
a(I3
I419
I38
tp130
a(I3
I420
I37
tp131
a(I3
I422
I36
tp132
a(I3
I425
I35
tp133
a(I3
I426
I34
tp134
a(I3
I427
I33
tp135
a(I3
I428
I32
tp136
a(I3
I429
I31
tp137
a(I3
I431
I30
tp138
a(I3
I434
I28
tp139
a(I3
I435
I27
tp140
a(I3
I436
I26
tp141
a(I3
I438
I25
tp142
a(I3
I442
I24
tp143
a(I3
I443
I23
tp144
a(I3
I444
I22
tp145
a(I3
I445
I21
tp146
a(I3
I447
I20
tp147
a(I3
I451
I18
tp148
a(I3
I452
I17
tp149
a(I3
I454
I16
tp150
a(I3
I459
I15
tp151
a(I3
I460
I14
tp152
a(I3
I461
I13
tp153
a(I3
I463
I12
tp154
a(I3
I468
I10
tp155
a(I3
I470
I9
tp156
a(I3
I476
I8
tp157
a(I3
I477
I7
tp158
a(I3
I479
I6
tp159
a(I3
I486
I4
tp160
a(I3
I493
I3
tp161
a(I3
I495
I2
tp162
a(I3
I502
I1
tp163
a(I4
I401
I53
tp164
a(I4
I402
I52
tp165
a(I4
I403
I51
tp166
a(I4
I404
I50
tp167
a(I4
I405
I49
tp168
a(I4
I407
I48
tp169
a(I4
I408
I47
tp170
a(I4
I409
I46
tp171
a(I4
I410
I45
tp172
a(I4
I411
I44
tp173
a(I4
I412
I43
tp174
a(I4
I414
I42
tp175
a(I4
I416
I40
tp176
a(I4
I417
I39
tp177
a(I4
I418
I38
tp178
a(I4
I419
I37
tp179
a(I4
I420
I36
tp180
a(I4
I423
I35
tp181
a(I4
I425
I32
tp182
a(I4
I426
I31
tp183
a(I4
I428
I29
tp184
a(I4
I430
I30
tp185
a(I4
I433
I28
tp186
a(I4
I434
I27
tp187
a(I4
I435
I26
tp188
a(I4
I436
I25
tp189
a(I4
I439
I24
tp190
a(I4
I442
I21
tp191
a(I4
I444
I19
tp192
a(I4
I446
I20
tp193
a(I4
I450
I18
tp194
a(I4
I451
I17
tp195
a(I4
I452
I16
tp196
a(I4
I455
I15
tp197
a(I4
I460
I11
tp198
a(I4
I462
I12
tp199
a(I4
I467
I10
tp200
a(I4
I468
I9
tp201
a(I4
I471
I8
tp202
a(I4
I476
I5
tp203
a(I4
I478
I6
tp204
a(I4
I484
I4
tp205
a(I4
I487
I3
tp206
a(I4
I494
I2
tp207
a(I4
I495
I1
tp208
a(I5
I401
I52
tp209
a(I5
I402
I51
tp210
a(I5
I403
I50
tp211
a(I5
I404
I49
tp212
a(I5
I406
I48
tp213
a(I5
I407
I47
tp214
a(I5
I408
I46
tp215
a(I5
I409
I45
tp216
a(I5
I410
I44
tp217
a(I5
I411
I43
tp218
a(I5
I413
I42
tp219
a(I5
I415
I40
tp220
a(I5
I416
I39
tp221
a(I5
I417
I38
tp222
a(I5
I418
I37
tp223
a(I5
I419
I36
tp224
a(I5
I422
I35
tp225
a(I5
I424
I32
tp226
a(I5
I425
I31
tp227
a(I5
I426
I26
tp228
a(I5
I427
I29
tp229
a(I5
I429
I30
tp230
a(I5
I431
I28
tp231
a(I5
I434
I23
tp232
a(I5
I435
I22
tp233
a(I5
I438
I24
tp234
a(I5
I441
I21
tp235
a(I5
I442
I16
tp236
a(I5
I443
I19
tp237
a(I5
I445
I20
tp238
a(I5
I447
I18
tp239
a(I5
I450
I14
tp240
a(I5
I451
I13
tp241
a(I5
I454
I15
tp242
a(I5
I459
I11
tp243
a(I5
I461
I12
tp244
a(I5
I463
I10
tp245
a(I5
I470
I8
tp246
a(I5
I475
I5
tp247
a(I5
I477
I6
tp248
a(I5
I479
I4
tp249
a(I5
I486
I3
tp250
a(I5
I493
I2
tp251
a(I5
I494
I1
tp252
a(I6
I401
I51
tp253
a(I6
I402
I50
tp254
a(I6
I403
I49
tp255
a(I6
I405
I48
tp256
a(I6
I406
I47
tp257
a(I6
I407
I46
tp258
a(I6
I408
I45
tp259
a(I6
I409
I44
tp260
a(I6
I410
I43
tp261
a(I6
I412
I42
tp262
a(I6
I414
I40
tp263
a(I6
I415
I39
tp264
a(I6
I416
I38
tp265
a(I6
I417
I37
tp266
a(I6
I418
I36
tp267
a(I6
I421
I35
tp268
a(I6
I423
I32
tp269
a(I6
I424
I31
tp270
a(I6
I425
I30
tp271
a(I6
I426
I29
tp272
a(I6
I430
I28
tp273
a(I6
I433
I23
tp274
a(I6
I434
I22
tp275
a(I6
I437
I24
tp276
a(I6
I439
I21
tp277
a(I6
I441
I16
tp278
a(I6
I442
I9
tp279
a(I6
I446
I18
tp280
a(I6
I449
I14
tp281
a(I6
I450
I13
tp282
a(I6
I453
I15
tp283
a(I6
I455
I12
tp284
a(I6
I458
I7
tp285
a(I6
I462
I10
tp286
a(I6
I466
I6
tp287
a(I6
I469
I8
tp288
a(I6
I471
I5
tp289
a(I6
I478
I4
tp290
a(I6
I485
I3
tp291
a(I6
I487
I2
tp292
a(I6
I493
I1
tp293
a(I7
I401
I50
tp294
a(I7
I402
I49
tp295
a(I7
I404
I48
tp296
a(I7
I405
I47
tp297
a(I7
I406
I46
tp298
a(I7
I407
I45
tp299
a(I7
I408
I44
tp300
a(I7
I409
I43
tp301
a(I7
I411
I42
tp302
a(I7
I413
I40
tp303
a(I7
I414
I39
tp304
a(I7
I415
I38
tp305
a(I7
I416
I37
tp306
a(I7
I417
I36
tp307
a(I7
I420
I35
tp308
a(I7
I422
I32
tp309
a(I7
I423
I31
tp310
a(I7
I424
I30
tp311
a(I7
I425
I29
tp312
a(I7
I429
I28
tp313
a(I7
I432
I23
tp314
a(I7
I433
I22
tp315
a(I7
I436
I24
tp316
a(I7
I438
I21
tp317
a(I7
I440
I16
tp318
a(I7
I441
I9
tp319
a(I7
I445
I18
tp320
a(I7
I447
I14
tp321
a(I7
I452
I15
tp322
a(I7
I454
I12
tp323
a(I7
I457
I7
tp324
a(I7
I461
I10
tp325
a(I7
I463
I6
tp326
a(I7
I468
I8
tp327
a(I7
I470
I5
tp328
a(I7
I477
I4
tp329
a(I7
I484
I3
tp330
a(I7
I486
I2
tp331
a(I7
I487
I1
tp332
a(I8
I401
I49
tp333
a(I8
I403
I48
tp334
a(I8
I404
I47
tp335
a(I8
I405
I46
tp336
a(I8
I406
I45
tp337
a(I8
I407
I44
tp338
a(I8
I408
I43
tp339
a(I8
I410
I42
tp340
a(I8
I412
I40
tp341
a(I8
I413
I39
tp342
a(I8
I414
I38
tp343
a(I8
I415
I37
tp344
a(I8
I416
I36
tp345
a(I8
I419
I35
tp346
a(I8
I421
I32
tp347
a(I8
I422
I31
tp348
a(I8
I423
I30
tp349
a(I8
I424
I29
tp350
a(I8
I428
I28
tp351
a(I8
I430
I24
tp352
a(I8
I431
I23
tp353
a(I8
I432
I22
tp354
a(I8
I437
I21
tp355
a(I8
I439
I16
tp356
a(I8
I440
I15
tp357
a(I8
I444
I18
tp358
a(I8
I446
I14
tp359
a(I8
I448
I8
tp360
a(I8
I453
I12
tp361
a(I8
I455
I7
tp362
a(I8
I460
I10
tp363
a(I8
I462
I6
tp364
a(I8
I469
I5
tp365
a(I8
I476
I4
tp366
a(I8
I479
I3
tp367
a(I8
I485
I2
tp368
a(I8
I486
I1
tp369
a(I9
I402
I48
tp370
a(I9
I403
I47
tp371
a(I9
I404
I46
tp372
a(I9
I405
I45
tp373
a(I9
I406
I44
tp374
a(I9
I407
I43
tp375
a(I9
I409
I42
tp376
a(I9
I411
I40
tp377
a(I9
I412
I39
tp378
a(I9
I413
I38
tp379
a(I9
I414
I37
tp380
a(I9
I415
I36
tp381
a(I9
I418
I35
tp382
a(I9
I420
I32
tp383
a(I9
I421
I31
tp384
a(I9
I422
I30
tp385
a(I9
I423
I29
tp386
a(I9
I427
I28
tp387
a(I9
I429
I24
tp388
a(I9
I430
I23
tp389
a(I9
I431
I22
tp390
a(I9
I436
I21
tp391
a(I9
I438
I16
tp392
a(I9
I439
I15
tp393
a(I9
I443
I18
tp394
a(I9
I445
I14
tp395
a(I9
I447
I8
tp396
a(I9
I452
I12
tp397
a(I9
I454
I7
tp398
a(I9
I459
I10
tp399
a(I9
I461
I6
tp400
a(I9
I468
I5
tp401
a(I9
I475
I4
tp402
a(I9
I478
I3
tp403
a(I9
I484
I2
tp404
a(I9
I485
I1
tp405
a(I10
I401
I48
tp406
a(I10
I402
I47
tp407
a(I10
I403
I46
tp408
a(I10
I404
I45
tp409
a(I10
I405
I44
tp410
a(I10
I406
I43
tp411
a(I10
I408
I42
tp412
a(I10
I410
I40
tp413
a(I10
I411
I39
tp414
a(I10
I412
I38
tp415
a(I10
I413
I37
tp416
a(I10
I414
I36
tp417
a(I10
I417
I35
tp418
a(I10
I419
I32
tp419
a(I10
I420
I31
tp420
a(I10
I421
I30
tp421
a(I10
I422
I29
tp422
a(I10
I426
I28
tp423
a(I10
I428
I24
tp424
a(I10
I429
I23
tp425
a(I10
I430
I22
tp426
a(I10
I435
I21
tp427
a(I10
I437
I16
tp428
a(I10
I438
I15
tp429
a(I10
I444
I14
tp430
a(I10
I446
I8
tp431
a(I10
I451
I12
tp432
a(I10
I453
I7
tp433
a(I10
I460
I6
tp434
a(I10
I467
I5
tp435
a(I10
I471
I4
tp436
a(I10
I477
I3
tp437
a(I10
I479
I2
tp438
a(I10
I484
I1
tp439
a(I11
I401
I47
tp440
a(I11
I402
I46
tp441
a(I11
I403
I45
tp442
a(I11
I404
I44
tp443
a(I11
I405
I43
tp444
a(I11
I407
I42
tp445
a(I11
I409
I40
tp446
a(I11
I410
I39
tp447
a(I11
I411
I38
tp448
a(I11
I412
I37
tp449
a(I11
I413
I36
tp450
a(I11
I416
I35
tp451
a(I11
I418
I32
tp452
a(I11
I419
I31
tp453
a(I11
I420
I30
tp454
a(I11
I421
I29
tp455
a(I11
I425
I28
tp456
a(I11
I427
I24
tp457
a(I11
I428
I23
tp458
a(I11
I429
I22
tp459
a(I11
I434
I21
tp460
a(I11
I436
I16
tp461
a(I11
I437
I15
tp462
a(I11
I443
I14
tp463
a(I11
I445
I8
tp464
a(I11
I450
I12
tp465
a(I11
I452
I7
tp466
a(I11
I459
I6
tp467
a(I11
I466
I5
tp468
a(I11
I470
I4
tp469
a(I11
I476
I3
tp470
a(I11
I478
I2
tp471
a(I11
I479
I1
tp472
a(I12
I401
I46
tp473
a(I12
I402
I45
tp474
a(I12
I403
I44
tp475
a(I12
I404
I43
tp476
a(I12
I406
I42
tp477
a(I12
I408
I40
tp478
a(I12
I409
I39
tp479
a(I12
I410
I38
tp480
a(I12
I411
I37
tp481
a(I12
I412
I36
tp482
a(I12
I415
I35
tp483
a(I12
I417
I32
tp484
a(I12
I418
I31
tp485
a(I12
I419
I30
tp486
a(I12
I420
I29
tp487
a(I12
I424
I28
tp488
a(I12
I426
I24
tp489
a(I12
I427
I23
tp490
a(I12
I428
I22
tp491
a(I12
I433
I21
tp492
a(I12
I435
I16
tp493
a(I12
I436
I15
tp494
a(I12
I442
I14
tp495
a(I12
I444
I8
tp496
a(I12
I451
I7
tp497
a(I12
I458
I6
tp498
a(I12
I463
I5
tp499
a(I12
I469
I4
tp500
a(I12
I475
I3
tp501
a(I12
I477
I2
tp502
a(I12
I478
I1
tp503
a(I13
I401
I45
tp504
a(I13
I402
I44
tp505
a(I13
I403
I43
tp506
a(I13
I405
I42
tp507
a(I13
I407
I40
tp508
a(I13
I408
I39
tp509
a(I13
I409
I38
tp510
a(I13
I410
I37
tp511
a(I13
I411
I36
tp512
a(I13
I414
I35
tp513
a(I13
I416
I32
tp514
a(I13
I417
I31
tp515
a(I13
I418
I30
tp516
a(I13
I419
I29
tp517
a(I13
I423
I28
tp518
a(I13
I425
I24
tp519
a(I13
I426
I23
tp520
a(I13
I427
I22
tp521
a(I13
I432
I21
tp522
a(I13
I434
I16
tp523
a(I13
I435
I15
tp524
a(I13
I441
I14
tp525
a(I13
I443
I8
tp526
a(I13
I450
I7
tp527
a(I13
I457
I6
tp528
a(I13
I462
I5
tp529
a(I13
I468
I4
tp530
a(I13
I471
I3
tp531
a(I13
I476
I2
tp532
a(I13
I477
I1
tp533
a(I14
I401
I44
tp534
a(I14
I402
I43
tp535
a(I14
I404
I42
tp536
a(I14
I406
I40
tp537
a(I14
I407
I39
tp538
a(I14
I408
I38
tp539
a(I14
I409
I37
tp540
a(I14
I410
I36
tp541
a(I14
I413
I35
tp542
a(I14
I415
I32
tp543
a(I14
I416
I31
tp544
a(I14
I417
I30
tp545
a(I14
I418
I29
tp546
a(I14
I422
I28
tp547
a(I14
I424
I24
tp548
a(I14
I425
I23
tp549
a(I14
I426
I22
tp550
a(I14
I431
I21
tp551
a(I14
I433
I16
tp552
a(I14
I434
I15
tp553
a(I14
I440
I14
tp554
a(I14
I442
I8
tp555
a(I14
I449
I7
tp556
a(I14
I455
I6
tp557
a(I14
I461
I5
tp558
a(I14
I467
I4
tp559
a(I14
I470
I3
tp560
a(I14
I475
I2
tp561
a(I14
I476
I1
tp562
a(I15
I401
I43
tp563
a(I15
I403
I42
tp564
a(I15
I405
I40
tp565
a(I15
I406
I39
tp566
a(I15
I407
I38
tp567
a(I15
I408
I37
tp568
a(I15
I409
I36
tp569
a(I15
I412
I35
tp570
a(I15
I414
I32
tp571
a(I15
I415
I31
tp572
a(I15
I416
I30
tp573
a(I15
I417
I29
tp574
a(I15
I421
I28
tp575
a(I15
I423
I24
tp576
a(I15
I424
I23
tp577
a(I15
I425
I22
tp578
a(I15
I430
I21
tp579
a(I15
I432
I16
tp580
a(I15
I433
I15
tp581
a(I15
I439
I14
tp582
a(I15
I441
I8
tp583
a(I15
I448
I7
tp584
a(I15
I454
I6
tp585
a(I15
I460
I5
tp586
a(I15
I466
I4
tp587
a(I15
I469
I3
tp588
a(I15
I471
I2
tp589
a(I15
I475
I1
tp590
a(I16
I402
I42
tp591
a(I16
I404
I40
tp592
a(I16
I405
I39
tp593
a(I16
I406
I38
tp594
a(I16
I407
I37
tp595
a(I16
I408
I36
tp596
a(I16
I411
I35
tp597
a(I16
I413
I32
tp598
a(I16
I414
I31
tp599
a(I16
I415
I30
tp600
a(I16
I416
I29
tp601
a(I16
I420
I28
tp602
a(I16
I422
I24
tp603
a(I16
I423
I23
tp604
a(I16
I424
I22
tp605
a(I16
I429
I21
tp606
a(I16
I431
I16
tp607
a(I16
I432
I15
tp608
a(I16
I438
I14
tp609
a(I16
I440
I8
tp610
a(I16
I447
I7
tp611
a(I16
I453
I6
tp612
a(I16
I459
I5
tp613
a(I16
I463
I4
tp614
a(I16
I468
I3
tp615
a(I16
I470
I2
tp616
a(I16
I471
I1
tp617
a(I17
I401
I42
tp618
a(I17
I403
I40
tp619
a(I17
I404
I39
tp620
a(I17
I405
I38
tp621
a(I17
I406
I37
tp622
a(I17
I407
I36
tp623
a(I17
I410
I35
tp624
a(I17
I412
I32
tp625
a(I17
I413
I31
tp626
a(I17
I414
I30
tp627
a(I17
I415
I29
tp628
a(I17
I419
I28
tp629
a(I17
I421
I24
tp630
a(I17
I422
I23
tp631
a(I17
I423
I22
tp632
a(I17
I428
I21
tp633
a(I17
I430
I16
tp634
a(I17
I431
I15
tp635
a(I17
I437
I14
tp636
a(I17
I439
I8
tp637
a(I17
I446
I7
tp638
a(I17
I452
I6
tp639
a(I17
I458
I5
tp640
a(I17
I462
I4
tp641
a(I17
I467
I3
tp642
a(I17
I469
I2
tp643
a(I17
I470
I1
tp644
a(I18
I402
I40
tp645
a(I18
I403
I39
tp646
a(I18
I404
I38
tp647
a(I18
I405
I37
tp648
a(I18
I406
I36
tp649
a(I18
I409
I35
tp650
a(I18
I411
I32
tp651
a(I18
I412
I31
tp652
a(I18
I413
I30
tp653
a(I18
I414
I29
tp654
a(I18
I418
I28
tp655
a(I18
I420
I24
tp656
a(I18
I421
I23
tp657
a(I18
I422
I22
tp658
a(I18
I427
I21
tp659
a(I18
I429
I16
tp660
a(I18
I430
I15
tp661
a(I18
I436
I14
tp662
a(I18
I438
I8
tp663
a(I18
I445
I7
tp664
a(I18
I451
I6
tp665
a(I18
I457
I5
tp666
a(I18
I461
I4
tp667
a(I18
I466
I3
tp668
a(I18
I468
I2
tp669
a(I18
I469
I1
tp670
a(I19
I401
I40
tp671
a(I19
I402
I39
tp672
a(I19
I403
I38
tp673
a(I19
I404
I37
tp674
a(I19
I405
I36
tp675
a(I19
I408
I35
tp676
a(I19
I410
I32
tp677
a(I19
I411
I31
tp678
a(I19
I412
I30
tp679
a(I19
I413
I29
tp680
a(I19
I417
I28
tp681
a(I19
I419
I24
tp682
a(I19
I420
I23
tp683
a(I19
I421
I22
tp684
a(I19
I426
I21
tp685
a(I19
I428
I16
tp686
a(I19
I429
I15
tp687
a(I19
I435
I14
tp688
a(I19
I437
I8
tp689
a(I19
I444
I7
tp690
a(I19
I450
I6
tp691
a(I19
I455
I5
tp692
a(I19
I460
I4
tp693
a(I19
I463
I3
tp694
a(I19
I467
I2
tp695
a(I19
I468
I1
tp696
a(I20
I401
I39
tp697
a(I20
I402
I38
tp698
a(I20
I403
I37
tp699
a(I20
I404
I36
tp700
a(I20
I407
I35
tp701
a(I20
I409
I32
tp702
a(I20
I410
I31
tp703
a(I20
I411
I30
tp704
a(I20
I412
I29
tp705
a(I20
I416
I28
tp706
a(I20
I418
I24
tp707
a(I20
I419
I23
tp708
a(I20
I420
I22
tp709
a(I20
I425
I21
tp710
a(I20
I427
I16
tp711
a(I20
I428
I15
tp712
a(I20
I434
I14
tp713
a(I20
I436
I8
tp714
a(I20
I443
I7
tp715
a(I20
I449
I6
tp716
a(I20
I454
I5
tp717
a(I20
I459
I4
tp718
a(I20
I462
I3
tp719
a(I20
I466
I2
tp720
a(I20
I467
I1
tp721
a(I21
I401
I38
tp722
a(I21
I402
I37
tp723
a(I21
I403
I36
tp724
a(I21
I406
I35
tp725
a(I21
I408
I32
tp726
a(I21
I409
I31
tp727
a(I21
I410
I30
tp728
a(I21
I411
I29
tp729
a(I21
I415
I28
tp730
a(I21
I417
I24
tp731
a(I21
I418
I23
tp732
a(I21
I419
I22
tp733
a(I21
I424
I21
tp734
a(I21
I426
I16
tp735
a(I21
I427
I15
tp736
a(I21
I433
I14
tp737
a(I21
I435
I8
tp738
a(I21
I442
I7
tp739
a(I21
I448
I6
tp740
a(I21
I453
I5
tp741
a(I21
I458
I4
tp742
a(I21
I461
I3
tp743
a(I21
I463
I2
tp744
a(I21
I466
I1
tp745
a(I22
I401
I37
tp746
a(I22
I402
I36
tp747
a(I22
I405
I35
tp748
a(I22
I407
I32
tp749
a(I22
I408
I31
tp750
a(I22
I409
I30
tp751
a(I22
I410
I29
tp752
a(I22
I414
I28
tp753
a(I22
I416
I24
tp754
a(I22
I417
I23
tp755
a(I22
I418
I22
tp756
a(I22
I423
I21
tp757
a(I22
I425
I16
tp758
a(I22
I426
I15
tp759
a(I22
I432
I14
tp760
a(I22
I434
I8
tp761
a(I22
I441
I7
tp762
a(I22
I447
I6
tp763
a(I22
I452
I5
tp764
a(I22
I457
I4
tp765
a(I22
I460
I3
tp766
a(I22
I462
I2
tp767
a(I22
I463
I1
tp768
a(I23
I401
I36
tp769
a(I23
I404
I35
tp770
a(I23
I406
I32
tp771
a(I23
I407
I31
tp772
a(I23
I408
I30
tp773
a(I23
I409
I29
tp774
a(I23
I413
I28
tp775
a(I23
I415
I24
tp776
a(I23
I416
I23
tp777
a(I23
I417
I22
tp778
a(I23
I422
I21
tp779
a(I23
I424
I16
tp780
a(I23
I425
I15
tp781
a(I23
I431
I14
tp782
a(I23
I433
I8
tp783
a(I23
I440
I7
tp784
a(I23
I446
I6
tp785
a(I23
I451
I5
tp786
a(I23
I455
I4
tp787
a(I23
I459
I3
tp788
a(I23
I461
I2
tp789
a(I23
I462
I1
tp790
a(I24
I403
I35
tp791
a(I24
I405
I32
tp792
a(I24
I406
I31
tp793
a(I24
I407
I30
tp794
a(I24
I408
I29
tp795
a(I24
I412
I28
tp796
a(I24
I414
I24
tp797
a(I24
I415
I23
tp798
a(I24
I416
I22
tp799
a(I24
I421
I21
tp800
a(I24
I423
I16
tp801
a(I24
I424
I15
tp802
a(I24
I430
I14
tp803
a(I24
I432
I8
tp804
a(I24
I439
I7
tp805
a(I24
I445
I6
tp806
a(I24
I450
I5
tp807
a(I24
I454
I4
tp808
a(I24
I458
I3
tp809
a(I24
I460
I2
tp810
a(I24
I461
I1
tp811
a(I25
I402
I35
tp812
a(I25
I404
I32
tp813
a(I25
I405
I31
tp814
a(I25
I406
I30
tp815
a(I25
I407
I29
tp816
a(I25
I411
I28
tp817
a(I25
I413
I24
tp818
a(I25
I414
I23
tp819
a(I25
I415
I22
tp820
a(I25
I420
I21
tp821
a(I25
I422
I16
tp822
a(I25
I423
I15
tp823
a(I25
I429
I14
tp824
a(I25
I431
I8
tp825
a(I25
I438
I7
tp826
a(I25
I444
I6
tp827
a(I25
I449
I5
tp828
a(I25
I453
I4
tp829
a(I25
I457
I3
tp830
a(I25
I459
I2
tp831
a(I25
I460
I1
tp832
a(I26
I401
I35
tp833
a(I26
I403
I32
tp834
a(I26
I404
I31
tp835
a(I26
I405
I30
tp836
a(I26
I406
I29
tp837
a(I26
I410
I28
tp838
a(I26
I412
I24
tp839
a(I26
I413
I23
tp840
a(I26
I414
I22
tp841
a(I26
I419
I21
tp842
a(I26
I421
I16
tp843
a(I26
I422
I15
tp844
a(I26
I428
I14
tp845
a(I26
I430
I8
tp846
a(I26
I437
I7
tp847
a(I26
I443
I6
tp848
a(I26
I448
I5
tp849
a(I26
I452
I4
tp850
a(I26
I455
I3
tp851
a(I26
I458
I2
tp852
a(I26
I459
I1
tp853
a(I27
I402
I32
tp854
a(I27
I403
I31
tp855
a(I27
I404
I30
tp856
a(I27
I405
I29
tp857
a(I27
I409
I28
tp858
a(I27
I411
I24
tp859
a(I27
I412
I23
tp860
a(I27
I413
I22
tp861
a(I27
I418
I21
tp862
a(I27
I420
I16
tp863
a(I27
I421
I15
tp864
a(I27
I427
I14
tp865
a(I27
I429
I8
tp866
a(I27
I436
I7
tp867
a(I27
I442
I6
tp868
a(I27
I447
I5
tp869
a(I27
I451
I4
tp870
a(I27
I454
I3
tp871
a(I27
I457
I2
tp872
a(I27
I458
I1
tp873
a(I28
I401
I32
tp874
a(I28
I402
I31
tp875
a(I28
I403
I30
tp876
a(I28
I404
I29
tp877
a(I28
I408
I28
tp878
a(I28
I410
I24
tp879
a(I28
I411
I23
tp880
a(I28
I412
I22
tp881
a(I28
I417
I21
tp882
a(I28
I419
I16
tp883
a(I28
I420
I15
tp884
a(I28
I426
I14
tp885
a(I28
I428
I8
tp886
a(I28
I435
I7
tp887
a(I28
I441
I6
tp888
a(I28
I446
I5
tp889
a(I28
I450
I4
tp890
a(I28
I453
I3
tp891
a(I28
I455
I2
tp892
a(I28
I457
I1
tp893
a(I29
I401
I31
tp894
a(I29
I402
I30
tp895
a(I29
I403
I29
tp896
a(I29
I407
I28
tp897
a(I29
I409
I24
tp898
a(I29
I410
I23
tp899
a(I29
I411
I22
tp900
a(I29
I416
I21
tp901
a(I29
I418
I16
tp902
a(I29
I419
I15
tp903
a(I29
I425
I14
tp904
a(I29
I427
I8
tp905
a(I29
I434
I7
tp906
a(I29
I440
I6
tp907
a(I29
I445
I5
tp908
a(I29
I449
I4
tp909
a(I29
I452
I3
tp910
a(I29
I454
I2
tp911
a(I29
I455
I1
tp912
a(I30
I401
I30
tp913
a(I30
I402
I29
tp914
a(I30
I406
I28
tp915
a(I30
I408
I24
tp916
a(I30
I409
I23
tp917
a(I30
I410
I22
tp918
a(I30
I415
I21
tp919
a(I30
I417
I16
tp920
a(I30
I418
I15
tp921
a(I30
I424
I14
tp922
a(I30
I426
I8
tp923
a(I30
I433
I7
tp924
a(I30
I439
I6
tp925
a(I30
I444
I5
tp926
a(I30
I448
I4
tp927
a(I30
I451
I3
tp928
a(I30
I453
I2
tp929
a(I30
I454
I1
tp930
a(I31
I401
I29
tp931
a(I31
I405
I28
tp932
a(I31
I407
I24
tp933
a(I31
I408
I23
tp934
a(I31
I409
I22
tp935
a(I31
I414
I21
tp936
a(I31
I416
I16
tp937
a(I31
I417
I15
tp938
a(I31
I423
I14
tp939
a(I31
I425
I8
tp940
a(I31
I432
I7
tp941
a(I31
I438
I6
tp942
a(I31
I443
I5
tp943
a(I31
I447
I4
tp944
a(I31
I450
I3
tp945
a(I31
I452
I2
tp946
a(I31
I453
I1
tp947
a(I32
I404
I28
tp948
a(I32
I406
I24
tp949
a(I32
I407
I23
tp950
a(I32
I408
I22
tp951
a(I32
I413
I21
tp952
a(I32
I415
I16
tp953
a(I32
I416
I15
tp954
a(I32
I422
I14
tp955
a(I32
I424
I8
tp956
a(I32
I431
I7
tp957
a(I32
I437
I6
tp958
a(I32
I442
I5
tp959
a(I32
I446
I4
tp960
a(I32
I449
I3
tp961
a(I32
I451
I2
tp962
a(I32
I452
I1
tp963
a(I33
I403
I28
tp964
a(I33
I405
I24
tp965
a(I33
I406
I23
tp966
a(I33
I407
I22
tp967
a(I33
I412
I21
tp968
a(I33
I414
I16
tp969
a(I33
I415
I15
tp970
a(I33
I421
I14
tp971
a(I33
I423
I8
tp972
a(I33
I430
I7
tp973
a(I33
I436
I6
tp974
a(I33
I441
I5
tp975
a(I33
I445
I4
tp976
a(I33
I448
I3
tp977
a(I33
I450
I2
tp978
a(I33
I451
I1
tp979
a(I34
I402
I28
tp980
a(I34
I404
I24
tp981
a(I34
I405
I23
tp982
a(I34
I406
I22
tp983
a(I34
I411
I21
tp984
a(I34
I413
I16
tp985
a(I34
I414
I15
tp986
a(I34
I420
I14
tp987
a(I34
I422
I8
tp988
a(I34
I429
I7
tp989
a(I34
I435
I6
tp990
a(I34
I440
I5
tp991
a(I34
I444
I4
tp992
a(I34
I447
I3
tp993
a(I34
I449
I2
tp994
a(I34
I450
I1
tp995
a(I35
I401
I28
tp996
a(I35
I403
I24
tp997
a(I35
I404
I23
tp998
a(I35
I405
I22
tp999
a(I35
I410
I21
tp1000
a(I35
I412
I16
tp1001
a(I35
I413
I15
tp1002
a(I35
I419
I14
tp1003
a(I35
I421
I8
tp1004
a(I35
I428
I7
tp1005
a(I35
I434
I6
tp1006
a(I35
I439
I5
tp1007
a(I35
I443
I4
tp1008
a(I35
I446
I3
tp1009
a(I35
I448
I2
tp1010
a(I35
I449
I1
tp1011
a(I36
I402
I24
tp1012
a(I36
I403
I23
tp1013
a(I36
I404
I22
tp1014
a(I36
I409
I21
tp1015
a(I36
I411
I16
tp1016
a(I36
I412
I15
tp1017
a(I36
I418
I14
tp1018
a(I36
I420
I8
tp1019
a(I36
I427
I7
tp1020
a(I36
I433
I6
tp1021
a(I36
I438
I5
tp1022
a(I36
I442
I4
tp1023
a(I36
I445
I3
tp1024
a(I36
I447
I2
tp1025
a(I36
I448
I1
tp1026
a(I37
I401
I24
tp1027
a(I37
I402
I23
tp1028
a(I37
I403
I22
tp1029
a(I37
I408
I21
tp1030
a(I37
I410
I16
tp1031
a(I37
I411
I15
tp1032
a(I37
I417
I14
tp1033
a(I37
I419
I8
tp1034
a(I37
I426
I7
tp1035
a(I37
I432
I6
tp1036
a(I37
I437
I5
tp1037
a(I37
I441
I4
tp1038
a(I37
I444
I3
tp1039
a(I37
I446
I2
tp1040
a(I37
I447
I1
tp1041
a(I38
I401
I23
tp1042
a(I38
I402
I22
tp1043
a(I38
I407
I21
tp1044
a(I38
I409
I16
tp1045
a(I38
I410
I15
tp1046
a(I38
I416
I14
tp1047
a(I38
I418
I8
tp1048
a(I38
I425
I7
tp1049
a(I38
I431
I6
tp1050
a(I38
I436
I5
tp1051
a(I38
I440
I4
tp1052
a(I38
I443
I3
tp1053
a(I38
I445
I2
tp1054
a(I38
I446
I1
tp1055
a(I39
I401
I22
tp1056
a(I39
I406
I21
tp1057
a(I39
I408
I16
tp1058
a(I39
I409
I15
tp1059
a(I39
I415
I14
tp1060
a(I39
I417
I8
tp1061
a(I39
I424
I7
tp1062
a(I39
I430
I6
tp1063
a(I39
I435
I5
tp1064
a(I39
I439
I4
tp1065
a(I39
I442
I3
tp1066
a(I39
I444
I2
tp1067
a(I39
I445
I1
tp1068
a(I40
I405
I21
tp1069
a(I40
I407
I16
tp1070
a(I40
I408
I15
tp1071
a(I40
I414
I14
tp1072
a(I40
I416
I8
tp1073
a(I40
I423
I7
tp1074
a(I40
I429
I6
tp1075
a(I40
I434
I5
tp1076
a(I40
I438
I4
tp1077
a(I40
I441
I3
tp1078
a(I40
I443
I2
tp1079
a(I40
I444
I1
tp1080
a(I41
I404
I21
tp1081
a(I41
I406
I16
tp1082
a(I41
I407
I15
tp1083
a(I41
I413
I14
tp1084
a(I41
I415
I8
tp1085
a(I41
I422
I7
tp1086
a(I41
I428
I6
tp1087
a(I41
I433
I5
tp1088
a(I41
I437
I4
tp1089
a(I41
I440
I3
tp1090
a(I41
I442
I2
tp1091
a(I41
I443
I1
tp1092
a(I42
I403
I21
tp1093
a(I42
I405
I16
tp1094
a(I42
I406
I15
tp1095
a(I42
I412
I14
tp1096
a(I42
I414
I8
tp1097
a(I42
I421
I7
tp1098
a(I42
I427
I6
tp1099
a(I42
I432
I5
tp1100
a(I42
I436
I4
tp1101
a(I42
I439
I3
tp1102
a(I42
I441
I2
tp1103
a(I42
I442
I1
tp1104
a(I43
I402
I21
tp1105
a(I43
I404
I16
tp1106
a(I43
I405
I15
tp1107
a(I43
I411
I14
tp1108
a(I43
I413
I8
tp1109
a(I43
I420
I7
tp1110
a(I43
I426
I6
tp1111
a(I43
I431
I5
tp1112
a(I43
I435
I4
tp1113
a(I43
I438
I3
tp1114
a(I43
I440
I2
tp1115
a(I43
I441
I1
tp1116
a(I44
I401
I21
tp1117
a(I44
I403
I16
tp1118
a(I44
I404
I15
tp1119
a(I44
I410
I14
tp1120
a(I44
I412
I8
tp1121
a(I44
I419
I7
tp1122
a(I44
I425
I6
tp1123
a(I44
I430
I5
tp1124
a(I44
I434
I4
tp1125
a(I44
I437
I3
tp1126
a(I44
I439
I2
tp1127
a(I44
I440
I1
tp1128
a(I45
I402
I16
tp1129
a(I45
I403
I15
tp1130
a(I45
I409
I14
tp1131
a(I45
I411
I8
tp1132
a(I45
I418
I7
tp1133
a(I45
I424
I6
tp1134
a(I45
I429
I5
tp1135
a(I45
I433
I4
tp1136
a(I45
I436
I3
tp1137
a(I45
I438
I2
tp1138
a(I45
I439
I1
tp1139
a(I46
I401
I16
tp1140
a(I46
I402
I15
tp1141
a(I46
I408
I14
tp1142
a(I46
I410
I8
tp1143
a(I46
I417
I7
tp1144
a(I46
I423
I6
tp1145
a(I46
I428
I5
tp1146
a(I46
I432
I4
tp1147
a(I46
I435
I3
tp1148
a(I46
I437
I2
tp1149
a(I46
I438
I1
tp1150
a(I47
I401
I15
tp1151
a(I47
I407
I14
tp1152
a(I47
I409
I8
tp1153
a(I47
I416
I7
tp1154
a(I47
I422
I6
tp1155
a(I47
I427
I5
tp1156
a(I47
I431
I4
tp1157
a(I47
I434
I3
tp1158
a(I47
I436
I2
tp1159
a(I47
I437
I1
tp1160
a(I48
I406
I14
tp1161
a(I48
I408
I8
tp1162
a(I48
I415
I7
tp1163
a(I48
I421
I6
tp1164
a(I48
I426
I5
tp1165
a(I48
I430
I4
tp1166
a(I48
I433
I3
tp1167
a(I48
I435
I2
tp1168
a(I48
I436
I1
tp1169
a(I49
I405
I14
tp1170
a(I49
I407
I8
tp1171
a(I49
I414
I7
tp1172
a(I49
I420
I6
tp1173
a(I49
I425
I5
tp1174
a(I49
I429
I4
tp1175
a(I49
I432
I3
tp1176
a(I49
I434
I2
tp1177
a(I49
I435
I1
tp1178
a(I50
I404
I14
tp1179
a(I50
I406
I8
tp1180
a(I50
I413
I7
tp1181
a(I50
I419
I6
tp1182
a(I50
I424
I5
tp1183
a(I50
I428
I4
tp1184
a(I50
I431
I3
tp1185
a(I50
I433
I2
tp1186
a(I50
I434
I1
tp1187
a(I51
I403
I14
tp1188
a(I51
I405
I8
tp1189
a(I51
I412
I7
tp1190
a(I51
I418
I6
tp1191
a(I51
I423
I5
tp1192
a(I51
I427
I4
tp1193
a(I51
I430
I3
tp1194
a(I51
I432
I2
tp1195
a(I51
I433
I1
tp1196
a(I52
I402
I14
tp1197
a(I52
I404
I8
tp1198
a(I52
I411
I7
tp1199
a(I52
I417
I6
tp1200
a(I52
I422
I5
tp1201
a(I52
I426
I4
tp1202
a(I52
I429
I3
tp1203
a(I52
I431
I2
tp1204
a(I52
I432
I1
tp1205
a(I53
I401
I14
tp1206
a(I53
I403
I8
tp1207
a(I53
I410
I7
tp1208
a(I53
I416
I6
tp1209
a(I53
I421
I5
tp1210
a(I53
I425
I4
tp1211
a(I53
I428
I3
tp1212
a(I53
I430
I2
tp1213
a(I53
I431
I1
tp1214
a(I54
I402
I8
tp1215
a(I54
I409
I7
tp1216
a(I54
I415
I6
tp1217
a(I54
I420
I5
tp1218
a(I54
I424
I4
tp1219
a(I54
I427
I3
tp1220
a(I54
I429
I2
tp1221
a(I54
I430
I1
tp1222
a(I55
I401
I8
tp1223
a(I55
I408
I7
tp1224
a(I55
I414
I6
tp1225
a(I55
I419
I5
tp1226
a(I55
I423
I4
tp1227
a(I55
I426
I3
tp1228
a(I55
I428
I2
tp1229
a(I55
I429
I1
tp1230
a(I56
I407
I7
tp1231
a(I56
I413
I6
tp1232
a(I56
I418
I5
tp1233
a(I56
I422
I4
tp1234
a(I56
I425
I3
tp1235
a(I56
I427
I2
tp1236
a(I56
I428
I1
tp1237
a(I57
I406
I7
tp1238
a(I57
I412
I6
tp1239
a(I57
I417
I5
tp1240
a(I57
I421
I4
tp1241
a(I57
I424
I3
tp1242
a(I57
I426
I2
tp1243
a(I57
I427
I1
tp1244
a(I58
I405
I7
tp1245
a(I58
I411
I6
tp1246
a(I58
I416
I5
tp1247
a(I58
I420
I4
tp1248
a(I58
I423
I3
tp1249
a(I58
I425
I2
tp1250
a(I58
I426
I1
tp1251
a(I59
I404
I7
tp1252
a(I59
I410
I6
tp1253
a(I59
I415
I5
tp1254
a(I59
I419
I4
tp1255
a(I59
I422
I3
tp1256
a(I59
I424
I2
tp1257
a(I59
I425
I1
tp1258
a(I60
I403
I7
tp1259
a(I60
I409
I6
tp1260
a(I60
I414
I5
tp1261
a(I60
I418
I4
tp1262
a(I60
I421
I3
tp1263
a(I60
I423
I2
tp1264
a(I60
I424
I1
tp1265
a(I61
I402
I7
tp1266
a(I61
I408
I6
tp1267
a(I61
I413
I5
tp1268
a(I61
I417
I4
tp1269
a(I61
I420
I3
tp1270
a(I61
I422
I2
tp1271
a(I61
I423
I1
tp1272
a(I62
I401
I7
tp1273
a(I62
I407
I6
tp1274
a(I62
I412
I5
tp1275
a(I62
I416
I4
tp1276
a(I62
I419
I3
tp1277
a(I62
I421
I2
tp1278
a(I62
I422
I1
tp1279
a(I63
I406
I6
tp1280
a(I63
I411
I5
tp1281
a(I63
I415
I4
tp1282
a(I63
I418
I3
tp1283
a(I63
I420
I2
tp1284
a(I63
I421
I1
tp1285
a(I64
I405
I6
tp1286
a(I64
I410
I5
tp1287
a(I64
I414
I4
tp1288
a(I64
I417
I3
tp1289
a(I64
I419
I2
tp1290
a(I64
I420
I1
tp1291
a(I65
I404
I6
tp1292
a(I65
I409
I5
tp1293
a(I65
I413
I4
tp1294
a(I65
I416
I3
tp1295
a(I65
I418
I2
tp1296
a(I65
I419
I1
tp1297
a(I66
I403
I6
tp1298
a(I66
I408
I5
tp1299
a(I66
I412
I4
tp1300
a(I66
I415
I3
tp1301
a(I66
I417
I2
tp1302
a(I66
I418
I1
tp1303
a(I67
I402
I6
tp1304
a(I67
I407
I5
tp1305
a(I67
I411
I4
tp1306
a(I67
I414
I3
tp1307
a(I67
I416
I2
tp1308
a(I67
I417
I1
tp1309
a(I68
I401
I6
tp1310
a(I68
I406
I5
tp1311
a(I68
I410
I4
tp1312
a(I68
I413
I3
tp1313
a(I68
I415
I2
tp1314
a(I68
I416
I1
tp1315
a(I69
I405
I5
tp1316
a(I69
I409
I4
tp1317
a(I69
I412
I3
tp1318
a(I69
I414
I2
tp1319
a(I69
I415
I1
tp1320
a(I70
I404
I5
tp1321
a(I70
I408
I4
tp1322
a(I70
I411
I3
tp1323
a(I70
I413
I2
tp1324
a(I70
I414
I1
tp1325
a(I71
I403
I5
tp1326
a(I71
I407
I4
tp1327
a(I71
I410
I3
tp1328
a(I71
I412
I2
tp1329
a(I71
I413
I1
tp1330
a(I72
I402
I5
tp1331
a(I72
I406
I4
tp1332
a(I72
I409
I3
tp1333
a(I72
I411
I2
tp1334
a(I72
I412
I1
tp1335
a(I73
I401
I5
tp1336
a(I73
I405
I4
tp1337
a(I73
I408
I3
tp1338
a(I73
I410
I2
tp1339
a(I73
I411
I1
tp1340
a(I74
I404
I4
tp1341
a(I74
I407
I3
tp1342
a(I74
I409
I2
tp1343
a(I74
I410
I1
tp1344
a(I75
I403
I4
tp1345
a(I75
I406
I3
tp1346
a(I75
I408
I2
tp1347
a(I75
I409
I1
tp1348
a(I76
I402
I4
tp1349
a(I76
I405
I3
tp1350
a(I76
I407
I2
tp1351
a(I76
I408
I1
tp1352
a(I77
I401
I4
tp1353
a(I77
I404
I3
tp1354
a(I77
I406
I2
tp1355
a(I77
I407
I1
tp1356
a(I78
I403
I3
tp1357
a(I78
I405
I2
tp1358
a(I78
I406
I1
tp1359
a(I79
I402
I3
tp1360
a(I79
I404
I2
tp1361
a(I79
I405
I1
tp1362
a(I80
I401
I3
tp1363
a(I80
I403
I2
tp1364
a(I80
I404
I1
tp1365
a(I81
I402
I2
tp1366
a(I81
I403
I1
tp1367
a(I82
I401
I2
tp1368
a(I82
I402
I1
tp1369
a(I83
I401
I1
tp1370
asS'witness'
p1371
(dp1372
g528
((idivisor
TwoPDivisor
p1373
(dp1375
S'Q'
p1376
I3
sS'P'
p1377
I-16
sb(idivisor
TwoPDivisor
p1378
(dp1379
g1376
I-1
sg1377
I458
sbtp1380
sg294
((idivisor
TwoPDivisor
p1381
(dp1382
g1376
I3
sg1377
I46
sb(idivisor
TwoPDivisor
p1383
(dp1384
g1376
I-9
sg1377
I410
sbtp1385
sg1327
((idivisor
TwoPDivisor
p1386
(dp1387
g1376
I5
sg1377
I-32
sb(idivisor
TwoPDivisor
p1388
(dp1389
g1376
I-9
sg1377
I416
sbtp1390
sg1345
(g1386
(idivisor
TwoPDivisor
p1391
(dp1392
g1376
I-9
sg1377
I412
sbtp1393
sg969
((idivisor
TwoPDivisor
p1394
(dp1395
g1376
I1
sg1377
I9
sb(idivisor
TwoPDivisor
p1396
(dp1397
g1376
I-9
sg1377
I423
sbtp1398
sg321
((idivisor
TwoPDivisor
p1399
(dp1400
g1376
I2
sg1377
I1
sb(idivisor
TwoPDivisor
p1401
(dp1402
g1376
I-9
sg1377
I456
sbtp1403
sg201
((idivisor
TwoPDivisor
p1404
(dp1405
g1376
I8
sg1377
I-23
sb(idivisor
TwoPDivisor
p1406
(dp1407
g1376
I-9
sg1377
I477
sbtp1408
sg777
((idivisor
TwoPDivisor
p1409
(dp1410
g1376
I8
sg1377
I10
sb(idivisor
TwoPDivisor
p1411
(dp1412
g1376
I-9
sg1377
I425
sbtp1413
sg629
((idivisor
TwoPDivisor
p1414
(dp1415
g1376
I2
sg1377
I19
sb(idivisor
TwoPDivisor
p1416
(dp1417
g1376
I-9
sg1377
I428
sbtp1418
sg721
((idivisor
TwoPDivisor
p1419
(dp1420
g1376
I8
sg1377
I-56
sb(idivisor
TwoPDivisor
p1421
(dp1422
g1376
I-9
sg1377
I476
sbtp1423
sg520
(g1409
(idivisor
TwoPDivisor
p1424
(dp1425
g1376
I-9
sg1377
I435
sbtp1426
sg1126
((idivisor
TwoPDivisor
p1427
(dp1428
g1376
I6
sg1377
I-40
sb(idivisor
TwoPDivisor
p1429
(dp1430
g1376
I-9
sg1377
I446
sbtp1431
sg283
((idivisor
TwoPDivisor
p1432
(dp1433
g1376
I4
sg1377
I-6
sb(idivisor
TwoPDivisor
p1434
(dp1435
g1376
I-8
sg1377
I461
sbtp1436
sg195
((idivisor
TwoPDivisor
p1437
(dp1438
g1376
I8
sg1377
I-6
sb(idivisor
TwoPDivisor
p1439
(dp1440
g1376
I-9
sg1377
I460
sbtp1441
sg751
((idivisor
TwoPDivisor
p1442
(dp1443
g1376
I7
sg1377
I19
sb(idivisor
TwoPDivisor
p1444
(dp1445
g1376
I-9
sg1377
I418
sbtp1446
sg836
(g1442
(idivisor
TwoPDivisor
p1447
(dp1448
g1376
I-9
sg1377
I414
sbtp1449
sg602
(g1414
(idivisor
TwoPDivisor
p1450
(dp1451
g1376
I-9
sg1377
I429
sbtp1452
sg624
((idivisor
TwoPDivisor
p1453
(dp1454
g1376
I2
sg1377
I28
sb(idivisor
TwoPDivisor
p1455
(dp1456
g1376
I-9
sg1377
I419
sbtp1457
sg1331
((idivisor
TwoPDivisor
p1458
(dp1459
g1376
I4
sg1377
I-24
sb(idivisor
TwoPDivisor
p1460
(dp1461
g1376
I-9
sg1377
I411
sbtp1462
sg543
((idivisor
TwoPDivisor
p1463
(dp1464
g1376
I1
sg1377
I27
sb(idivisor
TwoPDivisor
p1465
(dp1466
g1376
I-9
sg1377
I424
sbtp1467
sg39
((idivisor
TwoPDivisor
p1468
(dp1469
g1376
I6
sg1377
I3
sb(idivisor
TwoPDivisor
p1470
(dp1471
g1376
I-7
sg1377
I454
sbtp1472
sg517
((idivisor
TwoPDivisor
p1473
(dp1474
g1376
I6
sg1377
I19
sb(idivisor
TwoPDivisor
p1475
(dp1476
g1376
I-9
sg1377
I428
sbtp1477
sg1322
(g1386
(idivisor
TwoPDivisor
p1478
(dp1479
g1376
I-9
sg1377
I417
sbtp1480
sg391
((idivisor
TwoPDivisor
p1481
(dp1482
g1376
I2
sg1377
I10
sb(idivisor
TwoPDivisor
p1483
(dp1484
g1376
I-9
sg1377
I445
sbtp1485
sg903
((idivisor
TwoPDivisor
p1486
(dp1487
g1376
I8
sg1377
I1
sb(idivisor
TwoPDivisor
p1488
(dp1489
g1376
I-9
sg1377
I428
sbtp1490
sg1341
(g1386
(idivisor
TwoPDivisor
p1491
(dp1492
g1376
I-9
sg1377
I413
sbtp1493
sg428
(g1394
(idivisor
TwoPDivisor
p1494
(dp1495
g1376
I-9
sg1377
I446
sbtp1496
sg538
((idivisor
TwoPDivisor
p1497
(dp1498
g1376
I8
sg1377
I28
sb(idivisor
TwoPDivisor
p1499
(dp1500
g1376
I-9
sg1377
I416
sbtp1501
sg959
(g1458
(idivisor
TwoPDivisor
p1502
(dp1503
g1376
I-9
sg1377
I451
sbtp1504
sg489
((idivisor
TwoPDivisor
p1505
(dp1506
g1376
I1
sg1377
I18
sb(idivisor
TwoPDivisor
p1507
(dp1508
g1376
I-9
sg1377
I435
sbtp1509
sg827
(g1373
(idivisor
TwoPDivisor
p1510
(dp1511
g1376
I-9
sg1377
I453
sbtp1512
sg1131
(g1399
(idivisor
TwoPDivisor
p1513
(dp1514
g1376
I-9
sg1377
I418
sbtp1515
sg665
(g1373
(idivisor
TwoPDivisor
p1516
(dp1517
g1376
I-9
sg1377
I460
sbtp1518
sg323
((idivisor
TwoPDivisor
p1519
(dp1520
g1376
I3
sg1377
I-7
sb(idivisor
TwoPDivisor
p1521
(dp1522
g1376
I-9
sg1377
I463
sbtp1523
sg802
(g1486
(idivisor
TwoPDivisor
p1524
(dp1525
g1376
I-9
sg1377
I433
sbtp1526
sg251
((idivisor
TwoPDivisor
p1527
(dp1528
g1376
I7
sg1377
I-48
sb(idivisor
TwoPDivisor
p1529
(dp1530
g1376
I-1
sg1377
I494
sbtp1531
sg896
(g1473
(idivisor
TwoPDivisor
p1532
(dp1533
g1376
I-9
sg1377
I412
sbtp1534
sg459
((idivisor
TwoPDivisor
p1535
(dp1536
g1376
I7
sg1377
I10
sb(idivisor
TwoPDivisor
p1537
(dp1538
g1376
I-9
sg1377
I438
sbtp1539
sg1132
((idivisor
TwoPDivisor
p1540
(dp1541
g1376
I1
sg1377
I0
sb(idivisor
TwoPDivisor
p1542
(dp1543
g1376
I-9
sg1377
I420
sbtp1544
sg408
((idivisor
TwoPDivisor
p1545
(dp1546
g1376
I7
sg1377
I37
sb(idivisor
TwoPDivisor
p1547
(dp1548
g1376
I-9
sg1377
I412
sbtp1549
sg1060
(g1399
(idivisor
TwoPDivisor
p1550
(dp1551
g1376
I-9
sg1377
I424
sbtp1552
sg1165
(g1458
(idivisor
TwoPDivisor
p1553
(dp1554
g1376
I-9
sg1377
I435
sbtp1555
sg141
((idivisor
TwoPDivisor
p1556
(dp1557
g1376
I7
sg1377
I11
sb(idivisor
TwoPDivisor
p1558
(dp1559
g1376
I-8
sg1377
I444
sbtp1560
sg705
(g1473
(idivisor
TwoPDivisor
p1561
(dp1562
g1376
I-9
sg1377
I421
sbtp1563
sg189
((idivisor
TwoPDivisor
p1564
(dp1565
g1376
I6
sg1377
I11
sb(idivisor
TwoPDivisor
p1566
(dp1567
g1376
I-7
sg1377
I443
sbtp1568
sg527
((idivisor
TwoPDivisor
p1569
(dp1570
g1376
I2
sg1377
I-8
sb(idivisor
TwoPDivisor
p1571
(dp1572
g1376
I-9
sg1377
I459
sbtp1573
sg552
(g1394
(idivisor
TwoPDivisor
p1574
(dp1575
g1376
I-9
sg1377
I442
sbtp1576
sg992
(g1386
(idivisor
TwoPDivisor
p1577
(dp1578
g1376
I-9
sg1377
I453
sbtp1579
sg334
((idivisor
TwoPDivisor
p1580
(dp1581
g1376
I1
sg1377
I45
sb(idivisor
TwoPDivisor
p1582
(dp1583
g1376
I-9
sg1377
I412
sbtp1584
sg326
(g1373
(idivisor
TwoPDivisor
p1585
(dp1586
g1376
I-9
sg1377
I472
sbtp1587
sg134
((idivisor
TwoPDivisor
p1588
(dp1589
g1376
I8
sg1377
I20
sb(idivisor
TwoPDivisor
p1590
(dp1591
g1376
I-9
sg1377
I435
sbtp1592
sg948
(g1414
(idivisor
TwoPDivisor
p1593
(dp1594
g1376
I-9
sg1377
I413
sbtp1595
sg139
((idivisor
TwoPDivisor
p1596
(dp1597
g1376
I2
sg1377
I18
sb(idivisor
TwoPDivisor
p1598
(dp1599
g1376
I-6
sg1377
I440
sbtp1600
sg911
(g1527
(idivisor
TwoPDivisor
p1601
(dp1602
g1376
I-9
sg1377
I463
sbtp1603
sg214
((idivisor
TwoPDivisor
p1604
(dp1605
g1376
I8
sg1377
I37
sb(idivisor
TwoPDivisor
p1606
(dp1607
g1376
I-9
sg1377
I416
sbtp1608
sg893
(g1419
(idivisor
TwoPDivisor
p1609
(dp1610
g1376
I-1
sg1377
I458
sbtp1611
sg978
(g1527
(idivisor
TwoPDivisor
p1612
(dp1613
g1376
I-9
sg1377
I459
sbtp1614
sg1064
(g1458
(idivisor
TwoPDivisor
p1615
(dp1616
g1376
I-9
sg1377
I444
sbtp1617
sg547
(g1414
(idivisor
TwoPDivisor
p1618
(dp1619
g1376
I-9
sg1377
I431
sbtp1620
sg1184
(g1386
(idivisor
TwoPDivisor
p1621
(dp1622
g1376
I-9
sg1377
I437
sbtp1623
sg1314
(g1527
(idivisor
TwoPDivisor
p1624
(dp1625
g1376
I-9
sg1377
I424
sbtp1626
sg1100
(g1458
(idivisor
TwoPDivisor
p1627
(dp1628
g1376
I-9
sg1377
I441
sbtp1629
sg653
(g1442
(idivisor
TwoPDivisor
p1630
(dp1631
g1376
I-9
sg1377
I422
sbtp1632
sg358
((idivisor
TwoPDivisor
p1633
(dp1634
g1376
I3
sg1377
I2
sb(idivisor
TwoPDivisor
p1635
(dp1636
g1376
I-8
sg1377
I452
sbtp1637
sg598
(g1463
(idivisor
TwoPDivisor
p1638
(dp1639
g1376
I-9
sg1377
I422
sbtp1640
sg640
(g1458
(idivisor
TwoPDivisor
p1641
(dp1642
g1376
I-9
sg1377
I467
sbtp1643
sg566
(g1497
(idivisor
TwoPDivisor
p1644
(dp1645
g1376
I-9
sg1377
I415
sbtp1646
sg580
(g1394
(idivisor
TwoPDivisor
p1647
(dp1648
g1376
I-9
sg1377
I441
sbtp1649
sg848
(g1373
(idivisor
TwoPDivisor
p1650
(dp1651
g1376
I-9
sg1377
I452
sbtp1652
sg126
((idivisor
TwoPDivisor
p1653
(dp1654
g1376
I4
sg1377
I37
sb(idivisor
TwoPDivisor
p1655
(dp1656
g1376
I-8
sg1377
I421
sbtp1657
sg765
(g1386
(idivisor
TwoPDivisor
p1658
(dp1659
g1376
I-1
sg1377
I458
sbtp1660
sg401
(g1458
(idivisor
TwoPDivisor
p1661
(dp1662
g1376
I-9
sg1377
I477
sbtp1663
sg1089
(g1386
(idivisor
TwoPDivisor
p1664
(dp1665
g1376
I-9
sg1377
I446
sbtp1666
sg135
((idivisor
TwoPDivisor
p1667
(dp1668
g1376
I7
sg1377
I20
sb(idivisor
TwoPDivisor
p1669
(dp1670
g1376
I-8
sg1377
I435
sbtp1671
sg22
((idivisor
TwoPDivisor
p1672
(dp1673
g1376
I5
sg1377
I29
sb(idivisor
TwoPDivisor
p1674
(dp1675
g1376
I-6
sg1377
I428
sbtp1676
sg93
((idivisor
TwoPDivisor
p1677
(dp1678
g1376
I7
sg1377
I3
sb(idivisor
TwoPDivisor
p1679
(dp1680
g1376
I-8
sg1377
I453
sbtp1681
sg544
((idivisor
TwoPDivisor
p1682
(dp1683
g1376
I8
sg1377
I19
sb(idivisor
TwoPDivisor
p1684
(dp1685
g1376
I-9
sg1377
I425
sbtp1686
sg1250
(g1527
(idivisor
TwoPDivisor
p1687
(dp1688
g1376
I-9
sg1377
I434
sbtp1689
sg1324
(g1527
(idivisor
TwoPDivisor
p1690
(dp1691
g1376
I-9
sg1377
I422
sbtp1692
sg295
((idivisor
TwoPDivisor
p1693
(dp1694
g1376
I2
sg1377
I46
sb(idivisor
TwoPDivisor
p1695
(dp1696
g1376
I-9
sg1377
I411
sbtp1697
sg652
(g1682
(idivisor
TwoPDivisor
p1698
(dp1699
g1376
I-9
sg1377
I421
sbtp1700
sg642
(g1427
(idivisor
TwoPDivisor
p1701
(dp1702
g1376
I-9
sg1377
I476
sbtp1703
sg937
(g1394
(idivisor
TwoPDivisor
p1704
(dp1705
g1376
I-9
sg1377
I425
sbtp1706
sg1099
(g1373
(idivisor
TwoPDivisor
p1707
(dp1708
g1376
I-9
sg1377
I436
sbtp1709
sg605
(g1535
(idivisor
TwoPDivisor
p1710
(dp1711
g1376
I-9
sg1377
I433
sbtp1712
sg71
((idivisor
TwoPDivisor
p1713
(dp1714
g1376
I5
sg1377
I37
sb(idivisor
TwoPDivisor
p1715
(dp1716
g1376
I-8
sg1377
I421
sbtp1717
sg309
(g1463
(idivisor
TwoPDivisor
p1718
(dp1719
g1376
I-9
sg1377
I431
sbtp1720
sg1252
(g1569
(idivisor
TwoPDivisor
p1721
(dp1722
g1376
I-9
sg1377
I413
sbtp1723
sg1020
(g1569
(idivisor
TwoPDivisor
p1724
(dp1725
g1376
I-9
sg1377
I436
sbtp1726
sg1235
(g1427
(idivisor
TwoPDivisor
p1727
(dp1728
g1376
I-9
sg1377
I434
sbtp1729
sg1230
(g1419
(idivisor
TwoPDivisor
p1730
(dp1731
g1376
I-9
sg1377
I438
sbtp1732
sg36
((idivisor
TwoPDivisor
p1733
(dp1734
g1376
I8
sg1377
I4
sb(idivisor
TwoPDivisor
p1735
(dp1736
g1376
I-9
sg1377
I453
sbtp1737
sg448
((idivisor
TwoPDivisor
p1738
(dp1739
g1376
I7
sg1377
I28
sb(idivisor
TwoPDivisor
p1740
(dp1741
g1376
I-9
sg1377
I420
sbtp1742
sg21
((idivisor
TwoPDivisor
p1743
(dp1744
g1376
I6
sg1377
I29
sb(idivisor
TwoPDivisor
p1745
(dp1746
g1376
I-7
sg1377
I428
sbtp1747
sg798
(g1409
(idivisor
TwoPDivisor
p1748
(dp1749
g1376
I-9
sg1377
I424
sbtp1750
sg858
(g1414
(idivisor
TwoPDivisor
p1751
(dp1752
g1376
I-9
sg1377
I418
sbtp1753
sg114
(g1419
(idivisor
TwoPDivisor
p1754
(dp1755
g1376
I-9
sg1377
I512
sbtp1756
sg355
(g1481
(idivisor
TwoPDivisor
p1757
(dp1758
g1376
I-9
sg1377
I446
sbtp1759
sg60
((idivisor
TwoPDivisor
p1760
(dp1761
g1376
I8
sg1377
I46
sb(idivisor
TwoPDivisor
p1762
(dp1763
g1376
I-9
sg1377
I410
sbtp1764
sg607
(g1394
(idivisor
TwoPDivisor
p1765
(dp1766
g1376
I-9
sg1377
I440
sbtp1767
sg80
((idivisor
TwoPDivisor
p1768
(dp1769
g1376
I2
sg1377
I27
sb(idivisor
TwoPDivisor
p1770
(dp1771
g1376
I-5
sg1377
I431
sbtp1772
sg1129
(g1394
(idivisor
TwoPDivisor
p1773
(dp1774
g1376
I-9
sg1377
I411
sbtp1775
sg909
(g1386
(idivisor
TwoPDivisor
p1776
(dp1777
g1376
I-9
sg1377
I458
sbtp1778
sg165
((idivisor
TwoPDivisor
p1779
(dp1780
g1376
I5
sg1377
I46
sb(idivisor
TwoPDivisor
p1781
(dp1782
g1376
I-9
sg1377
I411
sbtp1783
sg239
(g1633
(idivisor
TwoPDivisor
p1784
(dp1785
g1376
I-8
sg1377
I455
sbtp1786
sg532
(g1527
(idivisor
TwoPDivisor
p1787
(dp1788
g1376
I-9
sg1377
I485
sbtp1789
sg1296
(g1527
(idivisor
TwoPDivisor
p1790
(dp1791
g1376
I-9
sg1377
I427
sbtp1792
sg932
(g1414
(idivisor
TwoPDivisor
p1793
(dp1794
g1376
I-9
sg1377
I414
sbtp1795
sg82
(g1667
(idivisor
TwoPDivisor
p1796
(dp1797
g1376
I-8
sg1377
I436
sbtp1798
sg996
(g1414
(idivisor
TwoPDivisor
p1799
(dp1800
g1376
I-9
sg1377
I410
sbtp1801
sg728
(g1442
(idivisor
TwoPDivisor
p1802
(dp1803
g1376
I-9
sg1377
I419
sbtp1804
sg1302
(g1527
(idivisor
TwoPDivisor
p1805
(dp1806
g1376
I-9
sg1377
I426
sbtp1807
sg1084
(g1399
(idivisor
TwoPDivisor
p1808
(dp1809
g1376
I-9
sg1377
I422
sbtp1810
sg1123
(g1373
(idivisor
TwoPDivisor
p1811
(dp1812
g1376
I-9
sg1377
I434
sbtp1813
sg245
((idivisor
TwoPDivisor
p1814
(dp1815
g1376
I4
sg1377
I-15
sb(idivisor
TwoPDivisor
p1816
(dp1817
g1376
I-9
sg1377
I472
sbtp1818
sg855
(g1682
(idivisor
TwoPDivisor
p1819
(dp1820
g1376
I-9
sg1377
I412
sbtp1821
sg870
(g1386
(idivisor
TwoPDivisor
p1822
(dp1823
g1376
I-9
sg1377
I460
sbtp1824
sg957
(g1569
(idivisor
TwoPDivisor
p1825
(dp1826
g1376
I-9
sg1377
I440
sbtp1827
sg1249
(g1427
(idivisor
TwoPDivisor
p1828
(dp1829
g1376
I-9
sg1377
I432
sbtp1830
sg1289
(g1427
(idivisor
TwoPDivisor
p1831
(dp1832
g1376
I-9
sg1377
I426
sbtp1833
sg1085
(g1540
(idivisor
TwoPDivisor
p1834
(dp1835
g1376
I-9
sg1377
I424
sbtp1836
sg881
(g1535
(idivisor
TwoPDivisor
p1837
(dp1838
g1376
I-9
sg1377
I421
sbtp1839
sg233
(g1535
(idivisor
TwoPDivisor
p1840
(dp1841
g1376
I-9
sg1377
I444
sbtp1842
sg1246
(g1373
(idivisor
TwoPDivisor
p1843
(dp1844
g1376
I-9
sg1377
I420
sbtp1845
sg951
(g1535
(idivisor
TwoPDivisor
p1846
(dp1847
g1376
I-9
sg1377
I417
sbtp1848
sg771
(g1463
(idivisor
TwoPDivisor
p1849
(dp1850
g1376
I-9
sg1377
I415
sbtp1851
sg1337
(g1386
(idivisor
TwoPDivisor
p1852
(dp1853
g1376
I-9
sg1377
I414
sbtp1854
sg164
((idivisor
TwoPDivisor
p1855
(dp1856
g1376
I6
sg1377
I46
sb(idivisor
TwoPDivisor
p1857
(dp1858
g1376
I-9
sg1377
I410
sbtp1859
sg330
(g1427
(idivisor
TwoPDivisor
p1860
(dp1861
g1376
I-1
sg1377
I485
sbtp1862
sg1095
(g1486
(idivisor
TwoPDivisor
p1863
(dp1864
g1376
I-9
sg1377
I415
sbtp1865
sg1320
(g1419
(idivisor
TwoPDivisor
p1866
(dp1867
g1376
I-9
sg1377
I424
sbtp1868
sg193
((idivisor
TwoPDivisor
p1869
(dp1870
g1376
I4
sg1377
I3
sb(idivisor
TwoPDivisor
p1871
(dp1872
g1376
I-7
sg1377
I453
sbtp1873
sg717
(g1458
(idivisor
TwoPDivisor
p1874
(dp1875
g1376
I-9
sg1377
I463
sbtp1876
sg485
(g1682
(idivisor
TwoPDivisor
p1877
(dp1878
g1376
I-9
sg1377
I427
sbtp1879
sg1281
(g1458
(idivisor
TwoPDivisor
p1880
(dp1881
g1376
I-9
sg1377
I420
sbtp1882
sg286
(g1814
(idivisor
TwoPDivisor
p1883
(dp1884
g1376
I-9
sg1377
I471
sbtp1885
sg1208
(g1569
(idivisor
TwoPDivisor
p1886
(dp1887
g1376
I-9
sg1377
I419
sbtp1888
sg1271
(g1527
(idivisor
TwoPDivisor
p1889
(dp1890
g1376
I-9
sg1377
I431
sbtp1891
sg616
(g1527
(idivisor
TwoPDivisor
p1892
(dp1893
g1376
I-9
sg1377
I479
sbtp1894
sg366
(g1386
(idivisor
TwoPDivisor
p1895
(dp1896
g1376
I-9
sg1377
I485
sbtp1897
sg1107
(g1486
(idivisor
TwoPDivisor
p1898
(dp1899
g1376
I-9
sg1377
I414
sbtp1900
sg1090
(g1427
(idivisor
TwoPDivisor
p1901
(dp1902
g1376
I-9
sg1377
I449
sbtp1903
sg152
((idivisor
TwoPDivisor
p1904
(dp1905
g1376
I8
sg1377
I-14
sb(idivisor
TwoPDivisor
p1906
(dp1907
g1376
I-9
sg1377
I469
sbtp1908
sg163
(g1419
(idivisor
TwoPDivisor
p1909
(dp1910
g1376
I-1
sg1377
I503
sbtp1911
sg1014
(g1535
(idivisor
TwoPDivisor
p1912
(dp1913
g1376
I-9
sg1377
I413
sbtp1914
sg204
((idivisor
TwoPDivisor
p1915
(dp1916
g1376
I6
sg1377
I-31
sb(idivisor
TwoPDivisor
p1917
(dp1918
g1376
I-9
sg1377
I487
sbtp1919
sg953
(g1394
(idivisor
TwoPDivisor
p1920
(dp1921
g1376
I-9
sg1377
I424
sbtp1922
sg378
(g1497
(idivisor
TwoPDivisor
p1923
(dp1924
g1376
I-9
sg1377
I421
sbtp1925
sg781
(g1486
(idivisor
TwoPDivisor
p1926
(dp1927
g1376
I-9
sg1377
I434
sbtp1928
sg976
(g1386
(idivisor
TwoPDivisor
p1929
(dp1930
g1376
I-9
sg1377
I454
sbtp1931
sg1237
(g1419
(idivisor
TwoPDivisor
p1932
(dp1933
g1376
I-9
sg1377
I437
sbtp1934
sg47
((idivisor
TwoPDivisor
p1935
(dp1936
g1376
I7
sg1377
I-14
sb(idivisor
TwoPDivisor
p1937
(dp1938
g1376
I-8
sg1377
I471
sbtp1939
sg842
(g1481
(idivisor
TwoPDivisor
p1940
(dp1941
g1376
I-9
sg1377
I428
sbtp1942
sg942
(g1373
(idivisor
TwoPDivisor
p1943
(dp1944
g1376
I-9
sg1377
I447
sbtp1945
sg1202
(g1386
(idivisor
TwoPDivisor
p1946
(dp1947
g1376
I-9
sg1377
I435
sbtp1948
sg632
(g1535
(idivisor
TwoPDivisor
p1949
(dp1950
g1376
I-9
sg1377
I432
sbtp1951
sg419
(g1463
(idivisor
TwoPDivisor
p1952
(dp1953
g1376
I-9
sg1377
I428
sbtp1954
sg176
((idivisor
TwoPDivisor
p1955
(dp1956
g1376
I1
sg1377
I36
sb(idivisor
TwoPDivisor
p1957
(dp1958
g1376
I-6
sg1377
I422
sbtp1959
sg493
(g1394
(idivisor
TwoPDivisor
p1960
(dp1961
g1376
I-9
sg1377
I444
sbtp1962
sg918
(g1535
(idivisor
TwoPDivisor
p1963
(dp1964
g1376
I-9
sg1377
I419
sbtp1965
sg1260
(g1373
(idivisor
TwoPDivisor
p1966
(dp1967
g1376
I-9
sg1377
I418
sbtp1968
sg1234
(g1386
(idivisor
TwoPDivisor
p1969
(dp1970
g1376
I-9
sg1377
I431
sbtp1971
sg161
((idivisor
TwoPDivisor
p1972
(dp1973
g1376
I6
sg1377
I-45
sb(idivisor
TwoPDivisor
p1974
(dp1975
g1376
I-1
sg1377
I494
sbtp1976
sg761
(g1540
(idivisor
TwoPDivisor
p1977
(dp1978
g1376
I-9
sg1377
I443
sbtp1979
sg514
(g1463
(idivisor
TwoPDivisor
p1980
(dp1981
g1376
I-9
sg1377
I425
sbtp1982
sg452
(g1463
(idivisor
TwoPDivisor
p1983
(dp1984
g1376
I-9
sg1377
I427
sbtp1985
sg1146
(g1458
(idivisor
TwoPDivisor
p1986
(dp1987
g1376
I-9
sg1377
I437
sbtp1988
sg687
(g1486
(idivisor
TwoPDivisor
p1989
(dp1990
g1376
I-9
sg1377
I438
sbtp1991
sg924
(g1569
(idivisor
TwoPDivisor
p1992
(dp1993
g1376
I-9
sg1377
I442
sbtp1994
sg212
(g1693
(idivisor
TwoPDivisor
p1995
(dp1996
g1376
I-8
sg1377
I412
sbtp1997
sg1083
(g1486
(idivisor
TwoPDivisor
p1998
(dp1999
g1376
I-9
sg1377
I416
sbtp2000
sg400
(g1373
(idivisor
TwoPDivisor
p2001
(dp2002
g1376
I-9
sg1377
I470
sbtp2003
sg380
((idivisor
TwoPDivisor
p2004
(dp2005
g1376
I6
sg1377
I28
sb(idivisor
TwoPDivisor
p2006
(dp2007
g1376
I-9
sg1377
I423
sbtp2008
sg1224
(g1569
(idivisor
TwoPDivisor
p2009
(dp2010
g1376
I-9
sg1377
I417
sbtp2011
sg290
(g1386
(idivisor
TwoPDivisor
p2012
(dp2013
g1376
I-9
sg1377
I487
sbtp2014
sg508
(g1955
(idivisor
TwoPDivisor
p2015
(dp2016
g1376
I-9
sg1377
I416
sbtp2017
sg908
(g1458
(idivisor
TwoPDivisor
p2018
(dp2019
g1376
I-9
sg1377
I454
sbtp2020
sg742
(g1386
(idivisor
TwoPDivisor
p2021
(dp2022
g1376
I-9
sg1377
I467
sbtp2023
sg1029
(g1535
(idivisor
TwoPDivisor
p2024
(dp2025
g1376
I-9
sg1377
I412
sbtp2026
sg688
(g1399
(idivisor
TwoPDivisor
p2027
(dp2028
g1376
I-9
sg1377
I444
sbtp2029
sg933
(g1505
(idivisor
TwoPDivisor
p2030
(dp2031
g1376
I-9
sg1377
I416
sbtp2032
sg626
(g1682
(idivisor
TwoPDivisor
p2033
(dp2034
g1376
I-9
sg1377
I422
sbtp2035
sg1291
(g1419
(idivisor
TwoPDivisor
p2036
(dp2037
g1376
I-9
sg1377
I429
sbtp2038
sg1004
(g1540
(idivisor
TwoPDivisor
p2039
(dp2040
g1376
I-9
sg1377
I430
sbtp2041
sg460
(g1481
(idivisor
TwoPDivisor
p2042
(dp2043
g1376
I-9
sg1377
I443
sbtp2044
sg531
(g1427
(idivisor
TwoPDivisor
p2045
(dp2046
g1376
I-9
sg1377
I480
sbtp2047
sg474
((idivisor
TwoPDivisor
p2048
(dp2049
g1376
I6
sg1377
I37
sb(idivisor
TwoPDivisor
p2050
(dp2051
g1376
I-9
sg1377
I411
sbtp2052
sg584
(g1569
(idivisor
TwoPDivisor
p2053
(dp2054
g1376
I-9
sg1377
I457
sbtp2055
sg1269
(g1386
(idivisor
TwoPDivisor
p2056
(dp2057
g1376
I-9
sg1377
I426
sbtp2058
sg949
(g1505
(idivisor
TwoPDivisor
p2059
(dp2060
g1376
I-9
sg1377
I415
sbtp2061
sg398
(g1569
(idivisor
TwoPDivisor
p2062
(dp2063
g1376
I-9
sg1377
I463
sbtp2064
sg845
(g1399
(idivisor
TwoPDivisor
p2065
(dp2066
g1376
I-9
sg1377
I437
sbtp2067
sg31
((idivisor
TwoPDivisor
p2068
(dp2069
g1376
I8
sg1377
I12
sb(idivisor
TwoPDivisor
p2070
(dp2071
g1376
I-9
sg1377
I445
sbtp2072
sg1214
(g1419
(idivisor
TwoPDivisor
p2073
(dp2074
g1376
I-9
sg1377
I440
sbtp2075
sg205
((idivisor
TwoPDivisor
p2076
(dp2077
g1376
I5
sg1377
I-36
sb(idivisor
TwoPDivisor
p2078
(dp2079
g1376
I-1
sg1377
I485
sbtp2080
sg923
(g1540
(idivisor
TwoPDivisor
p2081
(dp2082
g1376
I-9
sg1377
I435
sbtp2083
sg1338
(g1427
(idivisor
TwoPDivisor
p2084
(dp2085
g1376
I-9
sg1377
I417
sbtp2086
sg1097
(g1540
(idivisor
TwoPDivisor
p2087
(dp2088
g1376
I-9
sg1377
I423
sbtp2089
sg946
(g1527
(idivisor
TwoPDivisor
p2090
(dp2091
g1376
I-9
sg1377
I461
sbtp2092
sg967
(g1535
(idivisor
TwoPDivisor
p2093
(dp2094
g1376
I-9
sg1377
I416
sbtp2095
sg1010
(g1527
(idivisor
TwoPDivisor
p2096
(dp2097
g1376
I-9
sg1377
I457
sbtp2098
sg1007
(g1458
(idivisor
TwoPDivisor
p2099
(dp2100
g1376
I-9
sg1377
I448
sbtp2101
sg288
((idivisor
TwoPDivisor
p2102
(dp2103
g1376
I5
sg1377
I-23
sb(idivisor
TwoPDivisor
p2104
(dp2105
g1376
I-9
sg1377
I478
sbtp2106
sg1255
(g1386
(idivisor
TwoPDivisor
p2107
(dp2108
g1376
I-9
sg1377
I428
sbtp2109
sg35
((idivisor
TwoPDivisor
p2110
(dp2111
g1376
I4
sg1377
I9
sb(idivisor
TwoPDivisor
p2112
(dp2113
g1376
I-6
sg1377
I449
sbtp2114
sg1219
(g1386
(idivisor
TwoPDivisor
p2115
(dp2116
g1376
I-9
sg1377
I433
sbtp2117
sg244
((idivisor
TwoPDivisor
p2118
(dp2119
g1376
I5
sg1377
I-14
sb(idivisor
TwoPDivisor
p2120
(dp2121
g1376
I-8
sg1377
I469
sbtp2122
sg873
(g1419
(idivisor
TwoPDivisor
p2123
(dp2124
g1376
I-9
sg1377
I467
sbtp2125
sg68
(g1604
(idivisor
TwoPDivisor
p2126
(dp2127
g1376
I-9
sg1377
I419
sbtp2128
sg1304
(g1373
(idivisor
TwoPDivisor
p2129
(dp2130
g1376
I-9
sg1377
I411
sbtp2131
sg956
(g1540
(idivisor
TwoPDivisor
p2132
(dp2133
g1376
I-9
sg1377
I433
sbtp2134
sg272
(g1473
(idivisor
TwoPDivisor
p2135
(dp2136
g1376
I-9
sg1377
I435
sbtp2137
sg904
(g1399
(idivisor
TwoPDivisor
p2138
(dp2139
g1376
I-9
sg1377
I434
sbtp2140
sg154
(g2118
(idivisor
TwoPDivisor
p2141
(dp2142
g1376
I-8
sg1377
I471
sbtp2143
sg1162
(g1540
(idivisor
TwoPDivisor
p2144
(dp2145
g1376
I-9
sg1377
I417
sbtp2146
sg144
((idivisor
TwoPDivisor
p2147
(dp2148
g1376
I8
sg1377
I3
sb(idivisor
TwoPDivisor
p2149
(dp2150
g1376
I-9
sg1377
I452
sbtp2151
sg266
(g2004
(idivisor
TwoPDivisor
p2152
(dp2153
g1376
I-9
sg1377
I426
sbtp2154
sg447
(g1497
(idivisor
TwoPDivisor
p2155
(dp2156
g1376
I-9
sg1377
I419
sbtp2157
sg70
(g2048
(idivisor
TwoPDivisor
p2158
(dp2159
g1376
I-9
sg1377
I421
sbtp2160
sg1187
(g1419
(idivisor
TwoPDivisor
p2161
(dp2162
g1376
I-9
sg1377
I443
sbtp2163
sg905
(g1540
(idivisor
TwoPDivisor
p2164
(dp2165
g1376
I-9
sg1377
I436
sbtp2166
sg712
(g1486
(idivisor
TwoPDivisor
p2167
(dp2168
g1376
I-9
sg1377
I437
sbtp2169
sg596
((idivisor
TwoPDivisor
p2170
(dp2171
g1376
I5
sg1377
I28
sb(idivisor
TwoPDivisor
p2172
(dp2173
g1376
I-9
sg1377
I417
sbtp2174
sg679
(g1442
(idivisor
TwoPDivisor
p2175
(dp2176
g1376
I-9
sg1377
I421
sbtp2177
sg1174
(g1458
(idivisor
TwoPDivisor
p2178
(dp2179
g1376
I-9
sg1377
I434
sbtp2180
sg958
(g1373
(idivisor
TwoPDivisor
p2181
(dp2182
g1376
I-9
sg1377
I446
sbtp2183
sg898
(g1505
(idivisor
TwoPDivisor
p2184
(dp2185
g1376
I-9
sg1377
I418
sbtp2186
sg1273
(g1569
(idivisor
TwoPDivisor
p2187
(dp2188
g1376
I-9
sg1377
I410
sbtp2189
sg511
(g2004
(idivisor
TwoPDivisor
p2190
(dp2191
g1376
I-9
sg1377
I419
sbtp2192
sg865
(g1399
(idivisor
TwoPDivisor
p2193
(dp2194
g1376
I-9
sg1377
I436
sbtp2195
sg127
((idivisor
TwoPDivisor
p2196
(dp2197
g1376
I2
sg1377
I37
sb(idivisor
TwoPDivisor
p2198
(dp2199
g1376
I-6
sg1377
I421
sbtp2200
sg454
(g1442
(idivisor
TwoPDivisor
p2201
(dp2202
g1376
I-9
sg1377
I429
sbtp2203
sg44
((idivisor
TwoPDivisor
p2204
(dp2205
g1376
I5
sg1377
I-9
sb(idivisor
TwoPDivisor
p2206
(dp2207
g1376
I-7
sg1377
I467
sbtp2208
sg919
(g1481
(idivisor
TwoPDivisor
p2209
(dp2210
g1376
I-9
sg1377
I424
sbtp2211
sg431
(g1540
(idivisor
TwoPDivisor
p2212
(dp2213
g1376
I-9
sg1377
I455
sbtp2214
sg970
(g1486
(idivisor
TwoPDivisor
p2215
(dp2216
g1376
I-9
sg1377
I424
sbtp2217
sg621
(g1738
(idivisor
TwoPDivisor
p2218
(dp2219
g1376
I-9
sg1377
I414
sbtp2220
sg1293
(g1458
(idivisor
TwoPDivisor
p2221
(dp2222
g1376
I-9
sg1377
I418
sbtp2223
sg1164
(g1373
(idivisor
TwoPDivisor
p2224
(dp2225
g1376
I-9
sg1377
I430
sbtp2226
sg524
(g1486
(idivisor
TwoPDivisor
p2227
(dp2228
g1376
I-9
sg1377
I444
sbtp2229
sg752
(g1473
(idivisor
TwoPDivisor
p2230
(dp2231
g1376
I-9
sg1377
I419
sbtp2232
sg490
(g1409
(idivisor
TwoPDivisor
p2233
(dp2234
g1376
I-9
sg1377
I436
sbtp2235
sg468
(g1458
(idivisor
TwoPDivisor
p2236
(dp2237
g1376
I-1
sg1377
I467
sbtp2238
sg1016
(g1394
(idivisor
TwoPDivisor
p2239
(dp2240
g1376
I-9
sg1377
I420
sbtp2241
sg633
(g1481
(idivisor
TwoPDivisor
p2242
(dp2243
g1376
I-9
sg1377
I437
sbtp2244
sg265
(g1738
(idivisor
TwoPDivisor
p2245
(dp2246
g1376
I-9
sg1377
I425
sbtp2247
sg1122
(g1569
(idivisor
TwoPDivisor
p2248
(dp2249
g1376
I-9
sg1377
I428
sbtp2250
sg1204
(g1527
(idivisor
TwoPDivisor
p2251
(dp2252
g1376
I-9
sg1377
I440
sbtp2253
sg1143
(g1540
(idivisor
TwoPDivisor
p2254
(dp2255
g1376
I-9
sg1377
I419
sbtp2256
sg986
(g1486
(idivisor
TwoPDivisor
p2257
(dp2258
g1376
I-9
sg1377
I423
sbtp2259
sg762
(g1569
(idivisor
TwoPDivisor
p2260
(dp2261
g1376
I-9
sg1377
I450
sbtp2262
sg1195
(g1527
(idivisor
TwoPDivisor
p2263
(dp2264
g1376
I-9
sg1377
I441
sbtp2265
sg495
(g1399
(idivisor
TwoPDivisor
p2266
(dp2267
g1376
I-9
sg1377
I451
sbtp2268
sg837
(g1473
(idivisor
TwoPDivisor
p2269
(dp2270
g1376
I-9
sg1377
I415
sbtp2271
sg574
(g1473
(idivisor
TwoPDivisor
p2272
(dp2273
g1376
I-9
sg1377
I426
sbtp2274
sg591
(g2196
(idivisor
TwoPDivisor
p2275
(dp2276
g1376
I-9
sg1377
I411
sbtp2277
sg830
(g1427
(idivisor
TwoPDivisor
p2278
(dp2279
g1376
I-1
sg1377
I458
sbtp2280
sg782
(g1399
(idivisor
TwoPDivisor
p2281
(dp2282
g1376
I-9
sg1377
I440
sbtp2283
sg1082
(g1394
(idivisor
TwoPDivisor
p2284
(dp2285
g1376
I-9
sg1377
I415
sbtp2286
sg108
((idivisor
TwoPDivisor
p2287
(dp2288
g1376
I8
sg1377
I-31
sb(idivisor
TwoPDivisor
p2289
(dp2290
g1376
I-9
sg1377
I487
sbtp2291
sg829
(g1386
(idivisor
TwoPDivisor
p2292
(dp2293
g1376
I-9
sg1377
I462
sbtp2294
sg291
(g1427
(idivisor
TwoPDivisor
p2295
(dp2296
g1376
I-9
sg1377
I494
sbtp2297
sg1308
(g1527
(idivisor
TwoPDivisor
p2298
(dp2299
g1376
I-9
sg1377
I425
sbtp2300
sg746
(g2004
(idivisor
TwoPDivisor
p2301
(dp2302
g1376
I-9
sg1377
I410
sbtp2303
sg441
(g1545
(idivisor
TwoPDivisor
p2304
(dp2305
g1376
I-9
sg1377
I411
sbtp2306
sg1221
(g1527
(idivisor
TwoPDivisor
p2307
(dp2308
g1376
I-9
sg1377
I438
sbtp2309
sg502
(g1527
(idivisor
TwoPDivisor
p2310
(dp2311
g1376
I-9
sg1377
I486
sbtp2312
sg786
(g1458
(idivisor
TwoPDivisor
p2313
(dp2314
g1376
I-9
sg1377
I460
sbtp2315
sg774
(g1473
(idivisor
TwoPDivisor
p2316
(dp2317
g1376
I-9
sg1377
I418
sbtp2318
sg663
(g1540
(idivisor
TwoPDivisor
p2319
(dp2320
g1376
I-9
sg1377
I447
sbtp2321
sg927
(g1386
(idivisor
TwoPDivisor
p2322
(dp2323
g1376
I-9
sg1377
I457
sbtp2324
sg315
(g1535
(idivisor
TwoPDivisor
p2325
(dp2326
g1376
I-9
sg1377
I442
sbtp2327
sg198
((idivisor
TwoPDivisor
p2328
(dp2329
g1376
I8
sg1377
I-15
sb(idivisor
TwoPDivisor
p2330
(dp2331
g1376
I-9
sg1377
I469
sbtp2332
sg914
(g1473
(idivisor
TwoPDivisor
p2333
(dp2334
g1376
I-9
sg1377
I411
sbtp2335
sg968
(g1481
(idivisor
TwoPDivisor
p2336
(dp2337
g1376
I-9
sg1377
I421
sbtp2338
sg1168
(g1527
(idivisor
TwoPDivisor
p2339
(dp2340
g1376
I-9
sg1377
I444
sbtp2341
sg498
(g1373
(idivisor
TwoPDivisor
p2342
(dp2343
g1376
I-9
sg1377
I467
sbtp2344
sg1259
(g1569
(idivisor
TwoPDivisor
p2345
(dp2346
g1376
I-9
sg1377
I412
sbtp2347
sg56
((idivisor
TwoPDivisor
p2348
(dp2349
g1376
I7
sg1377
I-45
sb(idivisor
TwoPDivisor
p2350
(dp2351
g1376
I-9
sg1377
I503
sbtp2352
sg311
(g1442
(idivisor
TwoPDivisor
p2353
(dp2354
g1376
I-9
sg1377
I433
sbtp2355
sg1284
(g1527
(idivisor
TwoPDivisor
p2356
(dp2357
g1376
I-9
sg1377
I429
sbtp2358
sg253
((idivisor
TwoPDivisor
p2359
(dp2360
g1376
I4
sg1377
I46
sb(idivisor
TwoPDivisor
p2361
(dp2362
g1376
I-9
sg1377
I410
sbtp2363
sg41
((idivisor
TwoPDivisor
p2364
(dp2365
g1376
I8
sg1377
I-5
sb(idivisor
TwoPDivisor
p2366
(dp2367
g1376
I-9
sg1377
I462
sbtp2368
sg209
(g1779
(idivisor
TwoPDivisor
p2369
(dp2370
g1376
I-9
sg1377
I410
sbtp2371
sg899
(g1409
(idivisor
TwoPDivisor
p2372
(dp2373
g1376
I-9
sg1377
I419
sbtp2374
sg583
(g1540
(idivisor
TwoPDivisor
p2375
(dp2376
g1376
I-9
sg1377
I450
sbtp2377
sg388
(g1505
(idivisor
TwoPDivisor
p2378
(dp2379
g1376
I-9
sg1377
I438
sbtp2380
sg255
(g1693
(idivisor
TwoPDivisor
p2381
(dp2382
g1376
I-9
sg1377
I412
sbtp2383
sg211
(g1381
(idivisor
TwoPDivisor
p2384
(dp2385
g1376
I-9
sg1377
I412
sbtp2386
sg824
(g1399
(idivisor
TwoPDivisor
p2387
(dp2388
g1376
I-9
sg1377
I438
sbtp2389
sg467
(g1373
(idivisor
TwoPDivisor
p2390
(dp2391
g1376
I-9
sg1377
I468
sbtp2392
sg196
((idivisor
TwoPDivisor
p2393
(dp2394
g1376
I7
sg1377
I-6
sb(idivisor
TwoPDivisor
p2395
(dp2396
g1376
I-8
sg1377
I460
sbtp2397
sg1361
(g1527
(idivisor
TwoPDivisor
p2398
(dp2399
g1376
I-9
sg1377
I413
sbtp2400
sg1344
(g1419
(idivisor
TwoPDivisor
p2401
(dp2402
g1376
I-9
sg1377
I419
sbtp2403
sg346
(g1453
(idivisor
TwoPDivisor
p2404
(dp2405
g1376
I-9
sg1377
I428
sbtp2406
sg940
(g1540
(idivisor
TwoPDivisor
p2407
(dp2408
g1376
I-9
sg1377
I434
sbtp2409
sg37
(g2147
(idivisor
TwoPDivisor
p2410
(dp2411
g1376
I-9
sg1377
I454
sbtp2412
sg825
(g1540
(idivisor
TwoPDivisor
p2413
(dp2414
g1376
I-9
sg1377
I440
sbtp2415
sg96
(g2364
(idivisor
TwoPDivisor
p2416
(dp2417
g1376
I-9
sg1377
I461
sbtp2418
sg483
(g1453
(idivisor
TwoPDivisor
p2419
(dp2420
g1376
I-9
sg1377
I424
sbtp2421
sg1316
(g1458
(idivisor
TwoPDivisor
p2422
(dp2423
g1376
I-9
sg1377
I414
sbtp2424
sg8
(g1779
(idivisor
TwoPDivisor
p2425
(dp2426
g1376
I-7
sg1377
I412
sbtp2427
sg1160
(g1419
(idivisor
TwoPDivisor
p2428
(dp2429
g1376
I-9
sg1377
I446
sbtp2430
sg818
(g1505
(idivisor
TwoPDivisor
p2431
(dp2432
g1376
I-9
sg1377
I422
sbtp2433
sg356
(g1394
(idivisor
TwoPDivisor
p2434
(dp2435
g1376
I-9
sg1377
I448
sbtp2436
sg1098
(g1569
(idivisor
TwoPDivisor
p2437
(dp2438
g1376
I-9
sg1377
I430
sbtp2439
sg145
(g1677
(idivisor
TwoPDivisor
p2440
(dp2441
g1376
I-8
sg1377
I452
sbtp2442
sg638
(g1569
(idivisor
TwoPDivisor
p2443
(dp2444
g1376
I-9
sg1377
I455
sbtp2445
sg1357
(g1427
(idivisor
TwoPDivisor
p2446
(dp2447
g1376
I-9
sg1377
I412
sbtp2448
sg811
(g1419
(idivisor
TwoPDivisor
p2449
(dp2450
g1376
I-9
sg1377
I470
sbtp2451
sg123
(g1545
(idivisor
TwoPDivisor
p2452
(dp2453
g1376
I-9
sg1377
I419
sbtp2454
sg10
(g1381
(idivisor
TwoPDivisor
p2455
(dp2456
g1376
I-5
sg1377
I412
sbtp2457
sg3
((idivisor
TwoPDivisor
p2458
(dp2459
g1376
I8
sg1377
I-62
sb(idivisor
TwoPDivisor
p2460
(dp2461
g1376
I-9
sg1377
I519
sbtp2462
sg646
(g1497
(idivisor
TwoPDivisor
p2463
(dp2464
g1376
I-9
sg1377
I412
sbtp2465
sg718
(g1386
(idivisor
TwoPDivisor
p2466
(dp2467
g1376
I-9
sg1377
I468
sbtp2468
sg1177
(g1527
(idivisor
TwoPDivisor
p2469
(dp2470
g1376
I-9
sg1377
I443
sbtp2471
sg1263
(g1427
(idivisor
TwoPDivisor
p2472
(dp2473
g1376
I-9
sg1377
I430
sbtp2474
sg864
(g1486
(idivisor
TwoPDivisor
p2475
(dp2476
g1376
I-9
sg1377
I430
sbtp2477
sg479
(g1497
(idivisor
TwoPDivisor
p2478
(dp2479
g1376
I-9
sg1377
I418
sbtp2480
sg929
(g1527
(idivisor
TwoPDivisor
p2481
(dp2482
g1376
I-9
sg1377
I462
sbtp2483
sg1180
(g1540
(idivisor
TwoPDivisor
p2484
(dp2485
g1376
I-9
sg1377
I415
sbtp2486
sg799
(g1535
(idivisor
TwoPDivisor
p2487
(dp2488
g1376
I-9
sg1377
I425
sbtp2489
sg1247
(g1458
(idivisor
TwoPDivisor
p2490
(dp2491
g1376
I-9
sg1377
I425
sbtp2492
sg773
(g1442
(idivisor
TwoPDivisor
p2493
(dp2494
g1376
I-9
sg1377
I417
sbtp2495
sg894
(g1682
(idivisor
TwoPDivisor
p2496
(dp2497
g1376
I-9
sg1377
I410
sbtp2498
sg445
(g2196
(idivisor
TwoPDivisor
p2499
(dp2500
g1376
I-9
sg1377
I416
sbtp2501
sg359
(g1399
(idivisor
TwoPDivisor
p2502
(dp2503
g1376
I-9
sg1377
I455
sbtp2504
sg1056
(g1535
(idivisor
TwoPDivisor
p2505
(dp2506
g1376
I-9
sg1377
I410
sbtp2507
sg416
(g2004
(idivisor
TwoPDivisor
p2508
(dp2509
g1376
I-9
sg1377
I422
sbtp2510
sg857
(g1473
(idivisor
TwoPDivisor
p2511
(dp2512
g1376
I-9
sg1377
I414
sbtp2513
sg207
(g1527
(idivisor
TwoPDivisor
p2514
(dp2515
g1376
I-9
sg1377
I503
sbtp2516
sg1352
(g1419
(idivisor
TwoPDivisor
p2517
(dp2518
g1376
I-9
sg1377
I417
sbtp2519
sg1109
(g1540
(idivisor
TwoPDivisor
p2520
(dp2521
g1376
I-9
sg1377
I422
sbtp2522
sg465
(g1519
(idivisor
TwoPDivisor
p2523
(dp2524
g1376
I-9
sg1377
I459
sbtp2525
sg581
(g1486
(idivisor
TwoPDivisor
p2526
(dp2527
g1376
I-9
sg1377
I442
sbtp2528
sg382
(g1453
(idivisor
TwoPDivisor
p2529
(dp2530
g1376
I-9
sg1377
I427
sbtp2531
sg747
(g2170
(idivisor
TwoPDivisor
p2532
(dp2533
g1376
I-9
sg1377
I411
sbtp2534
sg405
(g1419
(idivisor
TwoPDivisor
p2535
(dp2536
g1376
I-9
sg1377
I494
sbtp2537
sg1071
(g1486
(idivisor
TwoPDivisor
p2538
(dp2539
g1376
I-9
sg1377
I417
sbtp2540
sg1241
(g1386
(idivisor
TwoPDivisor
p2541
(dp2542
g1376
I-9
sg1377
I430
sbtp2543
sg759
(g1486
(idivisor
TwoPDivisor
p2544
(dp2545
g1376
I-9
sg1377
I435
sbtp2546
sg550
(g1535
(idivisor
TwoPDivisor
p2547
(dp2548
g1376
I-9
sg1377
I435
sbtp2549
sg182
(g1463
(idivisor
TwoPDivisor
p2550
(dp2551
g1376
I-6
sg1377
I431
sbtp2552
sg838
(g1414
(idivisor
TwoPDivisor
p2553
(dp2554
g1376
I-9
sg1377
I419
sbtp2555
sg947
(g1419
(idivisor
TwoPDivisor
p2556
(dp2557
g1376
I-9
sg1377
I462
sbtp2558
sg1047
(g1399
(idivisor
TwoPDivisor
p2559
(dp2560
g1376
I-9
sg1377
I425
sbtp2561
sg386
(g1473
(idivisor
TwoPDivisor
p2562
(dp2563
g1376
I-9
sg1377
I432
sbtp2564
sg1153
(g1540
(idivisor
TwoPDivisor
p2565
(dp2566
g1376
I-9
sg1377
I418
sbtp2567
sg397
(g1519
(idivisor
TwoPDivisor
p2568
(dp2569
g1376
I-9
sg1377
I461
sbtp2570
sg556
(g1569
(idivisor
TwoPDivisor
p2571
(dp2572
g1376
I-9
sg1377
I458
sbtp2573
sg792
(g1463
(idivisor
TwoPDivisor
p2574
(dp2575
g1376
I-9
sg1377
I414
sbtp2576
sg795
(g1473
(idivisor
TwoPDivisor
p2577
(dp2578
g1376
I-9
sg1377
I417
sbtp2579
sg13
(g1604
(idivisor
TwoPDivisor
p2580
(dp2581
g1376
I-9
sg1377
I420
sbtp2582
sg664
(g1569
(idivisor
TwoPDivisor
p2583
(dp2584
g1376
I-9
sg1377
I454
sbtp2585
sg938
(g1486
(idivisor
TwoPDivisor
p2586
(dp2587
g1376
I-9
sg1377
I426
sbtp2588
sg1012
(g1505
(idivisor
TwoPDivisor
p2589
(dp2590
g1376
I-9
sg1377
I411
sbtp2591
sg823
(g1486
(idivisor
TwoPDivisor
p2592
(dp2593
g1376
I-9
sg1377
I432
sbtp2594
sg812
(g1453
(idivisor
TwoPDivisor
p2595
(dp2596
g1376
I-9
sg1377
I411
sbtp2597
sg332
(g1419
(idivisor
TwoPDivisor
p2598
(dp2599
g1376
I-9
sg1377
I496
sbtp2600
sg261
(g1653
(idivisor
TwoPDivisor
p2601
(dp2602
g1376
I-9
sg1377
I419
sbtp2603
sg518
(g1414
(idivisor
TwoPDivisor
p2604
(dp2605
g1376
I-9
sg1377
I432
sbtp2606
sg1112
(g1458
(idivisor
TwoPDivisor
p2607
(dp2608
g1376
I-9
sg1377
I440
sbtp2609
sg179
(g2004
(idivisor
TwoPDivisor
p2610
(dp2611
g1376
I-9
sg1377
I428
sbtp2612
sg415
(g1738
(idivisor
TwoPDivisor
p2613
(dp2614
g1376
I-9
sg1377
I421
sbtp2615
sg1368
(g1527
(idivisor
TwoPDivisor
p2616
(dp2617
g1376
I-9
sg1377
I410
sbtp2618
sg723
(g2004
(idivisor
TwoPDivisor
p2619
(dp2620
g1376
I-9
sg1377
I411
sbtp2621
sg240
((idivisor
TwoPDivisor
p2622
(dp2623
g1376
I2
sg1377
I0
sb(idivisor
TwoPDivisor
p2624
(dp2625
g1376
I-8
sg1377
I458
sbtp2626
sg439
(g1419
(idivisor
TwoPDivisor
p2627
(dp2628
g1376
I-1
sg1377
I485
sbtp2629
sg833
(g1453
(idivisor
TwoPDivisor
p2630
(dp2631
g1376
I-9
sg1377
I410
sbtp2632
sg816
(g1473
(idivisor
TwoPDivisor
p2633
(dp2634
g1376
I-9
sg1377
I416
sbtp2635
sg177
(g1497
(idivisor
TwoPDivisor
p2636
(dp2637
g1376
I-9
sg1377
I426
sbtp2638
sg1363
(g1427
(idivisor
TwoPDivisor
p2639
(dp2640
g1376
I-9
sg1377
I410
sbtp2641
sg1334
(g1527
(idivisor
TwoPDivisor
p2642
(dp2643
g1376
I-9
sg1377
I420
sbtp2644
sg226
(g1463
(idivisor
TwoPDivisor
p2645
(dp2646
g1376
I-7
sg1377
I431
sbtp2647
sg609
(g1399
(idivisor
TwoPDivisor
p2648
(dp2649
g1376
I-9
sg1377
I447
sbtp2650
sg12
((idivisor
TwoPDivisor
p2651
(dp2652
g1376
I8
sg1377
I38
sb(idivisor
TwoPDivisor
p2653
(dp2654
g1376
I-9
sg1377
I419
sbtp2655
sg964
(g1414
(idivisor
TwoPDivisor
p2656
(dp2657
g1376
I-9
sg1377
I412
sbtp2658
sg20
((idivisor
TwoPDivisor
p2659
(dp2660
g1376
I7
sg1377
I29
sb(idivisor
TwoPDivisor
p2661
(dp2662
g1376
I-8
sg1377
I428
sbtp2663
sg1210
(g1458
(idivisor
TwoPDivisor
p2664
(dp2665
g1376
I-9
sg1377
I430
sbtp2666
sg729
(g1473
(idivisor
TwoPDivisor
p2667
(dp2668
g1376
I-9
sg1377
I420
sbtp2669
sg667
(g1386
(idivisor
TwoPDivisor
p2670
(dp2671
g1376
I-9
sg1377
I470
sbtp2672
sg1076
(g1458
(idivisor
TwoPDivisor
p2673
(dp2674
g1376
I-9
sg1377
I443
sbtp2675
sg1197
(g1399
(idivisor
TwoPDivisor
p2676
(dp2677
g1376
I-9
sg1377
I411
sbtp2678
sg69
(g1545
(idivisor
TwoPDivisor
p2679
(dp2680
g1376
I-9
sg1377
I420
sbtp2681
sg1359
(g1419
(idivisor
TwoPDivisor
p2682
(dp2683
g1376
I-9
sg1377
I415
sbtp2684
sg1092
(g1419
(idivisor
TwoPDivisor
p2685
(dp2686
g1376
I-9
sg1377
I452
sbtp2687
sg449
(g2004
(idivisor
TwoPDivisor
p2688
(dp2689
g1376
I-9
sg1377
I421
sbtp2690
sg327
(g2102
(idivisor
TwoPDivisor
p2691
(dp2692
g1376
I-9
sg1377
I477
sbtp2693
sg1354
(g1427
(idivisor
TwoPDivisor
p2694
(dp2695
g1376
I-9
sg1377
I413
sbtp2696
sg456
(g1414
(idivisor
TwoPDivisor
p2697
(dp2698
g1376
I-9
sg1377
I434
sbtp2699
sg133
(g1768
(idivisor
TwoPDivisor
p2700
(dp2701
g1376
I-6
sg1377
I431
sbtp2702
sg478
(g1955
(idivisor
TwoPDivisor
p2703
(dp2704
g1376
I-9
sg1377
I417
sbtp2705
sg147
(g1869
(idivisor
TwoPDivisor
p2706
(dp2707
g1376
I-7
sg1377
I454
sbtp2708
sg200
((idivisor
TwoPDivisor
p2709
(dp2710
g1376
I4
sg1377
I-18
sb(idivisor
TwoPDivisor
p2711
(dp2712
g1376
I-9
sg1377
I476
sbtp2713
sg370
(g1580
(idivisor
TwoPDivisor
p2714
(dp2715
g1376
I-9
sg1377
I411
sbtp2716
sg1065
(g1386
(idivisor
TwoPDivisor
p2717
(dp2718
g1376
I-9
sg1377
I448
sbtp2719
sg702
(g1463
(idivisor
TwoPDivisor
p2720
(dp2721
g1376
I-9
sg1377
I418
sbtp2722
sg936
(g1481
(idivisor
TwoPDivisor
p2723
(dp2724
g1376
I-9
sg1377
I423
sbtp2725
sg1000
(g1481
(idivisor
TwoPDivisor
p2726
(dp2727
g1376
I-9
sg1377
I419
sbtp2728
sg243
(g2328
(idivisor
TwoPDivisor
p2729
(dp2730
g1376
I-9
sg1377
I468
sbtp2731
sg1101
(g1386
(idivisor
TwoPDivisor
p2732
(dp2733
g1376
I-9
sg1377
I445
sbtp2734
sg1093
(g1481
(idivisor
TwoPDivisor
p2735
(dp2736
g1376
I-9
sg1377
I412
sbtp2737
sg471
(g1527
(idivisor
TwoPDivisor
p2738
(dp2739
g1376
I-9
sg1377
I487
sbtp2740
sg496
(g1540
(idivisor
TwoPDivisor
p2741
(dp2742
g1376
I-9
sg1377
I453
sbtp2743
sg590
(g1419
(idivisor
TwoPDivisor
p2744
(dp2745
g1376
I-1
sg1377
I476
sbtp2746
sg1151
(g1486
(idivisor
TwoPDivisor
p2747
(dp2748
g1376
I-9
sg1377
I410
sbtp2749
sg748
(g1453
(idivisor
TwoPDivisor
p2750
(dp2751
g1376
I-9
sg1377
I414
sbtp2752
sg1254
(g1458
(idivisor
TwoPDivisor
p2753
(dp2754
g1376
I-9
sg1377
I424
sbtp2755
sg699
(g2004
(idivisor
TwoPDivisor
p2756
(dp2757
g1376
I-9
sg1377
I412
sbtp2758
sg1063
(g1373
(idivisor
TwoPDivisor
p2759
(dp2760
g1376
I-9
sg1377
I439
sbtp2761
sg620
(g1497
(idivisor
TwoPDivisor
p2762
(dp2763
g1376
I-9
sg1377
I413
sbtp2764
sg1022
(g1458
(idivisor
TwoPDivisor
p2765
(dp2766
g1376
I-9
sg1377
I447
sbtp2767
sg1106
(g1394
(idivisor
TwoPDivisor
p2768
(dp2769
g1376
I-9
sg1377
I413
sbtp2770
sg530
(g1386
(idivisor
TwoPDivisor
p2771
(dp2772
g1376
I-9
sg1377
I477
sbtp2773
sg697
(g1497
(idivisor
TwoPDivisor
p2774
(dp2775
g1376
I-9
sg1377
I410
sbtp2776
sg888
(g1373
(idivisor
TwoPDivisor
p2777
(dp2778
g1376
I-9
sg1377
I450
sbtp2779
sg890
(g1386
(idivisor
TwoPDivisor
p2780
(dp2781
g1376
I-9
sg1377
I459
sbtp2782
sg51
((idivisor
TwoPDivisor
p2783
(dp2784
g1376
I6
sg1377
I-27
sb(idivisor
TwoPDivisor
p2785
(dp2786
g1376
I-8
sg1377
I485
sbtp2787
sg76
(g1743
(idivisor
TwoPDivisor
p2788
(dp2789
g1376
I-7
sg1377
I427
sbtp2790
sg1181
(g1569
(idivisor
TwoPDivisor
p2791
(dp2792
g1376
I-9
sg1377
I422
sbtp2793
sg726
(g1463
(idivisor
TwoPDivisor
p2794
(dp2795
g1376
I-9
sg1377
I417
sbtp2796
sg246
(g2102
(idivisor
TwoPDivisor
p2797
(dp2798
g1376
I-9
sg1377
I479
sbtp2799
sg1242
(g1427
(idivisor
TwoPDivisor
p2800
(dp2801
g1376
I-9
sg1377
I433
sbtp2802
sg551
(g1481
(idivisor
TwoPDivisor
p2803
(dp2804
g1376
I-9
sg1377
I440
sbtp2805
sg307
(g2170
(idivisor
TwoPDivisor
p2806
(dp2807
g1376
I-9
sg1377
I426
sbtp2808
sg436
(g1386
(idivisor
TwoPDivisor
p2809
(dp2810
g1376
I-9
sg1377
I480
sbtp2811
sg421
(g1442
(idivisor
TwoPDivisor
p2812
(dp2813
g1376
I-9
sg1377
I430
sbtp2814
sg1116
(g1419
(idivisor
TwoPDivisor
p2815
(dp2816
g1376
I-9
sg1377
I450
sbtp2817
sg776
(g1505
(idivisor
TwoPDivisor
p2818
(dp2819
g1376
I-9
sg1377
I424
sbtp2820
sg698
(g1738
(idivisor
TwoPDivisor
p2821
(dp2822
g1376
I-9
sg1377
I411
sbtp2823
sg600
(g1442
(idivisor
TwoPDivisor
p2824
(dp2825
g1376
I-9
sg1377
I424
sbtp2826
sg1161
(g1399
(idivisor
TwoPDivisor
p2827
(dp2828
g1376
I-9
sg1377
I415
sbtp2829
sg1155
(g1373
(idivisor
TwoPDivisor
p2830
(dp2831
g1376
I-9
sg1377
I431
sbtp2832
sg1042
(g1409
(idivisor
TwoPDivisor
p2833
(dp2834
g1376
I-9
sg1377
I410
sbtp2835
sg206
(g1427
(idivisor
TwoPDivisor
p2836
(dp2837
g1376
I-9
sg1377
I496
sbtp2838
sg744
(g1527
(idivisor
TwoPDivisor
p2839
(dp2840
g1376
I-9
sg1377
I472
sbtp2841
sg1365
(g1419
(idivisor
TwoPDivisor
p2842
(dp2843
g1376
I-9
sg1377
I413
sbtp2844
sg1186
(g1527
(idivisor
TwoPDivisor
p2845
(dp2846
g1376
I-9
sg1377
I442
sbtp2847
sg686
(g1394
(idivisor
TwoPDivisor
p2848
(dp2849
g1376
I-9
sg1377
I437
sbtp2850
sg866
(g1540
(idivisor
TwoPDivisor
p2851
(dp2852
g1376
I-9
sg1377
I438
sbtp2853
sg220
(g1955
(idivisor
TwoPDivisor
p2854
(dp2855
g1376
I-7
sg1377
I422
sbtp2856
sg995
(g1419
(idivisor
TwoPDivisor
p2857
(dp2858
g1376
I-9
sg1377
I459
sbtp2859
sg1096
(g1399
(idivisor
TwoPDivisor
p2860
(dp2861
g1376
I-9
sg1377
I421
sbtp2862
sg526
(g1540
(idivisor
TwoPDivisor
p2863
(dp2864
g1376
I-9
sg1377
I452
sbtp2865
sg1190
(g1569
(idivisor
TwoPDivisor
p2866
(dp2867
g1376
I-9
sg1377
I421
sbtp2868
sg1144
(g1569
(idivisor
TwoPDivisor
p2869
(dp2870
g1376
I-9
sg1377
I426
sbtp2871
sg1340
(g1419
(idivisor
TwoPDivisor
p2872
(dp2873
g1376
I-9
sg1377
I420
sbtp2874
sg109
((idivisor
TwoPDivisor
p2875
(dp2876
g1376
I6
sg1377
I-36
sb(idivisor
TwoPDivisor
p2877
(dp2878
g1376
I-9
sg1377
I494
sbtp2879
sg1321
(g1458
(idivisor
TwoPDivisor
p2880
(dp2881
g1376
I-9
sg1377
I413
sbtp2882
sg577
(g1409
(idivisor
TwoPDivisor
p2883
(dp2884
g1376
I-9
sg1377
I433
sbtp2885
sg558
(g1458
(idivisor
TwoPDivisor
p2886
(dp2887
g1376
I-9
sg1377
I470
sbtp2888
sg647
(g1738
(idivisor
TwoPDivisor
p2889
(dp2890
g1376
I-9
sg1377
I413
sbtp2891
sg767
(g1527
(idivisor
TwoPDivisor
p2892
(dp2893
g1376
I-9
sg1377
I471
sbtp2894
sg45
((idivisor
TwoPDivisor
p2895
(dp2896
g1376
I8
sg1377
I-13
sb(idivisor
TwoPDivisor
p2897
(dp2898
g1376
I-9
sg1377
I470
sbtp2899
sg630
(g1505
(idivisor
TwoPDivisor
p2900
(dp2901
g1376
I-9
sg1377
I430
sbtp2902
sg111
((idivisor
TwoPDivisor
p2903
(dp2904
g1376
I7
sg1377
I-39
sb(idivisor
TwoPDivisor
p2905
(dp2906
g1376
I-9
sg1377
I496
sbtp2907
sg683
(g1409
(idivisor
TwoPDivisor
p2908
(dp2909
g1376
I-9
sg1377
I429
sbtp2910
sg597
(g1453
(idivisor
TwoPDivisor
p2911
(dp2912
g1376
I-9
sg1377
I420
sbtp2913
sg788
(g1427
(idivisor
TwoPDivisor
p2914
(dp2915
g1376
I-9
sg1377
I468
sbtp2916
sg120
(g1693
(idivisor
TwoPDivisor
p2917
(dp2918
g1376
I-6
sg1377
I412
sbtp2919
sg350
(g1473
(idivisor
TwoPDivisor
p2920
(dp2921
g1376
I-9
sg1377
I433
sbtp2922
sg769
(g2170
(idivisor
TwoPDivisor
p2923
(dp2924
g1376
I-9
sg1377
I410
sbtp2925
sg260
(g1713
(idivisor
TwoPDivisor
p2926
(dp2927
g1376
I-9
sg1377
I418
sbtp2928
sg1119
(g1486
(idivisor
TwoPDivisor
p2929
(dp2930
g1376
I-9
sg1377
I413
sbtp2931
sg546
(g1473
(idivisor
TwoPDivisor
p2932
(dp2933
g1376
I-9
sg1377
I427
sbtp2934
sg305
(g1738
(idivisor
TwoPDivisor
p2935
(dp2936
g1376
I-9
sg1377
I424
sbtp2937
sg696
(g1419
(idivisor
TwoPDivisor
p2938
(dp2939
g1376
I-9
sg1377
I477
sbtp2940
sg1349
(g1386
(idivisor
TwoPDivisor
p2941
(dp2942
g1376
I-9
sg1377
I411
sbtp2943
sg118
(g2359
(idivisor
TwoPDivisor
p2944
(dp2945
g1376
I-8
sg1377
I412
sbtp2946
sg654
(g1473
(idivisor
TwoPDivisor
p2947
(dp2948
g1376
I-9
sg1377
I423
sbtp2949
sg348
(g1682
(idivisor
TwoPDivisor
p2950
(dp2951
g1376
I-9
sg1377
I431
sbtp2952
sg789
(g1527
(idivisor
TwoPDivisor
p2953
(dp2954
g1376
I-9
sg1377
I470
sbtp2955
sg30
((idivisor
TwoPDivisor
p2956
(dp2957
g1376
I3
sg1377
I18
sb(idivisor
TwoPDivisor
p2958
(dp2959
g1376
I-5
sg1377
I440
sbtp2960
sg149
(g1437
(idivisor
TwoPDivisor
p2961
(dp2962
g1376
I-9
sg1377
I461
sbtp2963
sg793
(g1682
(idivisor
TwoPDivisor
p2964
(dp2965
g1376
I-9
sg1377
I415
sbtp2966
sg1282
(g1386
(idivisor
TwoPDivisor
p2967
(dp2968
g1376
I-9
sg1377
I424
sbtp2969
sg229
(g1473
(idivisor
TwoPDivisor
p2970
(dp2971
g1376
I-9
sg1377
I436
sbtp2972
sg341
(g1955
(idivisor
TwoPDivisor
p2973
(dp2974
g1376
I-9
sg1377
I421
sbtp2975
sg116
(g1855
(idivisor
TwoPDivisor
p2976
(dp2977
g1376
I-9
sg1377
I411
sbtp2978
sg539
(g1738
(idivisor
TwoPDivisor
p2979
(dp2980
g1376
I-9
sg1377
I417
sbtp2981
sg535
(g1653
(idivisor
TwoPDivisor
p2982
(dp2983
g1376
I-9
sg1377
I411
sbtp2984
sg1330
(g1419
(idivisor
TwoPDivisor
p2985
(dp2986
g1376
I-9
sg1377
I422
sbtp2987
sg170
(g1604
(idivisor
TwoPDivisor
p2988
(dp2989
g1376
I-9
sg1377
I417
sbtp2990
sg1348
(g1419
(idivisor
TwoPDivisor
p2991
(dp2992
g1376
I-9
sg1377
I418
sbtp2993
sg1054
(g1527
(idivisor
TwoPDivisor
p2994
(dp2995
g1376
I-9
sg1377
I454
sbtp2996
sg639
(g1373
(idivisor
TwoPDivisor
p2997
(dp2998
g1376
I-9
sg1377
I461
sbtp2999
sg340
(g2196
(idivisor
TwoPDivisor
p3000
(dp3001
g1376
I-9
sg1377
I419
sbtp3002
sg689
(g1540
(idivisor
TwoPDivisor
p3003
(dp3004
g1376
I-9
sg1377
I446
sbtp3005
sg999
(g1535
(idivisor
TwoPDivisor
p3006
(dp3007
g1376
I-9
sg1377
I414
sbtp3008
sg540
(g2004
(idivisor
TwoPDivisor
p3009
(dp3010
g1376
I-9
sg1377
I418
sbtp3011
sg281
(g2622
(idivisor
TwoPDivisor
p3012
(dp3013
g1376
I-9
sg1377
I458
sbtp3014
sg536
(g2196
(idivisor
TwoPDivisor
p3015
(dp3016
g1376
I-9
sg1377
I413
sbtp3017
sg497
(g1569
(idivisor
TwoPDivisor
p3018
(dp3019
g1376
I-9
sg1377
I460
sbtp3020
sg115
((idivisor
TwoPDivisor
p3021
(dp3022
g1376
I7
sg1377
I46
sb(idivisor
TwoPDivisor
p3023
(dp3024
g1376
I-9
sg1377
I410
sbtp3025
sg601
(g1473
(idivisor
TwoPDivisor
p3026
(dp3027
g1376
I-9
sg1377
I425
sbtp3028
sg931
(g1473
(idivisor
TwoPDivisor
p3029
(dp3030
g1376
I-9
sg1377
I410
sbtp3031
sg921
(g1486
(idivisor
TwoPDivisor
p3032
(dp3033
g1376
I-9
sg1377
I427
sbtp3034
sg25
((idivisor
TwoPDivisor
p3035
(dp3036
g1376
I8
sg1377
I21
sb(idivisor
TwoPDivisor
p3037
(dp3038
g1376
I-9
sg1377
I436
sbtp3039
sg67
(g1580
(idivisor
TwoPDivisor
p3040
(dp3041
g1376
I-4
sg1377
I413
sbtp3042
sg217
(g1713
(idivisor
TwoPDivisor
p3043
(dp3044
g1376
I-9
sg1377
I419
sbtp3045
sg715
(g1569
(idivisor
TwoPDivisor
p3046
(dp3047
g1376
I-9
sg1377
I452
sbtp3048
sg892
(g1527
(idivisor
TwoPDivisor
p3049
(dp3050
g1376
I-9
sg1377
I464
sbtp3051
sg643
(g1527
(idivisor
TwoPDivisor
p3052
(dp3053
g1376
I-9
sg1377
I478
sbtp3054
sg962
(g1527
(idivisor
TwoPDivisor
p3055
(dp3056
g1376
I-9
sg1377
I460
sbtp3057
sg339
(g1653
(idivisor
TwoPDivisor
p3058
(dp3059
g1376
I-9
sg1377
I417
sbtp3060
sg1301
(g1427
(idivisor
TwoPDivisor
p3061
(dp3062
g1376
I-9
sg1377
I424
sbtp3063
sg943
(g1458
(idivisor
TwoPDivisor
p3064
(dp3065
g1376
I-9
sg1377
I452
sbtp3066
sg353
(g1409
(idivisor
TwoPDivisor
p3067
(dp3068
g1376
I-9
sg1377
I440
sbtp3069
sg523
(g1394
(idivisor
TwoPDivisor
p3070
(dp3071
g1376
I-9
sg1377
I443
sbtp3072
sg426
(g1535
(idivisor
TwoPDivisor
p3073
(dp3074
g1376
I-9
sg1377
I439
sbtp3075
sg915
(g1414
(idivisor
TwoPDivisor
p3076
(dp3077
g1376
I-9
sg1377
I415
sbtp3078
sg270
(g1682
(idivisor
TwoPDivisor
p3079
(dp3080
g1376
I-9
sg1377
I433
sbtp3081
sg94
(g1468
(idivisor
TwoPDivisor
p3082
(dp3083
g1376
I-7
sg1377
I453
sbtp3084
sg1040
(g1527
(idivisor
TwoPDivisor
p3085
(dp3086
g1376
I-9
sg1377
I455
sbtp3087
sg563
(g1653
(idivisor
TwoPDivisor
p3088
(dp3089
g1376
I-9
sg1377
I410
sbtp3090
sg395
(g1399
(idivisor
TwoPDivisor
p3091
(dp3092
g1376
I-9
sg1377
I454
sbtp3093
sg48
((idivisor
TwoPDivisor
p3094
(dp3095
g1376
I5
sg1377
I-18
sb(idivisor
TwoPDivisor
p3096
(dp3097
g1376
I-7
sg1377
I476
sbtp3098
sg491
(g1535
(idivisor
TwoPDivisor
p3099
(dp3100
g1376
I-9
sg1377
I437
sbtp3101
sg335
(g1604
(idivisor
TwoPDivisor
p3102
(dp3103
g1376
I-9
sg1377
I413
sbtp3104
sg110
((idivisor
TwoPDivisor
p3105
(dp3106
g1376
I8
sg1377
I-39
sb(idivisor
TwoPDivisor
p3107
(dp3108
g1376
I-9
sg1377
I495
sbtp3109
sg851
(g1427
(idivisor
TwoPDivisor
p3110
(dp3111
g1376
I-9
sg1377
I464
sbtp3112
sg396
(g1540
(idivisor
TwoPDivisor
p3113
(dp3114
g1376
I-9
sg1377
I456
sbtp3115
sg132
((idivisor
TwoPDivisor
p3116
(dp3117
g1376
I3
sg1377
I29
sb(idivisor
TwoPDivisor
p3118
(dp3119
g1376
I-5
sg1377
I427
sbtp3120
sg1319
(g1527
(idivisor
TwoPDivisor
p3121
(dp3122
g1376
I-9
sg1377
I423
sbtp3123
sg50
((idivisor
TwoPDivisor
p3124
(dp3125
g1376
I7
sg1377
I-22
sb(idivisor
TwoPDivisor
p3126
(dp3127
g1376
I-8
sg1377
I479
sbtp3128
sg181
(g1453
(idivisor
TwoPDivisor
p3129
(dp3130
g1376
I-7
sg1377
I430
sbtp3131
sg884
(g1486
(idivisor
TwoPDivisor
p3132
(dp3133
g1376
I-9
sg1377
I429
sbtp3134
sg1198
(g1540
(idivisor
TwoPDivisor
p3135
(dp3136
g1376
I-9
sg1377
I413
sbtp3137
sg429
(g1486
(idivisor
TwoPDivisor
p3138
(dp3139
g1376
I-9
sg1377
I447
sbtp3140
sg403
(g1427
(idivisor
TwoPDivisor
p3141
(dp3142
g1376
I-9
sg1377
I487
sbtp3143
sg173
(g1713
(idivisor
TwoPDivisor
p3144
(dp3145
g1376
I-9
sg1377
I420
sbtp3146
sg887
(g1569
(idivisor
TwoPDivisor
p3147
(dp3148
g1376
I-9
sg1377
I444
sbtp3149
sg1288
(g1386
(idivisor
TwoPDivisor
p3150
(dp3151
g1376
I-9
sg1377
I423
sbtp3152
sg877
(g1473
(idivisor
TwoPDivisor
p3153
(dp3154
g1376
I-9
sg1377
I413
sbtp3155
sg365
(g1458
(idivisor
TwoPDivisor
p3156
(dp3157
g1376
I-9
sg1377
I478
sbtp3158
sg739
(g1569
(idivisor
TwoPDivisor
p3159
(dp3160
g1376
I-9
sg1377
I451
sbtp3161
sg1313
(g1427
(idivisor
TwoPDivisor
p3162
(dp3163
g1376
I-9
sg1377
I422
sbtp3164
sg1141
(g1486
(idivisor
TwoPDivisor
p3165
(dp3166
g1376
I-9
sg1377
I411
sbtp3167
sg1310
(g1373
(idivisor
TwoPDivisor
p3168
(dp3169
g1376
I-9
sg1377
I410
sbtp3170
sg77
(g1672
(idivisor
TwoPDivisor
p3171
(dp3172
g1376
I-6
sg1377
I427
sbtp3173
sg604
(g1409
(idivisor
TwoPDivisor
p3174
(dp3175
g1376
I-9
sg1377
I432
sbtp3176
sg171
(g1545
(idivisor
TwoPDivisor
p3177
(dp3178
g1376
I-9
sg1377
I418
sbtp3179
sg153
(g1935
(idivisor
TwoPDivisor
p3180
(dp3181
g1376
I-8
sg1377
I469
sbtp3182
sg988
(g1540
(idivisor
TwoPDivisor
p3183
(dp3184
g1376
I-9
sg1377
I431
sbtp3185
sg1117
(g1481
(idivisor
TwoPDivisor
p3186
(dp3187
g1376
I-9
sg1377
I410
sbtp3188
sg155
(g2709
(idivisor
TwoPDivisor
p3189
(dp3190
g1376
I-8
sg1377
I476
sbtp3191
sg778
(g1535
(idivisor
TwoPDivisor
p3192
(dp3193
g1376
I-9
sg1377
I426
sbtp3194
sg704
(g1442
(idivisor
TwoPDivisor
p3195
(dp3196
g1376
I-9
sg1377
I420
sbtp3197
sg670
(g1419
(idivisor
TwoPDivisor
p3198
(dp3199
g1376
I-9
sg1377
I478
sbtp3200
sg79
(g3116
(idivisor
TwoPDivisor
p3201
(dp3202
g1376
I-5
sg1377
I428
sbtp3203
sg529
(g1458
(idivisor
TwoPDivisor
p3204
(dp3205
g1376
I-9
sg1377
I471
sbtp3206
sg151
((idivisor
TwoPDivisor
p3207
(dp3208
g1376
I4
sg1377
I-9
sb(idivisor
TwoPDivisor
p3209
(dp3210
g1376
I-8
sg1377
I467
sbtp3211
sg1035
(g1569
(idivisor
TwoPDivisor
p3212
(dp3213
g1376
I-9
sg1377
I435
sbtp3214
sg1351
(g1527
(idivisor
TwoPDivisor
p3215
(dp3216
g1376
I-9
sg1377
I416
sbtp3217
sg750
(g1682
(idivisor
TwoPDivisor
p3218
(dp3219
g1376
I-9
sg1377
I417
sbtp3220
sg235
((idivisor
TwoPDivisor
p3221
(dp3222
g1376
I2
sg1377
I9
sb(idivisor
TwoPDivisor
p3223
(dp3224
g1376
I-8
sg1377
I449
sbtp3225
sg835
(g1682
(idivisor
TwoPDivisor
p3226
(dp3227
g1376
I-9
sg1377
I413
sbtp3228
sg202
(g2102
(idivisor
TwoPDivisor
p3229
(dp3230
g1376
I-9
sg1377
I480
sbtp3231
sg819
(g1409
(idivisor
TwoPDivisor
p3232
(dp3233
g1376
I-9
sg1377
I423
sbtp3234
sg26
(g1588
(idivisor
TwoPDivisor
p3235
(dp3236
g1376
I-9
sg1377
I437
sbtp3237
sg809
(g1427
(idivisor
TwoPDivisor
p3238
(dp3239
g1376
I-9
sg1377
I467
sbtp3240
sg1088
(g1458
(idivisor
TwoPDivisor
p3241
(dp3242
g1376
I-9
sg1377
I442
sbtp3243
sg1066
(g1427
(idivisor
TwoPDivisor
p3244
(dp3245
g1376
I-9
sg1377
I451
sbtp3246
sg1031
(g1394
(idivisor
TwoPDivisor
p3247
(dp3248
g1376
I-9
sg1377
I419
sbtp3249
sg808
(g1386
(idivisor
TwoPDivisor
p3250
(dp3251
g1376
I-9
sg1377
I463
sbtp3252
sg222
(g1738
(idivisor
TwoPDivisor
p3253
(dp3254
g1376
I-9
sg1377
I426
sbtp3255
sg237
((idivisor
TwoPDivisor
p3256
(dp3257
g1376
I7
sg1377
I2
sb(idivisor
TwoPDivisor
p3258
(dp3259
g1376
I-8
sg1377
I451
sbtp3260
sg1013
(g1409
(idivisor
TwoPDivisor
p3261
(dp3262
g1376
I-9
sg1377
I412
sbtp3263
sg28
((idivisor
TwoPDivisor
p3264
(dp3265
g1376
I6
sg1377
I20
sb(idivisor
TwoPDivisor
p3266
(dp3267
g1376
I-7
sg1377
I437
sbtp3268
sg1173
(g1373
(idivisor
TwoPDivisor
p3269
(dp3270
g1376
I-9
sg1377
I429
sbtp3271
sg394
(g1633
(idivisor
TwoPDivisor
p3272
(dp3273
g1376
I-8
sg1377
I451
sbtp3274
sg393
(g1486
(idivisor
TwoPDivisor
p3275
(dp3276
g1376
I-9
sg1377
I448
sbtp3277
sg701
(g1453
(idivisor
TwoPDivisor
p3278
(dp3279
g1376
I-9
sg1377
I416
sbtp3280
sg876
(g1442
(idivisor
TwoPDivisor
p3281
(dp3282
g1376
I-9
sg1377
I412
sbtp3283
sg710
(g1481
(idivisor
TwoPDivisor
p3284
(dp3285
g1376
I-9
sg1377
I434
sbtp3286
sg764
(g1458
(idivisor
TwoPDivisor
p3287
(dp3288
g1376
I-9
sg1377
I461
sbtp3289
sg676
(g1453
(idivisor
TwoPDivisor
p3290
(dp3291
g1376
I-9
sg1377
I417
sbtp3292
sg784
(g1569
(idivisor
TwoPDivisor
p3293
(dp3294
g1376
I-9
sg1377
I449
sbtp3295
sg1009
(g1427
(idivisor
TwoPDivisor
p3296
(dp3297
g1376
I-9
sg1377
I455
sbtp3298
sg450
(g2170
(idivisor
TwoPDivisor
p3299
(dp3300
g1376
I-9
sg1377
I422
sbtp3301
sg1108
(g1399
(idivisor
TwoPDivisor
p3302
(dp3303
g1376
I-9
sg1377
I420
sbtp3304
sg1317
(g1386
(idivisor
TwoPDivisor
p3305
(dp3306
g1376
I-9
sg1377
I418
sbtp3307
sg1292
(g1373
(idivisor
TwoPDivisor
p3308
(dp3309
g1376
I-9
sg1377
I413
sbtp3310
sg27
(g1667
(idivisor
TwoPDivisor
p3311
(dp3312
g1376
I-8
sg1377
I437
sbtp3313
sg24
((idivisor
TwoPDivisor
p3314
(dp3315
g1376
I3
sg1377
I27
sb(idivisor
TwoPDivisor
p3316
(dp3317
g1376
I-5
sg1377
I431
sbtp3318
sg183
(g1682
(idivisor
TwoPDivisor
p3319
(dp3320
g1376
I-9
sg1377
I435
sbtp3321
sg950
(g1409
(idivisor
TwoPDivisor
p3322
(dp3323
g1376
I-9
sg1377
I416
sbtp3324
sg659
(g1481
(idivisor
TwoPDivisor
p3325
(dp3326
g1376
I-9
sg1377
I436
sbtp3327
sg254
(g1381
(idivisor
TwoPDivisor
p3328
(dp3329
g1376
I-9
sg1377
I411
sbtp3330
sg973
(g1569
(idivisor
TwoPDivisor
p3331
(dp3332
g1376
I-9
sg1377
I439
sbtp3333
sg1133
(g1569
(idivisor
TwoPDivisor
p3334
(dp3335
g1376
I-9
sg1377
I427
sbtp3336
sg1213
(g1527
(idivisor
TwoPDivisor
p3337
(dp3338
g1376
I-9
sg1377
I439
sbtp3339
sg256
(g1580
(idivisor
TwoPDivisor
p3340
(dp3341
g1376
I-8
sg1377
I413
sbtp3342
sg264
(g1497
(idivisor
TwoPDivisor
p3343
(dp3344
g1376
I-9
sg1377
I424
sbtp3345
sg971
(g1399
(idivisor
TwoPDivisor
p3346
(dp3347
g1376
I-9
sg1377
I430
sbtp3348
sg860
(g1409
(idivisor
TwoPDivisor
p3349
(dp3350
g1376
I-9
sg1377
I421
sbtp3351
sg364
(g1373
(idivisor
TwoPDivisor
p3352
(dp3353
g1376
I-9
sg1377
I471
sbtp3354
sg734
(g1481
(idivisor
TwoPDivisor
p3355
(dp3356
g1376
I-9
sg1377
I433
sbtp3357
sg840
(g1409
(idivisor
TwoPDivisor
p3358
(dp3359
g1376
I-9
sg1377
I422
sbtp3360
sg515
(g1682
(idivisor
TwoPDivisor
p3361
(dp3362
g1376
I-9
sg1377
I426
sbtp3363
sg1039
(g1427
(idivisor
TwoPDivisor
p3364
(dp3365
g1376
I-9
sg1377
I453
sbtp3366
sg259
(g2048
(idivisor
TwoPDivisor
p3367
(dp3368
g1376
I-9
sg1377
I417
sbtp3369
sg138
((idivisor
TwoPDivisor
p3370
(dp3371
g1376
I3
sg1377
I20
sb(idivisor
TwoPDivisor
p3372
(dp3373
g1376
I-6
sg1377
I437
sbtp3374
sg1045
(g1394
(idivisor
TwoPDivisor
p3375
(dp3376
g1376
I-9
sg1377
I418
sbtp3377
sg446
(g1955
(idivisor
TwoPDivisor
p3378
(dp3379
g1376
I-9
sg1377
I418
sbtp3380
sg102
(g1935
(idivisor
TwoPDivisor
p3381
(dp3382
g1376
I-8
sg1377
I470
sbtp3383
sg1036
(g1373
(idivisor
TwoPDivisor
p3384
(dp3385
g1376
I-9
sg1377
I441
sbtp3386
sg43
((idivisor
TwoPDivisor
p3387
(dp3388
g1376
I6
sg1377
I-5
sb(idivisor
TwoPDivisor
p3389
(dp3390
g1376
I-7
sg1377
I462
sbtp3391
sg787
(g1386
(idivisor
TwoPDivisor
p3392
(dp3393
g1376
I-9
sg1377
I464
sbtp3394
sg709
(g1535
(idivisor
TwoPDivisor
p3395
(dp3396
g1376
I-9
sg1377
I429
sbtp3397
sg162
(g1527
(idivisor
TwoPDivisor
p3398
(dp3399
g1376
I-9
sg1377
I504
sbtp3400
sg722
(g1738
(idivisor
TwoPDivisor
p3401
(dp3402
g1376
I-9
sg1377
I410
sbtp3403
sg725
(g1453
(idivisor
TwoPDivisor
p3404
(dp3405
g1376
I-9
sg1377
I415
sbtp3406
sg882
(g1481
(idivisor
TwoPDivisor
p3407
(dp3408
g1376
I-9
sg1377
I426
sbtp3409
sg117
(g1779
(idivisor
TwoPDivisor
p3410
(dp3411
g1376
I-9
sg1377
I412
sbtp3412
sg997
(g1505
(idivisor
TwoPDivisor
p3413
(dp3414
g1376
I-9
sg1377
I412
sbtp3415
sg247
((idivisor
TwoPDivisor
p3416
(dp3417
g1376
I4
sg1377
I-27
sb(idivisor
TwoPDivisor
p3418
(dp3419
g1376
I-1
sg1377
I476
sbtp3420
sg555
(g1540
(idivisor
TwoPDivisor
p3421
(dp3422
g1376
I-9
sg1377
I451
sbtp3423
sg1006
(g1373
(idivisor
TwoPDivisor
p3424
(dp3425
g1376
I-9
sg1377
I443
sbtp3426
sg276
((idivisor
TwoPDivisor
p3427
(dp3428
g1376
I3
sg1377
I11
sb(idivisor
TwoPDivisor
p3429
(dp3430
g1376
I-7
sg1377
I444
sbtp3431
sg1114
(g1427
(idivisor
TwoPDivisor
p3432
(dp3433
g1376
I-9
sg1377
I447
sbtp3434
sg484
(g1463
(idivisor
TwoPDivisor
p3435
(dp3436
g1376
I-9
sg1377
I426
sbtp3437
sg573
(g1442
(idivisor
TwoPDivisor
p3438
(dp3439
g1376
I-9
sg1377
I425
sbtp3440
sg1171
(g1540
(idivisor
TwoPDivisor
p3441
(dp3442
g1376
I-9
sg1377
I416
sbtp3443
sg1336
(g1458
(idivisor
TwoPDivisor
p3444
(dp3445
g1376
I-9
sg1377
I410
sbtp3446
sg1298
(g1373
(idivisor
TwoPDivisor
p3447
(dp3448
g1376
I-9
sg1377
I412
sbtp3449
sg98
(g3387
(idivisor
TwoPDivisor
p3450
(dp3451
g1376
I-7
sg1377
I461
sbtp3452
sg61
(g3021
(idivisor
TwoPDivisor
p3453
(dp3454
g1376
I-9
sg1377
I411
sbtp3455
sg542
(g1453
(idivisor
TwoPDivisor
p3456
(dp3457
g1376
I-9
sg1377
I422
sbtp3458
sg1229
(g1527
(idivisor
TwoPDivisor
p3459
(dp3460
g1376
I-9
sg1377
I437
sbtp3461
sg989
(g1569
(idivisor
TwoPDivisor
p3462
(dp3463
g1376
I-9
sg1377
I438
sbtp3464
sg1356
(g1419
(idivisor
TwoPDivisor
p3465
(dp3466
g1376
I-9
sg1377
I416
sbtp3467
sg81
(g1588
(idivisor
TwoPDivisor
p3468
(dp3469
g1376
I-9
sg1377
I436
sbtp3470
sg455
(g1473
(idivisor
TwoPDivisor
p3471
(dp3472
g1376
I-9
sg1377
I430
sbtp3473
sg984
(g1481
(idivisor
TwoPDivisor
p3474
(dp3475
g1376
I-9
sg1377
I420
sbtp3476
sg92
(g2147
(idivisor
TwoPDivisor
p3477
(dp3478
g1376
I-9
sg1377
I453
sbtp3479
sg1218
(g1458
(idivisor
TwoPDivisor
p3480
(dp3481
g1376
I-9
sg1377
I429
sbtp3482
sg414
(g1497
(idivisor
TwoPDivisor
p3483
(dp3484
g1376
I-9
sg1377
I420
sbtp3485
sg275
(g1535
(idivisor
TwoPDivisor
p3486
(dp3487
g1376
I-9
sg1377
I443
sbtp3488
sg63
(g1779
(idivisor
TwoPDivisor
p3489
(dp3490
g1376
I-8
sg1377
I412
sbtp3491
sg1266
(g1569
(idivisor
TwoPDivisor
p3492
(dp3493
g1376
I-9
sg1377
I411
sbtp3494
sg681
(g1414
(idivisor
TwoPDivisor
p3495
(dp3496
g1376
I-9
sg1377
I426
sbtp3497
sg1137
(g1427
(idivisor
TwoPDivisor
p3498
(dp3499
g1376
I-9
sg1377
I445
sbtp3500
sg453
(g1682
(idivisor
TwoPDivisor
p3501
(dp3502
g1376
I-9
sg1377
I428
sbtp3503
sg975
(g1458
(idivisor
TwoPDivisor
p3504
(dp3505
g1376
I-9
sg1377
I450
sbtp3506
sg612
(g1373
(idivisor
TwoPDivisor
p3507
(dp3508
g1376
I-9
sg1377
I462
sbtp3509
sg338
(g1713
(idivisor
TwoPDivisor
p3510
(dp3511
g1376
I-9
sg1377
I416
sbtp3512
sg955
(g1399
(idivisor
TwoPDivisor
p3513
(dp3514
g1376
I-9
sg1377
I431
sbtp3515
sg362
(g1569
(idivisor
TwoPDivisor
p3516
(dp3517
g1376
I-9
sg1377
I464
sbtp3518
sg1211
(g1386
(idivisor
TwoPDivisor
p3519
(dp3520
g1376
I-9
sg1377
I434
sbtp3521
sg369
(g1419
(idivisor
TwoPDivisor
p3522
(dp3523
g1376
I-9
sg1377
I495
sbtp3524
sg336
(g1545
(idivisor
TwoPDivisor
p3525
(dp3526
g1376
I-9
sg1377
I414
sbtp3527
sg945
(g1427
(idivisor
TwoPDivisor
p3528
(dp3529
g1376
I-9
sg1377
I459
sbtp3530
sg569
(g2170
(idivisor
TwoPDivisor
p3531
(dp3532
g1376
I-9
sg1377
I418
sbtp3533
sg384
(g1682
(idivisor
TwoPDivisor
p3534
(dp3535
g1376
I-9
sg1377
I430
sbtp3536
sg1233
(g1458
(idivisor
TwoPDivisor
p3537
(dp3538
g1376
I-9
sg1377
I427
sbtp3539
sg466
(g1569
(idivisor
TwoPDivisor
p3540
(dp3541
g1376
I-9
sg1377
I461
sbtp3542
sg505
(g1713
(idivisor
TwoPDivisor
p3543
(dp3544
g1376
I-9
sg1377
I411
sbtp3545
sg1043
(g1535
(idivisor
TwoPDivisor
p3546
(dp3547
g1376
I-9
sg1377
I411
sbtp3548
sg1244
(g1419
(idivisor
TwoPDivisor
p3549
(dp3550
g1376
I-9
sg1377
I436
sbtp3551
sg392
(g1394
(idivisor
TwoPDivisor
p3552
(dp3553
g1376
I-9
sg1377
I447
sbtp3554
sg1193
(g1386
(idivisor
TwoPDivisor
p3555
(dp3556
g1376
I-9
sg1377
I436
sbtp3557
sg142
((idivisor
TwoPDivisor
p3558
(dp3559
g1376
I4
sg1377
I12
sb(idivisor
TwoPDivisor
p3560
(dp3561
g1376
I-6
sg1377
I444
sbtp3562
sg72
(g1653
(idivisor
TwoPDivisor
p3563
(dp3564
g1376
I-7
sg1377
I421
sbtp3565
sg1287
(g1458
(idivisor
TwoPDivisor
p3566
(dp3567
g1376
I-9
sg1377
I419
sbtp3568
sg814
(g1682
(idivisor
TwoPDivisor
p3569
(dp3570
g1376
I-9
sg1377
I414
sbtp3571
sg376
(g2196
(idivisor
TwoPDivisor
p3572
(dp3573
g1376
I-9
sg1377
I418
sbtp3574
sg780
(g1394
(idivisor
TwoPDivisor
p3575
(dp3576
g1376
I-9
sg1377
I433
sbtp3577
sg322
(g1432
(idivisor
TwoPDivisor
p3578
(dp3579
g1376
I-8
sg1377
I460
sbtp3580
sg1248
(g1386
(idivisor
TwoPDivisor
p3581
(dp3582
g1376
I-9
sg1377
I429
sbtp3583
sg504
(g2048
(idivisor
TwoPDivisor
p3584
(dp3585
g1376
I-9
sg1377
I410
sbtp3586
sg1018
(g1399
(idivisor
TwoPDivisor
p3587
(dp3588
g1376
I-9
sg1377
I427
sbtp3589
sg167
(g1381
(idivisor
TwoPDivisor
p3590
(dp3591
g1376
I-8
sg1377
I412
sbtp3592
sg1346
(g1427
(idivisor
TwoPDivisor
p3593
(dp3594
g1376
I-9
sg1377
I415
sbtp3595
sg172
(g2048
(idivisor
TwoPDivisor
p3596
(dp3597
g1376
I-9
sg1377
I419
sbtp3598
sg1104
(g1419
(idivisor
TwoPDivisor
p3599
(dp3600
g1376
I-9
sg1377
I451
sbtp3601
sg564
(g2196
(idivisor
TwoPDivisor
p3602
(dp3603
g1376
I-9
sg1377
I412
sbtp3604
sg422
(g1473
(idivisor
TwoPDivisor
p3605
(dp3606
g1376
I-9
sg1377
I431
sbtp3607
sg475
(g1713
(idivisor
TwoPDivisor
p3608
(dp3609
g1376
I-9
sg1377
I412
sbtp3610
sg806
(g1373
(idivisor
TwoPDivisor
p3611
(dp3612
g1376
I-9
sg1377
I454
sbtp3613
sg357
(g1486
(idivisor
TwoPDivisor
p3614
(dp3615
g1376
I-9
sg1377
I449
sbtp3616
sg1023
(g1386
(idivisor
TwoPDivisor
p3617
(dp3618
g1376
I-9
sg1377
I451
sbtp3619
sg1124
(g1458
(idivisor
TwoPDivisor
p3620
(dp3621
g1376
I-9
sg1377
I439
sbtp3622
sg1350
(g1427
(idivisor
TwoPDivisor
p3623
(dp3624
g1376
I-9
sg1377
I414
sbtp3625
sg661
(g1486
(idivisor
TwoPDivisor
p3626
(dp3627
g1376
I-9
sg1377
I439
sbtp3628
sg289
(g1458
(idivisor
TwoPDivisor
p3629
(dp3630
g1376
I-9
sg1377
I480
sbtp3631
sg805
(g1569
(idivisor
TwoPDivisor
p3632
(dp3633
g1376
I-9
sg1377
I448
sbtp3634
sg312
(g1473
(idivisor
TwoPDivisor
p3635
(dp3636
g1376
I-9
sg1377
I434
sbtp3637
sg934
(g1409
(idivisor
TwoPDivisor
p3638
(dp3639
g1376
I-9
sg1377
I417
sbtp3640
sg1075
(g1373
(idivisor
TwoPDivisor
p3641
(dp3642
g1376
I-9
sg1377
I438
sbtp3643
sg440
(g1604
(idivisor
TwoPDivisor
p3644
(dp3645
g1376
I-9
sg1377
I410
sbtp3646
sg1258
(g1419
(idivisor
TwoPDivisor
p3647
(dp3648
g1376
I-9
sg1377
I434
sbtp3649
sg644
(g1419
(idivisor
TwoPDivisor
p3650
(dp3651
g1376
I-9
sg1377
I479
sbtp3652
sg221
(g1497
(idivisor
TwoPDivisor
p3653
(dp3654
g1376
I-9
sg1377
I425
sbtp3655
sg499
(g1458
(idivisor
TwoPDivisor
p3656
(dp3657
g1376
I-9
sg1377
I472
sbtp3658
sg242
(g1432
(idivisor
TwoPDivisor
p3659
(dp3660
g1376
I-8
sg1377
I462
sbtp3661
sg437
(g1427
(idivisor
TwoPDivisor
p3662
(dp3663
g1376
I-9
sg1377
I486
sbtp3664
sg790
(g1419
(idivisor
TwoPDivisor
p3665
(dp3666
g1376
I-9
sg1377
I471
sbtp3667
sg1074
(g1569
(idivisor
TwoPDivisor
p3668
(dp3669
g1376
I-9
sg1377
I432
sbtp3670
sg223
(g2004
(idivisor
TwoPDivisor
p3671
(dp3672
g1376
I-9
sg1377
I427
sbtp3673
sg1159
(g1527
(idivisor
TwoPDivisor
p3674
(dp3675
g1376
I-9
sg1377
I445
sbtp3676
sg192
(g3256
(idivisor
TwoPDivisor
p3677
(dp3678
g1376
I-8
sg1377
I452
sbtp3679
sg18
((idivisor
TwoPDivisor
p3680
(dp3681
g1376
I2
sg1377
I36
sb(idivisor
TwoPDivisor
p3682
(dp3683
g1376
I-4
sg1377
I422
sbtp3684
sg720
(g1527
(idivisor
TwoPDivisor
p3685
(dp3686
g1376
I-1
sg1377
I467
sbtp3687
sg101
(g1904
(idivisor
TwoPDivisor
p3688
(dp3689
g1376
I-9
sg1377
I470
sbtp3690
sg1128
(g1419
(idivisor
TwoPDivisor
p3691
(dp3692
g1376
I-9
sg1377
I449
sbtp3693
sg682
(g1505
(idivisor
TwoPDivisor
p3694
(dp3695
g1376
I-9
sg1377
I428
sbtp3696
sg194
((idivisor
TwoPDivisor
p3697
(dp3698
g1376
I3
sg1377
I0
sb(idivisor
TwoPDivisor
p3699
(dp3700
g1376
I-8
sg1377
I458
sbtp3701
sg1299
(g1458
(idivisor
TwoPDivisor
p3702
(dp3703
g1376
I-9
sg1377
I417
sbtp3704
sg128
(g1955
(idivisor
TwoPDivisor
p3705
(dp3706
g1376
I-5
sg1377
I422
sbtp3707
sg608
(g1486
(idivisor
TwoPDivisor
p3708
(dp3709
g1376
I-9
sg1377
I441
sbtp3710
sg146
(g1468
(idivisor
TwoPDivisor
p3711
(dp3712
g1376
I-7
sg1377
I452
sbtp3713
sg548
(g1505
(idivisor
TwoPDivisor
p3714
(dp3715
g1376
I-9
sg1377
I433
sbtp3716
sg308
(g1453
(idivisor
TwoPDivisor
p3717
(dp3718
g1376
I-9
sg1377
I429
sbtp3719
sg501
(g1427
(idivisor
TwoPDivisor
p3720
(dp3721
g1376
I-1
sg1377
I476
sbtp3722
sg1148
(g1427
(idivisor
TwoPDivisor
p3723
(dp3724
g1376
I-9
sg1377
I444
sbtp3725
sg411
(g1653
(idivisor
TwoPDivisor
p3726
(dp3727
g1376
I-9
sg1377
I415
sbtp3728
sg852
(g1527
(idivisor
TwoPDivisor
p3729
(dp3730
g1376
I-9
sg1377
I467
sbtp3731
sg59
(g2458
(idivisor
TwoPDivisor
p3732
(dp3733
g1376
I-1
sg1377
I511
sbtp3734
sg1261
(g1458
(idivisor
TwoPDivisor
p3735
(dp3736
g1376
I-9
sg1377
I423
sbtp3737
sg105
(g3124
(idivisor
TwoPDivisor
p3738
(dp3739
g1376
I-8
sg1377
I478
sbtp3740
sg1203
(g1427
(idivisor
TwoPDivisor
p3741
(dp3742
g1376
I-9
sg1377
I438
sbtp3743
sg1276
(g1386
(idivisor
TwoPDivisor
p3744
(dp3745
g1376
I-9
sg1377
I425
sbtp3746
sg1044
(g1481
(idivisor
TwoPDivisor
p3747
(dp3748
g1376
I-9
sg1377
I416
sbtp3749
sg231
(g1414
(idivisor
TwoPDivisor
p3750
(dp3751
g1376
I-8
sg1377
I439
sbtp3752
sg1200
(g1373
(idivisor
TwoPDivisor
p3753
(dp3754
g1376
I-9
sg1377
I426
sbtp3755
sg692
(g1458
(idivisor
TwoPDivisor
p3756
(dp3757
g1376
I-9
sg1377
I464
sbtp3758
sg1277
(g1427
(idivisor
TwoPDivisor
p3759
(dp3760
g1376
I-9
sg1377
I428
sbtp3761
sg849
(g1458
(idivisor
TwoPDivisor
p3762
(dp3763
g1376
I-9
sg1377
I457
sbtp3764
sg1232
(g1373
(idivisor
TwoPDivisor
p3765
(dp3766
g1376
I-9
sg1377
I422
sbtp3767
sg371
(g1604
(idivisor
TwoPDivisor
p3768
(dp3769
g1376
I-9
sg1377
I412
sbtp3770
sg360
(g1540
(idivisor
TwoPDivisor
p3771
(dp3772
g1376
I-9
sg1377
I457
sbtp3773
sg1283
(g1427
(idivisor
TwoPDivisor
p3774
(dp3775
g1376
I-9
sg1377
I427
sbtp3776
sg1079
(g1527
(idivisor
TwoPDivisor
p3777
(dp3778
g1376
I-9
sg1377
I452
sbtp3779
sg389
(g1409
(idivisor
TwoPDivisor
p3780
(dp3781
g1376
I-9
sg1377
I439
sbtp3782
sg1086
(g1569
(idivisor
TwoPDivisor
p3783
(dp3784
g1376
I-9
sg1377
I431
sbtp3785
sg159
(g1915
(idivisor
TwoPDivisor
p3786
(dp3787
g1376
I-9
sg1377
I488
sbtp3788
sg743
(g1427
(idivisor
TwoPDivisor
p3789
(dp3790
g1376
I-9
sg1377
I470
sbtp3791
sg913
(g1442
(idivisor
TwoPDivisor
p3792
(dp3793
g1376
I-9
sg1377
I410
sbtp3794
sg282
((idivisor
TwoPDivisor
p3795
(dp3796
g1376
I8
sg1377
I-7
sb(idivisor
TwoPDivisor
p3797
(dp3798
g1376
I-9
sg1377
I459
sbtp3799
sg1231
(g1569
(idivisor
TwoPDivisor
p3800
(dp3801
g1376
I-9
sg1377
I416
sbtp3802
sg595
(g2004
(idivisor
TwoPDivisor
p3803
(dp3804
g1376
I-9
sg1377
I416
sbtp3805
sg828
(g1458
(idivisor
TwoPDivisor
p3806
(dp3807
g1376
I-9
sg1377
I458
sbtp3808
sg1032
(g1486
(idivisor
TwoPDivisor
p3809
(dp3810
g1376
I-9
sg1377
I420
sbtp3811
sg293
(g1419
(idivisor
TwoPDivisor
p3812
(dp3813
g1376
I-1
sg1377
I494
sbtp3814
sg463
(g1399
(idivisor
TwoPDivisor
p3815
(dp3816
g1376
I-9
sg1377
I452
sbtp3817
sg1360
(g1427
(idivisor
TwoPDivisor
p3818
(dp3819
g1376
I-9
sg1377
I411
sbtp3820
sg285
((idivisor
TwoPDivisor
p3821
(dp3822
g1376
I2
sg1377
I-9
sb(idivisor
TwoPDivisor
p3823
(dp3824
g1376
I-9
sg1377
I467
sbtp3825
sg719
(g1427
(idivisor
TwoPDivisor
p3826
(dp3827
g1376
I-9
sg1377
I471
sbtp3828
sg1134
(g1373
(idivisor
TwoPDivisor
p3829
(dp3830
g1376
I-9
sg1377
I433
sbtp3831
sg1050
(g1373
(idivisor
TwoPDivisor
p3832
(dp3833
g1376
I-9
sg1377
I440
sbtp3834
sg345
(g2170
(idivisor
TwoPDivisor
p3835
(dp3836
g1376
I-9
sg1377
I425
sbtp3837
sg671
(g1955
(idivisor
TwoPDivisor
p3838
(dp3839
g1376
I-9
sg1377
I410
sbtp3840
sg766
(g1427
(idivisor
TwoPDivisor
p3841
(dp3842
g1376
I-9
sg1377
I469
sbtp3843
sg241
(g3795
(idivisor
TwoPDivisor
p3844
(dp3845
g1376
I-9
sg1377
I460
sbtp3846
sg770
(g1453
(idivisor
TwoPDivisor
p3847
(dp3848
g1376
I-9
sg1377
I413
sbtp3849
sg800
(g1481
(idivisor
TwoPDivisor
p3850
(dp3851
g1376
I-9
sg1377
I430
sbtp3852
sg561
(g1527
(idivisor
TwoPDivisor
p3853
(dp3854
g1376
I-1
sg1377
I476
sbtp3855
sg423
(g1414
(idivisor
TwoPDivisor
p3856
(dp3857
g1376
I-9
sg1377
I435
sbtp3858
sg169
(g1580
(idivisor
TwoPDivisor
p3859
(dp3860
g1376
I-6
sg1377
I413
sbtp3861
sg49
((idivisor
TwoPDivisor
p3862
(dp3863
g1376
I8
sg1377
I-22
sb(idivisor
TwoPDivisor
p3864
(dp3865
g1376
I-9
sg1377
I479
sbtp3866
sg1111
(g1373
(idivisor
TwoPDivisor
p3867
(dp3868
g1376
I-9
sg1377
I435
sbtp3869
sg1025
(g1527
(idivisor
TwoPDivisor
p3870
(dp3871
g1376
I-9
sg1377
I456
sbtp3872
sg760
(g1399
(idivisor
TwoPDivisor
p3873
(dp3874
g1376
I-9
sg1377
I441
sbtp3875
sg11
((idivisor
TwoPDivisor
p3876
(dp3877
g1376
I2
sg1377
I45
sb(idivisor
TwoPDivisor
p3878
(dp3879
g1376
I-4
sg1377
I413
sbtp3880
sg1167
(g1427
(idivisor
TwoPDivisor
p3881
(dp3882
g1376
I-9
sg1377
I442
sbtp3883
sg347
(g1463
(idivisor
TwoPDivisor
p3884
(dp3885
g1376
I-9
sg1377
I430
sbtp3886
sg249
(g1386
(idivisor
TwoPDivisor
p3887
(dp3888
g1376
I-9
sg1377
I488
sbtp3889
sg1217
(g1373
(idivisor
TwoPDivisor
p3890
(dp3891
g1376
I-9
sg1377
I424
sbtp3892
sg227
(g1682
(idivisor
TwoPDivisor
p3893
(dp3894
g1376
I-9
sg1377
I434
sbtp3895
sg402
(g1386
(idivisor
TwoPDivisor
p3896
(dp3897
g1376
I-1
sg1377
I476
sbtp3898
sg869
(g1458
(idivisor
TwoPDivisor
p3899
(dp3900
g1376
I-9
sg1377
I456
sbtp3901
sg89
((idivisor
TwoPDivisor
p3902
(dp3903
g1376
I5
sg1377
I12
sb(idivisor
TwoPDivisor
p3904
(dp3905
g1376
I-6
sg1377
I444
sbtp3906
sg352
(g1505
(idivisor
TwoPDivisor
p3907
(dp3908
g1376
I-9
sg1377
I439
sbtp3909
sg1046
(g1486
(idivisor
TwoPDivisor
p3910
(dp3911
g1376
I-9
sg1377
I419
sbtp3912
sg668
(g1427
(idivisor
TwoPDivisor
p3913
(dp3914
g1376
I-1
sg1377
I467
sbtp3915
sg1091
(g1527
(idivisor
TwoPDivisor
p3916
(dp3917
g1376
I-9
sg1377
I451
sbtp3918
sg418
(g1453
(idivisor
TwoPDivisor
p3919
(dp3920
g1376
I-9
sg1377
I426
sbtp3921
sg1156
(g1458
(idivisor
TwoPDivisor
p3922
(dp3923
g1376
I-9
sg1377
I436
sbtp3924
sg337
(g2048
(idivisor
TwoPDivisor
p3925
(dp3926
g1376
I-9
sg1377
I415
sbtp3927
sg804
(g1540
(idivisor
TwoPDivisor
p3928
(dp3929
g1376
I-9
sg1377
I441
sbtp3930
sg1150
(g1419
(idivisor
TwoPDivisor
p3931
(dp3932
g1376
I-9
sg1377
I447
sbtp3933
sg1238
(g1569
(idivisor
TwoPDivisor
p3934
(dp3935
g1376
I-9
sg1377
I415
sbtp3936
sg444
(g1653
(idivisor
TwoPDivisor
p3937
(dp3938
g1376
I-9
sg1377
I414
sbtp3939
sg724
(g2170
(idivisor
TwoPDivisor
p3940
(dp3941
g1376
I-9
sg1377
I412
sbtp3942
sg843
(g1394
(idivisor
TwoPDivisor
p3943
(dp3944
g1376
I-9
sg1377
I430
sbtp3945
sg284
(g1519
(idivisor
TwoPDivisor
p3946
(dp3947
g1376
I-9
sg1377
I464
sbtp3948
sg693
(g1386
(idivisor
TwoPDivisor
p3949
(dp3950
g1376
I-9
sg1377
I469
sbtp3951
sg383
(g1463
(idivisor
TwoPDivisor
p3952
(dp3953
g1376
I-9
sg1377
I429
sbtp3954
sg473
(g1545
(idivisor
TwoPDivisor
p3955
(dp3956
g1376
I-9
sg1377
I410
sbtp3957
sg1073
(g1540
(idivisor
TwoPDivisor
p3958
(dp3959
g1376
I-9
sg1377
I425
sbtp3960
sg593
(g1497
(idivisor
TwoPDivisor
p3961
(dp3962
g1376
I-9
sg1377
I414
sbtp3963
sg1279
(g1419
(idivisor
TwoPDivisor
p3964
(dp3965
g1376
I-9
sg1377
I431
sbtp3966
sg427
(g1481
(idivisor
TwoPDivisor
p3967
(dp3968
g1376
I-9
sg1377
I444
sbtp3969
sg1267
(g1373
(idivisor
TwoPDivisor
p3970
(dp3971
g1376
I-9
sg1377
I417
sbtp3972
sg188
(g1556
(idivisor
TwoPDivisor
p3973
(dp3974
g1376
I-8
sg1377
I443
sbtp3975
sg274
(g1409
(idivisor
TwoPDivisor
p3976
(dp3977
g1376
I-9
sg1377
I442
sbtp3978
sg549
(g1409
(idivisor
TwoPDivisor
p3979
(dp3980
g1376
I-9
sg1377
I434
sbtp3981
sg871
(g1427
(idivisor
TwoPDivisor
p3982
(dp3983
g1376
I-9
sg1377
I463
sbtp3984
sg451
(g1453
(idivisor
TwoPDivisor
p3985
(dp3986
g1376
I-9
sg1377
I425
sbtp3987
sg655
(g1414
(idivisor
TwoPDivisor
p3988
(dp3989
g1376
I-9
sg1377
I427
sbtp3990
sg84
((idivisor
TwoPDivisor
p3991
(dp3992
g1376
I5
sg1377
I20
sb(idivisor
TwoPDivisor
p3993
(dp3994
g1376
I-6
sg1377
I436
sbtp3995
sg922
(g1399
(idivisor
TwoPDivisor
p3996
(dp3997
g1376
I-9
sg1377
I433
sbtp3998
sg813
(g1463
(idivisor
TwoPDivisor
p3999
(dp4000
g1376
I-9
sg1377
I413
sbtp4001
sg329
(g1386
(idivisor
TwoPDivisor
p4002
(dp4003
g1376
I-9
sg1377
I486
sbtp4004
sg571
(g1463
(idivisor
TwoPDivisor
p4005
(dp4006
g1376
I-9
sg1377
I423
sbtp4007
sg965
(g1505
(idivisor
TwoPDivisor
p4008
(dp4009
g1376
I-9
sg1377
I414
sbtp4010
sg1225
(g1373
(idivisor
TwoPDivisor
p4011
(dp4012
g1376
I-9
sg1377
I423
sbtp4013
sg399
(g1814
(idivisor
TwoPDivisor
p4014
(dp4015
g1376
I-9
sg1377
I468
sbtp4016
sg1253
(g1373
(idivisor
TwoPDivisor
p4017
(dp4018
g1376
I-9
sg1377
I419
sbtp4019
sg1115
(g1527
(idivisor
TwoPDivisor
p4020
(dp4021
g1376
I-9
sg1377
I449
sbtp4022
sg977
(g1427
(idivisor
TwoPDivisor
p4023
(dp4024
g1376
I-9
sg1377
I457
sbtp4025
sg727
(g1682
(idivisor
TwoPDivisor
p4026
(dp4027
g1376
I-9
sg1377
I418
sbtp4028
sg1226
(g1458
(idivisor
TwoPDivisor
p4029
(dp4030
g1376
I-9
sg1377
I428
sbtp4031
sg533
(g1419
(idivisor
TwoPDivisor
p4032
(dp4033
g1376
I-9
sg1377
I486
sbtp4034
sg586
(g1458
(idivisor
TwoPDivisor
p4035
(dp4036
g1376
I-9
sg1377
I469
sbtp4037
sg740
(g1373
(idivisor
TwoPDivisor
p4038
(dp4039
g1376
I-9
sg1377
I457
sbtp4040
sg839
(g1505
(idivisor
TwoPDivisor
p4041
(dp4042
g1376
I-9
sg1377
I421
sbtp4043
sg361
(g1519
(idivisor
TwoPDivisor
p4044
(dp4045
g1376
I-9
sg1377
I462
sbtp4046
sg268
(g1453
(idivisor
TwoPDivisor
p4047
(dp4048
g1376
I-9
sg1377
I430
sbtp4049
sg910
(g1427
(idivisor
TwoPDivisor
p4050
(dp4051
g1376
I-9
sg1377
I461
sbtp4052
sg1019
(g1540
(idivisor
TwoPDivisor
p4053
(dp4054
g1376
I-9
sg1377
I429
sbtp4055
sg582
(g1399
(idivisor
TwoPDivisor
p4056
(dp4057
g1376
I-9
sg1377
I448
sbtp4058
sg572
(g1682
(idivisor
TwoPDivisor
p4059
(dp4060
g1376
I-9
sg1377
I424
sbtp4061
sg841
(g1535
(idivisor
TwoPDivisor
p4062
(dp4063
g1376
I-9
sg1377
I423
sbtp4064
sg585
(g1373
(idivisor
TwoPDivisor
p4065
(dp4066
g1376
I-9
sg1377
I463
sbtp4067
sg317
(g1481
(idivisor
TwoPDivisor
p4068
(dp4069
g1376
I-9
sg1377
I447
sbtp4070
sg902
(g1394
(idivisor
TwoPDivisor
p4071
(dp4072
g1376
I-9
sg1377
I427
sbtp4073
sg1169
(g1419
(idivisor
TwoPDivisor
p4074
(dp4075
g1376
I-9
sg1377
I445
sbtp4076
sg333
(g1693
(idivisor
TwoPDivisor
p4077
(dp4078
g1376
I-9
sg1377
I410
sbtp4079
sg521
(g1535
(idivisor
TwoPDivisor
p4080
(dp4081
g1376
I-9
sg1377
I436
sbtp4082
sg1339
(g1527
(idivisor
TwoPDivisor
p4083
(dp4084
g1376
I-9
sg1377
I419
sbtp4085
sg1240
(g1458
(idivisor
TwoPDivisor
p4086
(dp4087
g1376
I-9
sg1377
I426
sbtp4088
sg1125
(g1386
(idivisor
TwoPDivisor
p4089
(dp4090
g1376
I-9
sg1377
I443
sbtp4091
sg939
(g1399
(idivisor
TwoPDivisor
p4092
(dp4093
g1376
I-9
sg1377
I432
sbtp4094
sg863
(g1394
(idivisor
TwoPDivisor
p4095
(dp4096
g1376
I-9
sg1377
I429
sbtp4097
sg617
(g1419
(idivisor
TwoPDivisor
p4098
(dp4099
g1376
I-9
sg1377
I480
sbtp4100
sg430
(g1399
(idivisor
TwoPDivisor
p4101
(dp4102
g1376
I-9
sg1377
I453
sbtp4103
sg1343
(g1527
(idivisor
TwoPDivisor
p4104
(dp4105
g1376
I-9
sg1377
I418
sbtp4106
sg768
(g1419
(idivisor
TwoPDivisor
p4107
(dp4108
g1376
I-9
sg1377
I472
sbtp4109
sg1041
(g1419
(idivisor
TwoPDivisor
p4110
(dp4111
g1376
I-9
sg1377
I456
sbtp4112
sg944
(g1386
(idivisor
TwoPDivisor
p4113
(dp4114
g1376
I-9
sg1377
I456
sbtp4115
sg1318
(g1427
(idivisor
TwoPDivisor
p4116
(dp4117
g1376
I-9
sg1377
I421
sbtp4118
sg980
(g1414
(idivisor
TwoPDivisor
p4119
(dp4120
g1376
I-9
sg1377
I411
sbtp4121
sg900
(g1535
(idivisor
TwoPDivisor
p4122
(dp4123
g1376
I-9
sg1377
I420
sbtp4124
sg560
(g1427
(idivisor
TwoPDivisor
p4125
(dp4126
g1376
I-9
sg1377
I479
sbtp4127
sg1051
(g1458
(idivisor
TwoPDivisor
p4128
(dp4129
g1376
I-9
sg1377
I445
sbtp4130
sg1142
(g1399
(idivisor
TwoPDivisor
p4131
(dp4132
g1376
I-9
sg1377
I417
sbtp4133
sg1223
(g1540
(idivisor
TwoPDivisor
p4134
(dp4135
g1376
I-9
sg1377
I410
sbtp4136
sg1333
(g1427
(idivisor
TwoPDivisor
p4137
(dp4138
g1376
I-9
sg1377
I418
sbtp4139
sg678
(g1682
(idivisor
TwoPDivisor
p4140
(dp4141
g1376
I-9
sg1377
I420
sbtp4142
sg462
(g1486
(idivisor
TwoPDivisor
p4143
(dp4144
g1376
I-9
sg1377
I446
sbtp4145
sg730
(g1414
(idivisor
TwoPDivisor
p4146
(dp4147
g1376
I-9
sg1377
I424
sbtp4148
sg306
(g2004
(idivisor
TwoPDivisor
p4149
(dp4150
g1376
I-9
sg1377
I425
sbtp4151
sg706
(g1414
(idivisor
TwoPDivisor
p4152
(dp4153
g1376
I-9
sg1377
I425
sbtp4154
sg1005
(g1569
(idivisor
TwoPDivisor
p4155
(dp4156
g1376
I-9
sg1377
I437
sbtp4157
sg1118
(g1394
(idivisor
TwoPDivisor
p4158
(dp4159
g1376
I-9
sg1377
I412
sbtp4160
sg91
((idivisor
TwoPDivisor
p4161
(dp4162
g1376
I3
sg1377
I9
sb(idivisor
TwoPDivisor
p4163
(dp4164
g1376
I-6
sg1377
I449
sbtp4165
sg588
(g1427
(idivisor
TwoPDivisor
p4166
(dp4167
g1376
I-9
sg1377
I478
sbtp4168
sg218
(g1653
(idivisor
TwoPDivisor
p4169
(dp4170
g1376
I-9
sg1377
I420
sbtp4171
sg756
(g1535
(idivisor
TwoPDivisor
p4172
(dp4173
g1376
I-9
sg1377
I427
sbtp4174
sg749
(g1463
(idivisor
TwoPDivisor
p4175
(dp4176
g1376
I-9
sg1377
I416
sbtp4177
sg1329
(g1527
(idivisor
TwoPDivisor
p4178
(dp4179
g1376
I-9
sg1377
I421
sbtp4180
sg1206
(g1399
(idivisor
TwoPDivisor
p4181
(dp4182
g1376
I-9
sg1377
I410
sbtp4183
sg1347
(g1527
(idivisor
TwoPDivisor
p4184
(dp4185
g1376
I-9
sg1377
I417
sbtp4186
sg417
(g2170
(idivisor
TwoPDivisor
p4187
(dp4188
g1376
I-9
sg1377
I423
sbtp4189
sg534
(g1713
(idivisor
TwoPDivisor
p4190
(dp4191
g1376
I-9
sg1377
I410
sbtp4192
sg878
(g1414
(idivisor
TwoPDivisor
p4193
(dp4194
g1376
I-9
sg1377
I417
sbtp4195
sg662
(g1399
(idivisor
TwoPDivisor
p4196
(dp4197
g1376
I-9
sg1377
I445
sbtp4198
sg500
(g1386
(idivisor
TwoPDivisor
p4199
(dp4200
g1376
I-9
sg1377
I478
sbtp4201
sg634
(g1394
(idivisor
TwoPDivisor
p4202
(dp4203
g1376
I-9
sg1377
I439
sbtp4204
sg470
(g1427
(idivisor
TwoPDivisor
p4205
(dp4206
g1376
I-9
sg1377
I485
sbtp4207
sg1068
(g1419
(idivisor
TwoPDivisor
p4208
(dp4209
g1376
I-9
sg1377
I454
sbtp4210
sg1207
(g1540
(idivisor
TwoPDivisor
p4211
(dp4212
g1376
I-9
sg1377
I412
sbtp4213
sg1139
(g1419
(idivisor
TwoPDivisor
p4214
(dp4215
g1376
I-9
sg1377
I448
sbtp4216
sg122
(g1604
(idivisor
TwoPDivisor
p4217
(dp4218
g1376
I-9
sg1377
I418
sbtp4219
sg125
(g1713
(idivisor
TwoPDivisor
p4220
(dp4221
g1376
I-9
sg1377
I421
sbtp4222
sg1152
(g1399
(idivisor
TwoPDivisor
p4223
(dp4224
g1376
I-9
sg1377
I416
sbtp4225
sg1295
(g1427
(idivisor
TwoPDivisor
p4226
(dp4227
g1376
I-9
sg1377
I425
sbtp4228
sg33
((idivisor
TwoPDivisor
p4229
(dp4230
g1376
I6
sg1377
I12
sb(idivisor
TwoPDivisor
p4231
(dp4232
g1376
I-7
sg1377
I445
sbtp4233
sg1188
(g1399
(idivisor
TwoPDivisor
p4234
(dp4235
g1376
I-9
sg1377
I412
sbtp4236
sg1323
(g1427
(idivisor
TwoPDivisor
p4237
(dp4238
g1376
I-9
sg1377
I420
sbtp4239
sg130
(g1738
(idivisor
TwoPDivisor
p4240
(dp4241
g1376
I-9
sg1377
I428
sbtp4242
sg711
(g1394
(idivisor
TwoPDivisor
p4243
(dp4244
g1376
I-9
sg1377
I436
sbtp4245
sg1057
(g1481
(idivisor
TwoPDivisor
p4246
(dp4247
g1376
I-9
sg1377
I415
sbtp4248
sg458
(g1409
(idivisor
TwoPDivisor
p4249
(dp4250
g1376
I-9
sg1377
I437
sbtp4251
sg1105
(g1481
(idivisor
TwoPDivisor
p4252
(dp4253
g1376
I-9
sg1377
I411
sbtp4254
sg1256
(g1427
(idivisor
TwoPDivisor
p4255
(dp4256
g1376
I-9
sg1377
I431
sbtp4257
sg1110
(g1569
(idivisor
TwoPDivisor
p4258
(dp4259
g1376
I-9
sg1377
I429
sbtp4260
sg627
(g1442
(idivisor
TwoPDivisor
p4261
(dp4262
g1376
I-9
sg1377
I423
sbtp4263
sg238
(g1869
(idivisor
TwoPDivisor
p4264
(dp4265
g1376
I-7
sg1377
I452
sbtp4266
sg252
(g1419
(idivisor
TwoPDivisor
p4267
(dp4268
g1376
I-9
sg1377
I503
sbtp4269
sg1026
(g1419
(idivisor
TwoPDivisor
p4270
(dp4271
g1376
I-9
sg1377
I457
sbtp4272
sg1306
(g1386
(idivisor
TwoPDivisor
p4273
(dp4274
g1376
I-9
sg1377
I420
sbtp4275
sg794
(g1442
(idivisor
TwoPDivisor
p4276
(dp4277
g1376
I-9
sg1377
I416
sbtp4278
sg993
(g1427
(idivisor
TwoPDivisor
p4279
(dp4280
g1376
I-9
sg1377
I456
sbtp4281
sg119
(g1381
(idivisor
TwoPDivisor
p4282
(dp4283
g1376
I-7
sg1377
I412
sbtp4284
sg1270
(g1427
(idivisor
TwoPDivisor
p4285
(dp4286
g1376
I-9
sg1377
I429
sbtp4287
sg1335
(g1419
(idivisor
TwoPDivisor
p4288
(dp4289
g1376
I-9
sg1377
I421
sbtp4290
sg862
(g1481
(idivisor
TwoPDivisor
p4291
(dp4292
g1376
I-9
sg1377
I427
sbtp4293
sg324
(g3821
(idivisor
TwoPDivisor
p4294
(dp4295
g1376
I-1
sg1377
I458
sbtp4296
sg1185
(g1427
(idivisor
TwoPDivisor
p4297
(dp4298
g1376
I-9
sg1377
I440
sbtp4299
sg1358
(g1527
(idivisor
TwoPDivisor
p4300
(dp4301
g1376
I-9
sg1377
I414
sbtp4302
sg168
(g1693
(idivisor
TwoPDivisor
p4303
(dp4304
g1376
I-7
sg1377
I412
sbtp4305
sg675
(g2170
(idivisor
TwoPDivisor
p4306
(dp4307
g1376
I-9
sg1377
I414
sbtp4308
sg185
(g3370
(idivisor
TwoPDivisor
p4309
(dp4310
g1376
I-6
sg1377
I436
sbtp4311
sg883
(g1394
(idivisor
TwoPDivisor
p4312
(dp4313
g1376
I-9
sg1377
I428
sbtp4314
sg1332
(g1386
(idivisor
TwoPDivisor
p4315
(dp4316
g1376
I-9
sg1377
I415
sbtp4317
sg480
(g1738
(idivisor
TwoPDivisor
p4318
(dp4319
g1376
I-9
sg1377
I419
sbtp4320
sg1127
(g1527
(idivisor
TwoPDivisor
p4321
(dp4322
g1376
I-9
sg1377
I448
sbtp4323
sg941
(g1569
(idivisor
TwoPDivisor
p4324
(dp4325
g1376
I-9
sg1377
I441
sbtp4326
sg191
(g3221
(idivisor
TwoPDivisor
p4327
(dp4328
g1376
I-7
sg1377
I449
sbtp4329
sg104
(g3862
(idivisor
TwoPDivisor
p4330
(dp4331
g1376
I-9
sg1377
I478
sbtp4332
sg673
(g1738
(idivisor
TwoPDivisor
p4333
(dp4334
g1376
I-9
sg1377
I412
sbtp4335
sg650
(g1453
(idivisor
TwoPDivisor
p4336
(dp4337
g1376
I-9
sg1377
I418
sbtp4338
sg545
(g1442
(idivisor
TwoPDivisor
p4339
(dp4340
g1376
I-9
sg1377
I426
sbtp4341
sg1179
(g1399
(idivisor
TwoPDivisor
p4342
(dp4343
g1376
I-9
sg1377
I413
sbtp4344
sg143
(g4161
(idivisor
TwoPDivisor
p4345
(dp4346
g1376
I-7
sg1377
I449
sbtp4347
sg106
((idivisor
TwoPDivisor
p4348
(dp4349
g1376
I6
sg1377
I-22
sb(idivisor
TwoPDivisor
p4350
(dp4351
g1376
I-8
sg1377
I479
sbtp4352
sg1367
(g1419
(idivisor
TwoPDivisor
p4353
(dp4354
g1376
I-9
sg1377
I412
sbtp4355
sg4
((idivisor
TwoPDivisor
p4356
(dp4357
g1376
I1
sg1377
I54
sb(idivisor
TwoPDivisor
p4358
(dp4359
g1376
I-3
sg1377
I404
sbtp4360
sg506
(g1653
(idivisor
TwoPDivisor
p4361
(dp4362
g1376
I-9
sg1377
I412
sbtp4363
sg960
(g1386
(idivisor
TwoPDivisor
p4364
(dp4365
g1376
I-9
sg1377
I455
sbtp4366
sg1120
(g1399
(idivisor
TwoPDivisor
p4367
(dp4368
g1376
I-9
sg1377
I419
sbtp4369
sg62
(g1855
(idivisor
TwoPDivisor
p4370
(dp4371
g1376
I-9
sg1377
I412
sbtp4372
sg1251
(g1419
(idivisor
TwoPDivisor
p4373
(dp4374
g1376
I-9
sg1377
I435
sbtp4375
sg1325
(g1419
(idivisor
TwoPDivisor
p4376
(dp4377
g1376
I-9
sg1377
I423
sbtp4378
sg6
(g3021
(idivisor
TwoPDivisor
p4379
(dp4380
g1376
I-9
sg1377
I412
sbtp4381
sg1170
(g1399
(idivisor
TwoPDivisor
p4382
(dp4383
g1376
I-9
sg1377
I414
sbtp4384
sg487
(g1473
(idivisor
TwoPDivisor
p4385
(dp4386
g1376
I-9
sg1377
I429
sbtp4387
sg1205
(g1419
(idivisor
TwoPDivisor
p4388
(dp4389
g1376
I-9
sg1377
I441
sbtp4390
sg412
(g2196
(idivisor
TwoPDivisor
p4391
(dp4392
g1376
I-9
sg1377
I417
sbtp4393
sg64
(g2359
(idivisor
TwoPDivisor
p4394
(dp4395
g1376
I-7
sg1377
I412
sbtp4396
sg1166
(g1386
(idivisor
TwoPDivisor
p4397
(dp4398
g1376
I-9
sg1377
I439
sbtp4399
sg236
(g1394
(idivisor
TwoPDivisor
p4400
(dp4401
g1376
I-7
sg1377
I449
sbtp4402
sg796
(g1414
(idivisor
TwoPDivisor
p4403
(dp4404
g1376
I-9
sg1377
I421
sbtp4405
sg66
(g1693
(idivisor
TwoPDivisor
p4406
(dp4407
g1376
I-5
sg1377
I412
sbtp4408
sg736
(g1486
(idivisor
TwoPDivisor
p4409
(dp4410
g1376
I-9
sg1377
I436
sbtp4411
sg1059
(g1486
(idivisor
TwoPDivisor
p4412
(dp4413
g1376
I-9
sg1377
I418
sbtp4414
sg1192
(g1458
(idivisor
TwoPDivisor
p4415
(dp4416
g1376
I-9
sg1377
I432
sbtp4417
sg481
(g2004
(idivisor
TwoPDivisor
p4418
(dp4419
g1376
I-9
sg1377
I420
sbtp4420
sg190
(g3427
(idivisor
TwoPDivisor
p4421
(dp4422
g1376
I-7
sg1377
I446
sbtp4423
sg1001
(g1394
(idivisor
TwoPDivisor
p4424
(dp4425
g1376
I-9
sg1377
I421
sbtp4426
sg86
(g2068
(idivisor
TwoPDivisor
p4427
(dp4428
g1376
I-9
sg1377
I444
sbtp4429
sg184
(g1473
(idivisor
TwoPDivisor
p4430
(dp4431
g1376
I-9
sg1377
I437
sbtp4432
sg278
(g1394
(idivisor
TwoPDivisor
p4433
(dp4434
g1376
I-8
sg1377
I449
sbtp4435
sg1030
(g1481
(idivisor
TwoPDivisor
p4436
(dp4437
g1376
I-9
sg1377
I417
sbtp4438
sg648
(g2004
(idivisor
TwoPDivisor
p4439
(dp4440
g1376
I-9
sg1377
I414
sbtp4441
sg420
(g1682
(idivisor
TwoPDivisor
p4442
(dp4443
g1376
I-9
sg1377
I429
sbtp4444
sg889
(g1458
(idivisor
TwoPDivisor
p4445
(dp4446
g1376
I-9
sg1377
I455
sbtp4447
sg178
(g1738
(idivisor
TwoPDivisor
p4448
(dp4449
g1376
I-9
sg1377
I427
sbtp4450
sg994
(g1527
(idivisor
TwoPDivisor
p4451
(dp4452
g1376
I-9
sg1377
I458
sbtp4453
sg477
(g2196
(idivisor
TwoPDivisor
p4454
(dp4455
g1376
I-9
sg1377
I415
sbtp4456
sg107
((idivisor
TwoPDivisor
p4457
(dp4458
g1376
I5
sg1377
I-27
sb(idivisor
TwoPDivisor
p4459
(dp4460
g1376
I-8
sg1377
I485
sbtp4461
sg354
(g1535
(idivisor
TwoPDivisor
p4462
(dp4463
g1376
I-9
sg1377
I441
sbtp4464
sg232
(g1409
(idivisor
TwoPDivisor
p4465
(dp4466
g1376
I-9
sg1377
I443
sbtp4467
sg88
(g4229
(idivisor
TwoPDivisor
p4468
(dp4469
g1376
I-7
sg1377
I444
sbtp4470
sg716
(g1373
(idivisor
TwoPDivisor
p4471
(dp4472
g1376
I-9
sg1377
I458
sbtp4473
sg372
(g1545
(idivisor
TwoPDivisor
p4474
(dp4475
g1376
I-9
sg1377
I413
sbtp4476
sg859
(g1505
(idivisor
TwoPDivisor
p4477
(dp4478
g1376
I-9
sg1377
I420
sbtp4479
sg599
(g1682
(idivisor
TwoPDivisor
p4480
(dp4481
g1376
I-9
sg1377
I423
sbtp4482
sg891
(g1427
(idivisor
TwoPDivisor
p4483
(dp4484
g1376
I-9
sg1377
I462
sbtp4485
sg636
(g1399
(idivisor
TwoPDivisor
p4486
(dp4487
g1376
I-9
sg1377
I446
sbtp4488
sg974
(g1373
(idivisor
TwoPDivisor
p4489
(dp4490
g1376
I-9
sg1377
I445
sbtp4491
sg961
(g1427
(idivisor
TwoPDivisor
p4492
(dp4493
g1376
I-9
sg1377
I458
sbtp4494
sg1265
(g1419
(idivisor
TwoPDivisor
p4495
(dp4496
g1376
I-9
sg1377
I433
sbtp4497
sg367
(g1427
(idivisor
TwoPDivisor
p4498
(dp4499
g1376
I-9
sg1377
I488
sbtp4500
sg1303
(g1419
(idivisor
TwoPDivisor
p4501
(dp4502
g1376
I-9
sg1377
I427
sbtp4503
sg579
(g1481
(idivisor
TwoPDivisor
p4504
(dp4505
g1376
I-9
sg1377
I439
sbtp4506
sg90
(g3558
(idivisor
TwoPDivisor
p4507
(dp4508
g1376
I-6
sg1377
I445
sbtp4509
sg287
((idivisor
TwoPDivisor
p4510
(dp4511
g1376
I3
sg1377
I-18
sb(idivisor
TwoPDivisor
p4512
(dp4513
g1376
I-1
sg1377
I467
sbtp4514
sg374
(g1713
(idivisor
TwoPDivisor
p4515
(dp4516
g1376
I-9
sg1377
I415
sbtp4517
sg486
(g1442
(idivisor
TwoPDivisor
p4518
(dp4519
g1376
I-9
sg1377
I428
sbtp4520
sg772
(g1682
(idivisor
TwoPDivisor
p4521
(dp4522
g1376
I-9
sg1377
I416
sbtp4523
sg954
(g1486
(idivisor
TwoPDivisor
p4524
(dp4525
g1376
I-9
sg1377
I425
sbtp4526
sg570
(g1453
(idivisor
TwoPDivisor
p4527
(dp4528
g1376
I-9
sg1377
I421
sbtp4529
sg442
(g2048
(idivisor
TwoPDivisor
p4530
(dp4531
g1376
I-9
sg1377
I412
sbtp4532
sg637
(g1540
(idivisor
TwoPDivisor
p4533
(dp4534
g1376
I-9
sg1377
I448
sbtp4535
sg318
(g1394
(idivisor
TwoPDivisor
p4536
(dp4537
g1376
I-9
sg1377
I449
sbtp4538
sg379
(g1738
(idivisor
TwoPDivisor
p4539
(dp4540
g1376
I-9
sg1377
I422
sbtp4541
sg983
(g1535
(idivisor
TwoPDivisor
p4542
(dp4543
g1376
I-9
sg1377
I415
sbtp4544
sg57
((idivisor
TwoPDivisor
p4545
(dp4546
g1376
I8
sg1377
I-47
sb(idivisor
TwoPDivisor
p4547
(dp4548
g1376
I-9
sg1377
I504
sbtp4549
sg603
(g1505
(idivisor
TwoPDivisor
p4550
(dp4551
g1376
I-9
sg1377
I431
sbtp4552
sg846
(g1540
(idivisor
TwoPDivisor
p4553
(dp4554
g1376
I-9
sg1377
I439
sbtp4555
sg476
(g1653
(idivisor
TwoPDivisor
p4556
(dp4557
g1376
I-9
sg1377
I413
sbtp4558
sg42
((idivisor
TwoPDivisor
p4559
(dp4560
g1376
I7
sg1377
I-5
sb(idivisor
TwoPDivisor
p4561
(dp4562
g1376
I-8
sg1377
I462
sbtp4563
sg707
(g1505
(idivisor
TwoPDivisor
p4564
(dp4565
g1376
I-9
sg1377
I427
sbtp4566
sg578
(g1535
(idivisor
TwoPDivisor
p4567
(dp4568
g1376
I-9
sg1377
I434
sbtp4569
sg373
(g2048
(idivisor
TwoPDivisor
p4570
(dp4571
g1376
I-9
sg1377
I414
sbtp4572
sg874
(g1463
(idivisor
TwoPDivisor
p4573
(dp4574
g1376
I-9
sg1377
I410
sbtp4575
sg906
(g1569
(idivisor
TwoPDivisor
p4576
(dp4577
g1376
I-9
sg1377
I443
sbtp4578
sg1069
(g1481
(idivisor
TwoPDivisor
p4579
(dp4580
g1376
I-9
sg1377
I414
sbtp4581
sg1362
(g1419
(idivisor
TwoPDivisor
p4582
(dp4583
g1376
I-9
sg1377
I414
sbtp4584
sg684
(g1535
(idivisor
TwoPDivisor
p4585
(dp4586
g1376
I-9
sg1377
I430
sbtp4587
sg885
(g1399
(idivisor
TwoPDivisor
p4588
(dp4589
g1376
I-9
sg1377
I435
sbtp4590
sg916
(g1505
(idivisor
TwoPDivisor
p4591
(dp4592
g1376
I-9
sg1377
I417
sbtp4593
sg375
(g1653
(idivisor
TwoPDivisor
p4594
(dp4595
g1376
I-9
sg1377
I416
sbtp4596
sg631
(g1409
(idivisor
TwoPDivisor
p4597
(dp4598
g1376
I-9
sg1377
I431
sbtp4599
sg1236
(g1527
(idivisor
TwoPDivisor
p4600
(dp4601
g1376
I-9
sg1377
I436
sbtp4602
sg425
(g1409
(idivisor
TwoPDivisor
p4603
(dp4604
g1376
I-9
sg1377
I438
sbtp4605
sg112
(g1972
(idivisor
TwoPDivisor
p4606
(dp4607
g1376
I-9
sg1377
I503
sbtp4608
sg303
(g1955
(idivisor
TwoPDivisor
p4609
(dp4610
g1376
I-9
sg1377
I422
sbtp4611
sg129
(g1497
(idivisor
TwoPDivisor
p4612
(dp4613
g1376
I-9
sg1377
I427
sbtp4614
sg38
(g1677
(idivisor
TwoPDivisor
p4615
(dp4616
g1376
I-8
sg1377
I454
sbtp4617
sg279
((idivisor
TwoPDivisor
p4618
(dp4619
g1376
I0
sg1377
I9
sb(idivisor
TwoPDivisor
p4620
(dp4621
g1376
I-7
sg1377
I449
sbtp4622
sg879
(g1505
(idivisor
TwoPDivisor
p4623
(dp4624
g1376
I-9
sg1377
I419
sbtp4625
sg1037
(g1458
(idivisor
TwoPDivisor
p4626
(dp4627
g1376
I-9
sg1377
I446
sbtp4628
sg1087
(g1373
(idivisor
TwoPDivisor
p4629
(dp4630
g1376
I-9
sg1377
I437
sbtp4631
sg216
(g2048
(idivisor
TwoPDivisor
p4632
(dp4633
g1376
I-9
sg1377
I418
sbtp4634
sg1355
(g1527
(idivisor
TwoPDivisor
p4635
(dp4636
g1376
I-9
sg1377
I415
sbtp4637
sg990
(g1373
(idivisor
TwoPDivisor
p4638
(dp4639
g1376
I-9
sg1377
I444
sbtp4640
sg589
(g1527
(idivisor
TwoPDivisor
p4641
(dp4642
g1376
I-9
sg1377
I480
sbtp4643
sg313
(g1414
(idivisor
TwoPDivisor
p4644
(dp4645
g1376
I-9
sg1377
I438
sbtp4646
sg516
(g1442
(idivisor
TwoPDivisor
p4647
(dp4648
g1376
I-9
sg1377
I427
sbtp4649
sg199
(g2118
(idivisor
TwoPDivisor
p4650
(dp4651
g1376
I-8
sg1377
I470
sbtp4652
sg1081
(g1481
(idivisor
TwoPDivisor
p4653
(dp4654
g1376
I-9
sg1377
I413
sbtp4655
sg694
(g1427
(idivisor
TwoPDivisor
p4656
(dp4657
g1376
I-9
sg1377
I472
sbtp4658
sg1094
(g1394
(idivisor
TwoPDivisor
p4659
(dp4660
g1376
I-9
sg1377
I414
sbtp4661
sg594
(g1738
(idivisor
TwoPDivisor
p4662
(dp4663
g1376
I-9
sg1377
I415
sbtp4664
sg53
(g2287
(idivisor
TwoPDivisor
p4665
(dp4666
g1376
I-9
sg1377
I488
sbtp4667
sg1028
(g1409
(idivisor
TwoPDivisor
p4668
(dp4669
g1376
I-9
sg1377
I411
sbtp4670
sg920
(g1394
(idivisor
TwoPDivisor
p4671
(dp4672
g1376
I-9
sg1377
I426
sbtp4673
sg1182
(g1373
(idivisor
TwoPDivisor
p4674
(dp4675
g1376
I-9
sg1377
I428
sbtp4676
sg208
(g1419
(idivisor
TwoPDivisor
p4677
(dp4678
g1376
I-9
sg1377
I504
sbtp4679
sg895
(g1442
(idivisor
TwoPDivisor
p4680
(dp4681
g1376
I-9
sg1377
I411
sbtp4682
sg404
(g1527
(idivisor
TwoPDivisor
p4683
(dp4684
g1376
I-1
sg1377
I485
sbtp4685
sg645
(g1955
(idivisor
TwoPDivisor
p4686
(dp4687
g1376
I-9
sg1377
I411
sbtp4688
sg280
(g1633
(idivisor
TwoPDivisor
p4689
(dp4690
g1376
I-8
sg1377
I454
sbtp4691
sg1027
(g1505
(idivisor
TwoPDivisor
p4692
(dp4693
g1376
I-9
sg1377
I410
sbtp4694
sg963
(g1419
(idivisor
TwoPDivisor
p4695
(dp4696
g1376
I-9
sg1377
I461
sbtp4697
sg1290
(g1527
(idivisor
TwoPDivisor
p4698
(dp4699
g1376
I-9
sg1377
I428
sbtp4700
sg464
(g1540
(idivisor
TwoPDivisor
p4701
(dp4702
g1376
I-9
sg1377
I454
sbtp4703
sg1300
(g1386
(idivisor
TwoPDivisor
p4704
(dp4705
g1376
I-9
sg1377
I421
sbtp4706
sg657
(g1409
(idivisor
TwoPDivisor
p4707
(dp4708
g1376
I-9
sg1377
I430
sbtp4709
sg1243
(g1527
(idivisor
TwoPDivisor
p4710
(dp4711
g1376
I-9
sg1377
I435
sbtp4712
sg1002
(g1486
(idivisor
TwoPDivisor
p4713
(dp4714
g1376
I-9
sg1377
I422
sbtp4715
sg1058
(g1394
(idivisor
TwoPDivisor
p4716
(dp4717
g1376
I-9
sg1377
I417
sbtp4718
sg807
(g1458
(idivisor
TwoPDivisor
p4719
(dp4720
g1376
I-9
sg1377
I459
sbtp4721
sg966
(g1409
(idivisor
TwoPDivisor
p4722
(dp4723
g1376
I-9
sg1377
I415
sbtp4724
sg32
((idivisor
TwoPDivisor
p4725
(dp4726
g1376
I7
sg1377
I12
sb(idivisor
TwoPDivisor
p4727
(dp4728
g1376
I-8
sg1377
I445
sbtp4729
sg331
(g1527
(idivisor
TwoPDivisor
p4730
(dp4731
g1376
I-9
sg1377
I495
sbtp4732
sg262
(g2196
(idivisor
TwoPDivisor
p4733
(dp4734
g1376
I-9
sg1377
I421
sbtp4735
sg672
(g1497
(idivisor
TwoPDivisor
p4736
(dp4737
g1376
I-9
sg1377
I411
sbtp4738
sg649
(g2170
(idivisor
TwoPDivisor
p4739
(dp4740
g1376
I-9
sg1377
I415
sbtp4741
sg1326
(g1458
(idivisor
TwoPDivisor
p4742
(dp4743
g1376
I-9
sg1377
I412
sbtp4744
sg434
(g1373
(idivisor
TwoPDivisor
p4745
(dp4746
g1376
I-9
sg1377
I469
sbtp4747
sg822
(g1394
(idivisor
TwoPDivisor
p4748
(dp4749
g1376
I-9
sg1377
I431
sbtp4750
sg319
(g4618
(idivisor
TwoPDivisor
p4751
(dp4752
g1376
I-8
sg1377
I449
sbtp4753
sg1278
(g1527
(idivisor
TwoPDivisor
p4754
(dp4755
g1376
I-9
sg1377
I430
sbtp4756
sg901
(g1481
(idivisor
TwoPDivisor
p4757
(dp4758
g1376
I-9
sg1377
I425
sbtp4759
sg703
(g1682
(idivisor
TwoPDivisor
p4760
(dp4761
g1376
I-9
sg1377
I419
sbtp4762
sg541
(g2170
(idivisor
TwoPDivisor
p4763
(dp4764
g1376
I-9
sg1377
I419
sbtp4765
sg700
(g2170
(idivisor
TwoPDivisor
p4766
(dp4767
g1376
I-9
sg1377
I413
sbtp4768
sg140
((idivisor
TwoPDivisor
p4769
(dp4770
g1376
I8
sg1377
I11
sb(idivisor
TwoPDivisor
p4771
(dp4772
g1376
I-9
sg1377
I444
sbtp4773
sg34
(g3902
(idivisor
TwoPDivisor
p4774
(dp4775
g1376
I-6
sg1377
I445
sbtp4776
sg1239
(g1373
(idivisor
TwoPDivisor
p4777
(dp4778
g1376
I-9
sg1377
I421
sbtp4779
sg912
(g1419
(idivisor
TwoPDivisor
p4780
(dp4781
g1376
I-9
sg1377
I464
sbtp4782
sg979
(g1419
(idivisor
TwoPDivisor
p4783
(dp4784
g1376
I-9
sg1377
I460
sbtp4785
sg297
(g1604
(idivisor
TwoPDivisor
p4786
(dp4787
g1376
I-9
sg1377
I414
sbtp4788
sg1220
(g1427
(idivisor
TwoPDivisor
p4789
(dp4790
g1376
I-9
sg1377
I436
sbtp4791
sg850
(g1386
(idivisor
TwoPDivisor
p4792
(dp4793
g1376
I-9
sg1377
I461
sbtp4794
sg775
(g1414
(idivisor
TwoPDivisor
p4795
(dp4796
g1376
I-9
sg1377
I422
sbtp4797
sg755
(g1409
(idivisor
TwoPDivisor
p4798
(dp4799
g1376
I-9
sg1377
I426
sbtp4800
sg801
(g1394
(idivisor
TwoPDivisor
p4801
(dp4802
g1376
I-9
sg1377
I432
sbtp4803
sg1228
(g1427
(idivisor
TwoPDivisor
p4804
(dp4805
g1376
I-9
sg1377
I435
sbtp4806
sg121
(g1580
(idivisor
TwoPDivisor
p4807
(dp4808
g1376
I-5
sg1377
I413
sbtp4809
sg618
(g2196
(idivisor
TwoPDivisor
p4810
(dp4811
g1376
I-9
sg1377
I410
sbtp4812
sg304
(g1497
(idivisor
TwoPDivisor
p4813
(dp4814
g1376
I-9
sg1377
I423
sbtp4815
sg733
(g1535
(idivisor
TwoPDivisor
p4816
(dp4817
g1376
I-9
sg1377
I428
sbtp4818
sg1353
(g1386
(idivisor
TwoPDivisor
p4819
(dp4820
g1376
I-9
sg1377
I410
sbtp4821
sg1140
(g1394
(idivisor
TwoPDivisor
p4822
(dp4823
g1376
I-9
sg1377
I410
sbtp4824
sg587
(g1386
(idivisor
TwoPDivisor
p4825
(dp4826
g1376
I-1
sg1377
I467
sbtp4827
sg301
(g1653
(idivisor
TwoPDivisor
p4828
(dp4829
g1376
I-9
sg1377
I418
sbtp4830
sg215
(g1545
(idivisor
TwoPDivisor
p4831
(dp4832
g1376
I-9
sg1377
I417
sbtp4833
sg1257
(g1527
(idivisor
TwoPDivisor
p4834
(dp4835
g1376
I-9
sg1377
I433
sbtp4836
sg713
(g1399
(idivisor
TwoPDivisor
p4837
(dp4838
g1376
I-9
sg1377
I443
sbtp4839
sg150
((idivisor
TwoPDivisor
p4840
(dp4841
g1376
I5
sg1377
I-5
sb(idivisor
TwoPDivisor
p4842
(dp4843
g1376
I-7
sg1377
I461
sbtp4844
sg1072
(g1399
(idivisor
TwoPDivisor
p4845
(dp4846
g1376
I-9
sg1377
I423
sbtp4847
sg58
((idivisor
TwoPDivisor
p4848
(dp4849
g1376
I7
sg1377
I-54
sb(idivisor
TwoPDivisor
p4850
(dp4851
g1376
I-9
sg1377
I512
sbtp4852
sg897
(g1414
(idivisor
TwoPDivisor
p4853
(dp4854
g1376
I-9
sg1377
I416
sbtp4855
sg925
(g1373
(idivisor
TwoPDivisor
p4856
(dp4857
g1376
I-9
sg1377
I448
sbtp4858
sg982
(g1409
(idivisor
TwoPDivisor
p4859
(dp4860
g1376
I-9
sg1377
I414
sbtp4861
sg803
(g1399
(idivisor
TwoPDivisor
p4862
(dp4863
g1376
I-9
sg1377
I439
sbtp4864
sg1121
(g1540
(idivisor
TwoPDivisor
p4865
(dp4866
g1376
I-9
sg1377
I421
sbtp4867
sg1176
(g1427
(idivisor
TwoPDivisor
p4868
(dp4869
g1376
I-9
sg1377
I441
sbtp4870
sg277
(g1481
(idivisor
TwoPDivisor
p4871
(dp4872
g1376
I-9
sg1377
I448
sbtp4873
sg300
(g1713
(idivisor
TwoPDivisor
p4874
(dp4875
g1376
I-9
sg1377
I417
sbtp4876
sg562
(g1419
(idivisor
TwoPDivisor
p4877
(dp4878
g1376
I-9
sg1377
I485
sbtp4879
sg390
(g1535
(idivisor
TwoPDivisor
p4880
(dp4881
g1376
I-9
sg1377
I440
sbtp4882
sg512
(g2170
(idivisor
TwoPDivisor
p4883
(dp4884
g1376
I-9
sg1377
I420
sbtp4885
sg779
(g1481
(idivisor
TwoPDivisor
p4886
(dp4887
g1376
I-9
sg1377
I431
sbtp4888
sg472
(g1419
(idivisor
TwoPDivisor
p4889
(dp4890
g1376
I-9
sg1377
I488
sbtp4891
sg258
(g1545
(idivisor
TwoPDivisor
p4892
(dp4893
g1376
I-9
sg1377
I416
sbtp4894
sg1311
(g1458
(idivisor
TwoPDivisor
p4895
(dp4896
g1376
I-9
sg1377
I415
sbtp4897
sg797
(g1505
(idivisor
TwoPDivisor
p4898
(dp4899
g1376
I-9
sg1377
I423
sbtp4900
sg230
(g3370
(idivisor
TwoPDivisor
p4901
(dp4902
g1376
I-6
sg1377
I435
sbtp4903
sg180
(g2170
(idivisor
TwoPDivisor
p4904
(dp4905
g1376
I-9
sg1377
I429
sbtp4906
sg113
(g4848
(idivisor
TwoPDivisor
p4907
(dp4908
g1376
I-1
sg1377
I503
sbtp4909
sg1262
(g1386
(idivisor
TwoPDivisor
p4910
(dp4911
g1376
I-9
sg1377
I427
sbtp4912
sg83
(g3264
(idivisor
TwoPDivisor
p4913
(dp4914
g1376
I-7
sg1377
I436
sbtp4915
sg820
(g1535
(idivisor
TwoPDivisor
p4916
(dp4917
g1376
I-9
sg1377
I424
sbtp4918
sg186
(g1596
(idivisor
TwoPDivisor
p4919
(dp4920
g1376
I-7
sg1377
I440
sbtp4921
sg991
(g1458
(idivisor
TwoPDivisor
p4922
(dp4923
g1376
I-9
sg1377
I449
sbtp4924
sg137
(g3991
(idivisor
TwoPDivisor
p4925
(dp4926
g1376
I-6
sg1377
I435
sbtp4927
sg853
(g1419
(idivisor
TwoPDivisor
p4928
(dp4929
g1376
I-9
sg1377
I468
sbtp4930
sg1157
(g1386
(idivisor
TwoPDivisor
p4931
(dp4932
g1376
I-9
sg1377
I440
sbtp4933
sg52
((idivisor
TwoPDivisor
p4934
(dp4935
g1376
I8
sg1377
I-30
sb(idivisor
TwoPDivisor
p4936
(dp4937
g1376
I-9
sg1377
I487
sbtp4938
sg503
(g1419
(idivisor
TwoPDivisor
p4939
(dp4940
g1376
I-9
sg1377
I487
sbtp4941
sg1297
(g1419
(idivisor
TwoPDivisor
p4942
(dp4943
g1376
I-9
sg1377
I428
sbtp4944
sg568
(g2004
(idivisor
TwoPDivisor
p4945
(dp4946
g1376
I-9
sg1377
I417
sbtp4947
sg680
(g1473
(idivisor
TwoPDivisor
p4948
(dp4949
g1376
I-9
sg1377
I422
sbtp4950
sg875
(g1682
(idivisor
TwoPDivisor
p4951
(dp4952
g1376
I-9
sg1377
I411
sbtp4953
sg1183
(g1458
(idivisor
TwoPDivisor
p4954
(dp4955
g1376
I-9
sg1377
I433
sbtp4956
sg7
(g1855
(idivisor
TwoPDivisor
p4957
(dp4958
g1376
I-8
sg1377
I412
sbtp4959
sg273
(g1414
(idivisor
TwoPDivisor
p4960
(dp4961
g1376
I-9
sg1377
I439
sbtp4962
sg565
(g1955
(idivisor
TwoPDivisor
p4963
(dp4964
g1376
I-9
sg1377
I414
sbtp4965
sg928
(g1427
(idivisor
TwoPDivisor
p4966
(dp4967
g1376
I-9
sg1377
I460
sbtp4968
sg1222
(g1419
(idivisor
TwoPDivisor
p4969
(dp4970
g1376
I-9
sg1377
I439
sbtp4971
sg213
(g1580
(idivisor
TwoPDivisor
p4972
(dp4973
g1376
I-7
sg1377
I413
sbtp4974
sg641
(g1386
(idivisor
TwoPDivisor
p4975
(dp4976
g1376
I-9
sg1377
I471
sbtp4977
sg1315
(g1419
(idivisor
TwoPDivisor
p4978
(dp4979
g1376
I-9
sg1377
I425
sbtp4980
sg691
(g1373
(idivisor
TwoPDivisor
p4981
(dp4982
g1376
I-9
sg1377
I459
sbtp4983
sg73
(g3680
(idivisor
TwoPDivisor
p4984
(dp4985
g1376
I-5
sg1377
I422
sbtp4986
sg136
(g3264
(idivisor
TwoPDivisor
p4987
(dp4988
g1376
I-7
sg1377
I435
sbtp4989
sg1175
(g1386
(idivisor
TwoPDivisor
p4990
(dp4991
g1376
I-9
sg1377
I438
sbtp4992
sg381
(g2170
(idivisor
TwoPDivisor
p4993
(dp4994
g1376
I-9
sg1377
I424
sbtp4995
sg457
(g1505
(idivisor
TwoPDivisor
p4996
(dp4997
g1376
I-9
sg1377
I436
sbtp4998
sg197
(g1432
(idivisor
TwoPDivisor
p4999
(dp5000
g1376
I-8
sg1377
I463
sbtp5001
sg410
(g1713
(idivisor
TwoPDivisor
p5002
(dp5003
g1376
I-9
sg1377
I414
sbtp5004
sg690
(g1569
(idivisor
TwoPDivisor
p5005
(dp5006
g1376
I-9
sg1377
I453
sbtp5007
sg861
(g1535
(idivisor
TwoPDivisor
p5008
(dp5009
g1376
I-9
sg1377
I422
sbtp5010
sg987
(g1399
(idivisor
TwoPDivisor
p5011
(dp5012
g1376
I-9
sg1377
I429
sbtp5013
sg834
(g1463
(idivisor
TwoPDivisor
p5014
(dp5015
g1376
I-9
sg1377
I412
sbtp5016
sg1274
(g1373
(idivisor
TwoPDivisor
p5017
(dp5018
g1376
I-9
sg1377
I416
sbtp5019
sg635
(g1486
(idivisor
TwoPDivisor
p5020
(dp5021
g1376
I-9
sg1377
I440
sbtp5022
sg1272
(g1419
(idivisor
TwoPDivisor
p5023
(dp5024
g1376
I-9
sg1377
I432
sbtp5025
sg1158
(g1427
(idivisor
TwoPDivisor
p5026
(dp5027
g1376
I-9
sg1377
I443
sbtp5028
sg1227
(g1386
(idivisor
TwoPDivisor
p5029
(dp5030
g1376
I-9
sg1377
I432
sbtp5031
sg95
((idivisor
TwoPDivisor
p5032
(dp5033
g1376
I4
sg1377
I0
sb(idivisor
TwoPDivisor
p5034
(dp5035
g1376
I-7
sg1377
I458
sbtp5036
sg1048
(g1540
(idivisor
TwoPDivisor
p5037
(dp5038
g1376
I-9
sg1377
I427
sbtp5039
sg1294
(g1386
(idivisor
TwoPDivisor
p5040
(dp5041
g1376
I-9
sg1377
I422
sbtp5042
sg826
(g1569
(idivisor
TwoPDivisor
p5043
(dp5044
g1376
I-9
sg1377
I447
sbtp5045
sg46
(g1904
(idivisor
TwoPDivisor
p5046
(dp5047
g1376
I-9
sg1377
I471
sbtp5048
sg1307
(g1427
(idivisor
TwoPDivisor
p5049
(dp5050
g1376
I-9
sg1377
I423
sbtp5051
sg507
(g2196
(idivisor
TwoPDivisor
p5052
(dp5053
g1376
I-9
sg1377
I414
sbtp5054
sg886
(g1540
(idivisor
TwoPDivisor
p5055
(dp5056
g1376
I-9
sg1377
I437
sbtp5057
sg377
(g1955
(idivisor
TwoPDivisor
p5058
(dp5059
g1376
I-9
sg1377
I420
sbtp5060
sg97
(g4559
(idivisor
TwoPDivisor
p5061
(dp5062
g1376
I-8
sg1377
I461
sbtp5063
sg175
(g2196
(idivisor
TwoPDivisor
p5064
(dp5065
g1376
I-7
sg1377
I421
sbtp5066
sg461
(g1394
(idivisor
TwoPDivisor
p5067
(dp5068
g1376
I-9
sg1377
I445
sbtp5069
sg156
(g4348
(idivisor
TwoPDivisor
p5070
(dp5071
g1376
I-8
sg1377
I478
sbtp5072
sg1215
(g1540
(idivisor
TwoPDivisor
p5073
(dp5074
g1376
I-9
sg1377
I411
sbtp5075
sg907
(g1373
(idivisor
TwoPDivisor
p5076
(dp5077
g1376
I-9
sg1377
I449
sbtp5078
sg267
(g2170
(idivisor
TwoPDivisor
p5079
(dp5080
g1376
I-9
sg1377
I427
sbtp5081
sg99
(g4840
(idivisor
TwoPDivisor
p5082
(dp5083
g1376
I-7
sg1377
I462
sbtp5084
sg763
(g1373
(idivisor
TwoPDivisor
p5085
(dp5086
g1376
I-9
sg1377
I456
sbtp5087
sg622
(g2004
(idivisor
TwoPDivisor
p5088
(dp5089
g1376
I-9
sg1377
I415
sbtp5090
sg1172
(g1569
(idivisor
TwoPDivisor
p5091
(dp5092
g1376
I-9
sg1377
I423
sbtp5093
sg228
((idivisor
TwoPDivisor
p5094
(dp5095
g1376
I8
sg1377
I18
sb(idivisor
TwoPDivisor
p5096
(dp5097
g1376
I-9
sg1377
I435
sbtp5098
sg1135
(g1458
(idivisor
TwoPDivisor
p5099
(dp5100
g1376
I-9
sg1377
I438
sbtp5101
sg494
(g1486
(idivisor
TwoPDivisor
p5102
(dp5103
g1376
I-9
sg1377
I445
sbtp5104
sg257
(g1604
(idivisor
TwoPDivisor
p5105
(dp5106
g1376
I-9
sg1377
I415
sbtp5107
sg753
(g1414
(idivisor
TwoPDivisor
p5108
(dp5109
g1376
I-9
sg1377
I423
sbtp5110
sg510
(g1738
(idivisor
TwoPDivisor
p5111
(dp5112
g1376
I-9
sg1377
I418
sbtp5113
sg513
(g1453
(idivisor
TwoPDivisor
p5114
(dp5115
g1376
I-9
sg1377
I423
sbtp5116
sg124
(g2048
(idivisor
TwoPDivisor
p5117
(dp5118
g1376
I-9
sg1377
I420
sbtp5119
sg1189
(g1540
(idivisor
TwoPDivisor
p5120
(dp5121
g1376
I-9
sg1377
I414
sbtp5122
sg868
(g1373
(idivisor
TwoPDivisor
p5123
(dp5124
g1376
I-9
sg1377
I451
sbtp5125
sg224
(g2170
(idivisor
TwoPDivisor
p5126
(dp5127
g1376
I-9
sg1377
I428
sbtp5128
sg1342
(g1427
(idivisor
TwoPDivisor
p5129
(dp5130
g1376
I-9
sg1377
I416
sbtp5131
sg731
(g1505
(idivisor
TwoPDivisor
p5132
(dp5133
g1376
I-9
sg1377
I426
sbtp5134
sg174
(g1653
(idivisor
TwoPDivisor
p5135
(dp5136
g1376
I-9
sg1377
I421
sbtp5137
sg320
(g1633
(idivisor
TwoPDivisor
p5138
(dp5139
g1376
I-8
sg1377
I453
sbtp5140
sg1280
(g1373
(idivisor
TwoPDivisor
p5141
(dp5142
g1376
I-9
sg1377
I415
sbtp5143
sg847
(g1569
(idivisor
TwoPDivisor
p5144
(dp5145
g1376
I-9
sg1377
I446
sbtp5146
sg930
(g1419
(idivisor
TwoPDivisor
p5147
(dp5148
g1376
I-9
sg1377
I463
sbtp5149
sg606
(g1481
(idivisor
TwoPDivisor
p5150
(dp5151
g1376
I-9
sg1377
I438
sbtp5152
sg1199
(g1569
(idivisor
TwoPDivisor
p5153
(dp5154
g1376
I-9
sg1377
I420
sbtp5155
sg1264
(g1527
(idivisor
TwoPDivisor
p5156
(dp5157
g1376
I-9
sg1377
I432
sbtp5158
sg23
((idivisor
TwoPDivisor
p5159
(dp5160
g1376
I4
sg1377
I29
sb(idivisor
TwoPDivisor
p5161
(dp5162
g1376
I-5
sg1377
I428
sbtp5163
sg1154
(g1569
(idivisor
TwoPDivisor
p5164
(dp5165
g1376
I-9
sg1377
I425
sbtp5166
sg368
(g1527
(idivisor
TwoPDivisor
p5167
(dp5168
g1376
I-9
sg1377
I494
sbtp5169
sg29
(g3991
(idivisor
TwoPDivisor
p5170
(dp5171
g1376
I-6
sg1377
I437
sbtp5172
sg674
(g2004
(idivisor
TwoPDivisor
p5173
(dp5174
g1376
I-9
sg1377
I413
sbtp5175
sg19
((idivisor
TwoPDivisor
p5176
(dp5177
g1376
I8
sg1377
I29
sb(idivisor
TwoPDivisor
p5178
(dp5179
g1376
I-9
sg1377
I428
sbtp5180
sg785
(g1373
(idivisor
TwoPDivisor
p5181
(dp5182
g1376
I-9
sg1377
I455
sbtp5183
sg1305
(g1458
(idivisor
TwoPDivisor
p5184
(dp5185
g1376
I-9
sg1377
I416
sbtp5186
sg1103
(g1527
(idivisor
TwoPDivisor
p5187
(dp5188
g1376
I-9
sg1377
I450
sbtp5189
sg708
(g1409
(idivisor
TwoPDivisor
p5190
(dp5191
g1376
I-9
sg1377
I428
sbtp5192
sg821
(g1481
(idivisor
TwoPDivisor
p5193
(dp5194
g1376
I-9
sg1377
I429
sbtp5195
sg1268
(g1458
(idivisor
TwoPDivisor
p5196
(dp5197
g1376
I-9
sg1377
I422
sbtp5198
sg1011
(g1419
(idivisor
TwoPDivisor
p5199
(dp5200
g1376
I-9
sg1377
I458
sbtp5201
sg554
(g1399
(idivisor
TwoPDivisor
p5202
(dp5203
g1376
I-9
sg1377
I449
sbtp5204
sg1078
(g1427
(idivisor
TwoPDivisor
p5205
(dp5206
g1376
I-9
sg1377
I450
sbtp5207
sg660
(g1394
(idivisor
TwoPDivisor
p5208
(dp5209
g1376
I-9
sg1377
I438
sbtp5210
sg166
(g2359
(idivisor
TwoPDivisor
p5211
(dp5212
g1376
I-9
sg1377
I412
sbtp5213
sg1369
(g1419
(idivisor
TwoPDivisor
p5214
(dp5215
g1376
I-9
sg1377
I411
sbtp5216
sg1052
(g1386
(idivisor
TwoPDivisor
p5217
(dp5218
g1376
I-9
sg1377
I449
sbtp5219
sg1286
(g1373
(idivisor
TwoPDivisor
p5220
(dp5221
g1376
I-9
sg1377
I414
sbtp5222
sg735
(g1394
(idivisor
TwoPDivisor
p5223
(dp5224
g1376
I-9
sg1377
I435
sbtp5225
sg880
(g1409
(idivisor
TwoPDivisor
p5226
(dp5227
g1376
I-9
sg1377
I420
sbtp5228
sg424
(g1505
(idivisor
TwoPDivisor
p5229
(dp5230
g1376
I-9
sg1377
I437
sbtp5231
sg619
(g1955
(idivisor
TwoPDivisor
p5232
(dp5233
g1376
I-9
sg1377
I412
sbtp5234
sg344
(g2004
(idivisor
TwoPDivisor
p5235
(dp5236
g1376
I-9
sg1377
I424
sbtp5237
sg741
(g1458
(idivisor
TwoPDivisor
p5238
(dp5239
g1376
I-9
sg1377
I462
sbtp5240
sg314
(g1409
(idivisor
TwoPDivisor
p5241
(dp5242
g1376
I-9
sg1377
I441
sbtp5243
sg714
(g1540
(idivisor
TwoPDivisor
p5244
(dp5245
g1376
I-9
sg1377
I445
sbtp5246
sg1049
(g1569
(idivisor
TwoPDivisor
p5247
(dp5248
g1376
I-9
sg1377
I434
sbtp5249
sg651
(g1463
(idivisor
TwoPDivisor
p5250
(dp5251
g1376
I-9
sg1377
I420
sbtp5252
sg952
(g1481
(idivisor
TwoPDivisor
p5253
(dp5254
g1376
I-9
sg1377
I422
sbtp5255
sg302
(g2196
(idivisor
TwoPDivisor
p5256
(dp5257
g1376
I-9
sg1377
I420
sbtp5258
sg537
(g1955
(idivisor
TwoPDivisor
p5259
(dp5260
g1376
I-9
sg1377
I415
sbtp5261
sg342
(g1497
(idivisor
TwoPDivisor
p5262
(dp5263
g1376
I-9
sg1377
I422
sbtp5264
sg935
(g1535
(idivisor
TwoPDivisor
p5265
(dp5266
g1376
I-9
sg1377
I418
sbtp5267
sg54
(g2875
(idivisor
TwoPDivisor
p5268
(dp5269
g1376
I-8
sg1377
I494
sbtp5270
sg1130
(g1486
(idivisor
TwoPDivisor
p5271
(dp5272
g1376
I-9
sg1377
I412
sbtp5273
sg758
(g1394
(idivisor
TwoPDivisor
p5274
(dp5275
g1376
I-9
sg1377
I434
sbtp5276
sg292
(g1527
(idivisor
TwoPDivisor
p5277
(dp5278
g1376
I-9
sg1377
I496
sbtp5279
sg248
(g1915
(idivisor
TwoPDivisor
p5280
(dp5281
g1376
I-9
sg1377
I486
sbtp5282
sg1024
(g1427
(idivisor
TwoPDivisor
p5283
(dp5284
g1376
I-9
sg1377
I454
sbtp5285
sg783
(g1540
(idivisor
TwoPDivisor
p5286
(dp5287
g1376
I-9
sg1377
I442
sbtp5288
sg732
(g1409
(idivisor
TwoPDivisor
p5289
(dp5290
g1376
I-9
sg1377
I427
sbtp5291
sg1021
(g1373
(idivisor
TwoPDivisor
p5292
(dp5293
g1376
I-9
sg1377
I442
sbtp5294
sg1216
(g1569
(idivisor
TwoPDivisor
p5295
(dp5296
g1376
I-9
sg1377
I418
sbtp5297
sg1245
(g1569
(idivisor
TwoPDivisor
p5298
(dp5299
g1376
I-9
sg1377
I414
sbtp5300
sg1017
(g1486
(idivisor
TwoPDivisor
p5301
(dp5302
g1376
I-9
sg1377
I421
sbtp5303
sg65
(g1381
(idivisor
TwoPDivisor
p5304
(dp5305
g1376
I-6
sg1377
I412
sbtp5306
sg611
(g1569
(idivisor
TwoPDivisor
p5307
(dp5308
g1376
I-9
sg1377
I456
sbtp5309
sg492
(g1481
(idivisor
TwoPDivisor
p5310
(dp5311
g1376
I-9
sg1377
I442
sbtp5312
sg1102
(g1427
(idivisor
TwoPDivisor
p5313
(dp5314
g1376
I-9
sg1377
I448
sbtp5315
sg225
(g1453
(idivisor
TwoPDivisor
p5316
(dp5317
g1376
I-8
sg1377
I430
sbtp5318
sg559
(g1386
(idivisor
TwoPDivisor
p5319
(dp5320
g1376
I-9
sg1377
I476
sbtp5321
sg1062
(g1569
(idivisor
TwoPDivisor
p5322
(dp5323
g1376
I-9
sg1377
I433
sbtp5324
sg832
(g1419
(idivisor
TwoPDivisor
p5325
(dp5326
g1376
I-9
sg1377
I469
sbtp5327
sg669
(g1527
(idivisor
TwoPDivisor
p5328
(dp5329
g1376
I-9
sg1377
I477
sbtp5330
sg1196
(g1419
(idivisor
TwoPDivisor
p5331
(dp5332
g1376
I-9
sg1377
I442
sbtp5333
sg745
(g1419
(idivisor
TwoPDivisor
p5334
(dp5335
g1376
I-1
sg1377
I467
sbtp5336
sg210
(g2359
(idivisor
TwoPDivisor
p5337
(dp5338
g1376
I-9
sg1377
I411
sbtp5339
sg100
(g3207
(idivisor
TwoPDivisor
p5340
(dp5341
g1376
I-7
sg1377
I467
sbtp5342
sg296
(g1580
(idivisor
TwoPDivisor
p5343
(dp5344
g1376
I-9
sg1377
I413
sbtp5345
sg1061
(g1540
(idivisor
TwoPDivisor
p5346
(dp5347
g1376
I-9
sg1377
I426
sbtp5348
sg1147
(g1386
(idivisor
TwoPDivisor
p5349
(dp5350
g1376
I-9
sg1377
I441
sbtp5351
sg972
(g1540
(idivisor
TwoPDivisor
p5352
(dp5353
g1376
I-9
sg1377
I432
sbtp5354
sg443
(g1713
(idivisor
TwoPDivisor
p5355
(dp5356
g1376
I-9
sg1377
I413
sbtp5357
sg985
(g1394
(idivisor
TwoPDivisor
p5358
(dp5359
g1376
I-9
sg1377
I422
sbtp5360
sg387
(g1414
(idivisor
TwoPDivisor
p5361
(dp5362
g1376
I-9
sg1377
I436
sbtp5363
sg413
(g1955
(idivisor
TwoPDivisor
p5364
(dp5365
g1376
I-9
sg1377
I419
sbtp5366
sg656
(g1505
(idivisor
TwoPDivisor
p5367
(dp5368
g1376
I-9
sg1377
I429
sbtp5369
sg1067
(g1527
(idivisor
TwoPDivisor
p5370
(dp5371
g1376
I-9
sg1377
I453
sbtp5372
sg737
(g1399
(idivisor
TwoPDivisor
p5373
(dp5374
g1376
I-9
sg1377
I442
sbtp5375
sg1138
(g1527
(idivisor
TwoPDivisor
p5376
(dp5377
g1376
I-9
sg1377
I447
sbtp5378
sg525
(g1399
(idivisor
TwoPDivisor
p5379
(dp5380
g1376
I-9
sg1377
I450
sbtp5381
sg1309
(g1419
(idivisor
TwoPDivisor
p5382
(dp5383
g1376
I-9
sg1377
I426
sbtp5384
sg575
(g1414
(idivisor
TwoPDivisor
p5385
(dp5386
g1376
I-9
sg1377
I430
sbtp5387
sg310
(g1682
(idivisor
TwoPDivisor
p5388
(dp5389
g1376
I-9
sg1377
I432
sbtp5390
sg522
(g1481
(idivisor
TwoPDivisor
p5391
(dp5392
g1376
I-9
sg1377
I441
sbtp5393
sg614
(g1386
(idivisor
TwoPDivisor
p5394
(dp5395
g1376
I-9
sg1377
I472
sbtp5396
sg658
(g1535
(idivisor
TwoPDivisor
p5397
(dp5398
g1376
I-9
sg1377
I431
sbtp5399
sg557
(g1373
(idivisor
TwoPDivisor
p5400
(dp5401
g1376
I-9
sg1377
I464
sbtp5402
sg854
(g1463
(idivisor
TwoPDivisor
p5403
(dp5404
g1376
I-9
sg1377
I411
sbtp5405
sg738
(g1540
(idivisor
TwoPDivisor
p5406
(dp5407
g1376
I-9
sg1377
I444
sbtp5408
sg9
(g2359
(idivisor
TwoPDivisor
p5409
(dp5410
g1376
I-6
sg1377
I412
sbtp5411
sg157
(g4457
(idivisor
TwoPDivisor
p5412
(dp5413
g1376
I-9
sg1377
I485
sbtp5414
sg817
(g1414
(idivisor
TwoPDivisor
p5415
(dp5416
g1376
I-9
sg1377
I420
sbtp5417
sg1080
(g1419
(idivisor
TwoPDivisor
p5418
(dp5419
g1376
I-9
sg1377
I453
sbtp5420
sg316
(g3427
(idivisor
TwoPDivisor
p5421
(dp5422
g1376
I-7
sg1377
I443
sbtp5423
sg1053
(g1427
(idivisor
TwoPDivisor
p5424
(dp5425
g1376
I-9
sg1377
I452
sbtp5426
sg1033
(g1399
(idivisor
TwoPDivisor
p5427
(dp5428
g1376
I-9
sg1377
I426
sbtp5429
sg488
(g1414
(idivisor
TwoPDivisor
p5430
(dp5431
g1376
I-9
sg1377
I433
sbtp5432
sg1201
(g1458
(idivisor
TwoPDivisor
p5433
(dp5434
g1376
I-9
sg1377
I431
sbtp5435
sg1038
(g1386
(idivisor
TwoPDivisor
p5436
(dp5437
g1376
I-9
sg1377
I450
sbtp5438
sg1364
(g1527
(idivisor
TwoPDivisor
p5439
(dp5440
g1376
I-9
sg1377
I412
sbtp5441
sg754
(g1505
(idivisor
TwoPDivisor
p5442
(dp5443
g1376
I-9
sg1377
I425
sbtp5444
sg1034
(g1540
(idivisor
TwoPDivisor
p5445
(dp5446
g1376
I-9
sg1377
I428
sbtp5447
sg628
(g1473
(idivisor
TwoPDivisor
p5448
(dp5449
g1376
I-9
sg1377
I424
sbtp5450
sg666
(g1458
(idivisor
TwoPDivisor
p5451
(dp5452
g1376
I-1
sg1377
I458
sbtp5453
sg1077
(g1386
(idivisor
TwoPDivisor
p5454
(dp5455
g1376
I-9
sg1377
I447
sbtp5456
sg844
(g1486
(idivisor
TwoPDivisor
p5457
(dp5458
g1376
I-9
sg1377
I431
sbtp5459
sg791
(g1453
(idivisor
TwoPDivisor
p5460
(dp5461
g1376
I-9
sg1377
I412
sbtp5462
sg55
(g3105
(idivisor
TwoPDivisor
p5463
(dp5464
g1376
I-9
sg1377
I496
sbtp5465
sg40
(g5032
(idivisor
TwoPDivisor
p5466
(dp5467
g1376
I-6
sg1377
I458
sbtp5468
sg1003
(g1399
(idivisor
TwoPDivisor
p5469
(dp5470
g1376
I-9
sg1377
I428
sbtp5471
sg5
(g1760
(idivisor
TwoPDivisor
p5472
(dp5473
g1376
I-9
sg1377
I411
sbtp5474
sg926
(g1458
(idivisor
TwoPDivisor
p5475
(dp5476
g1376
I-9
sg1377
I453
sbtp5477
sg1008
(g1386
(idivisor
TwoPDivisor
p5478
(dp5479
g1376
I-9
sg1377
I452
sbtp5480
sg1285
(g1419
(idivisor
TwoPDivisor
p5481
(dp5482
g1376
I-9
sg1377
I430
sbtp5483
sg567
(g1738
(idivisor
TwoPDivisor
p5484
(dp5485
g1376
I-9
sg1377
I416
sbtp5486
sg15
(g2048
(idivisor
TwoPDivisor
p5487
(dp5488
g1376
I-8
sg1377
I421
sbtp5489
sg509
(g1497
(idivisor
TwoPDivisor
p5490
(dp5491
g1376
I-9
sg1377
I417
sbtp5492
sg867
(g1569
(idivisor
TwoPDivisor
p5493
(dp5494
g1376
I-9
sg1377
I445
sbtp5495
sg469
(g1386
(idivisor
TwoPDivisor
p5496
(dp5497
g1376
I-9
sg1377
I479
sbtp5498
sg1163
(g1569
(idivisor
TwoPDivisor
p5499
(dp5500
g1376
I-9
sg1377
I424
sbtp5501
sg17
(g1653
(idivisor
TwoPDivisor
p5502
(dp5503
g1376
I-6
sg1377
I421
sbtp5504
sg131
(g2004
(idivisor
TwoPDivisor
p5505
(dp5506
g1376
I-9
sg1377
I429
sbtp5507
sg981
(g1505
(idivisor
TwoPDivisor
p5508
(dp5509
g1376
I-9
sg1377
I413
sbtp5510
sg234
(g3427
(idivisor
TwoPDivisor
p5511
(dp5512
g1376
I-7
sg1377
I445
sbtp5513
sg407
(g1604
(idivisor
TwoPDivisor
p5514
(dp5515
g1376
I-9
sg1377
I411
sbtp5516
sg482
(g2170
(idivisor
TwoPDivisor
p5517
(dp5518
g1376
I-9
sg1377
I421
sbtp5519
sg1070
(g1394
(idivisor
TwoPDivisor
p5520
(dp5521
g1376
I-9
sg1377
I416
sbtp5522
sg1370
(g1419
(idivisor
TwoPDivisor
p5523
(dp5524
g1376
I-9
sg1377
I410
sbtp5525
sg1328
(g1427
(idivisor
TwoPDivisor
p5526
(dp5527
g1376
I-9
sg1377
I419
sbtp5528
sg349
(g1442
(idivisor
TwoPDivisor
p5529
(dp5530
g1376
I-9
sg1377
I432
sbtp5531
sg14
(g1545
(idivisor
TwoPDivisor
p5532
(dp5533
g1376
I-9
sg1377
I421
sbtp5534
sg1149
(g1527
(idivisor
TwoPDivisor
p5535
(dp5536
g1376
I-9
sg1377
I446
sbtp5537
sg74
(g5176
(idivisor
TwoPDivisor
p5538
(dp5539
g1376
I-9
sg1377
I427
sbtp5540
sg409
(g2048
(idivisor
TwoPDivisor
p5541
(dp5542
g1376
I-9
sg1377
I413
sbtp5543
sg363
(g1814
(idivisor
TwoPDivisor
p5544
(dp5545
g1376
I-9
sg1377
I469
sbtp5546
sg1136
(g1386
(idivisor
TwoPDivisor
p5547
(dp5548
g1376
I-9
sg1377
I442
sbtp5549
sg16
(g1713
(idivisor
TwoPDivisor
p5550
(dp5551
g1376
I-7
sg1377
I421
sbtp5552
sg269
(g1463
(idivisor
TwoPDivisor
p5553
(dp5554
g1376
I-8
sg1377
I431
sbtp5555
sg103
(g3094
(idivisor
TwoPDivisor
p5556
(dp5557
g1376
I-8
sg1377
I476
sbtp5558
sg1366
(g1527
(idivisor
TwoPDivisor
p5559
(dp5560
g1376
I-9
sg1377
I411
sbtp5561
sg810
(g1527
(idivisor
TwoPDivisor
p5562
(dp5563
g1376
I-9
sg1377
I469
sbtp5564
sg438
(g1527
(idivisor
TwoPDivisor
p5565
(dp5566
g1376
I-9
sg1377
I488
sbtp5567
sg695
(g1527
(idivisor
TwoPDivisor
p5568
(dp5569
g1376
I-9
sg1377
I476
sbtp5570
sg435
(g1458
(idivisor
TwoPDivisor
p5571
(dp5572
g1376
I-9
sg1377
I476
sbtp5573
sg1015
(g1481
(idivisor
TwoPDivisor
p5574
(dp5575
g1376
I-9
sg1377
I418
sbtp5576
sg406
(g1580
(idivisor
TwoPDivisor
p5577
(dp5578
g1376
I-9
sg1377
I410
sbtp5579
sg998
(g1409
(idivisor
TwoPDivisor
p5580
(dp5581
g1376
I-9
sg1377
I413
sbtp5582
sg328
(g1458
(idivisor
TwoPDivisor
p5583
(dp5584
g1376
I-9
sg1377
I479
sbtp5585
sg298
(g1545
(idivisor
TwoPDivisor
p5586
(dp5587
g1376
I-9
sg1377
I415
sbtp5588
sg148
(g3697
(idivisor
TwoPDivisor
p5589
(dp5590
g1376
I-7
sg1377
I458
sbtp5591
sg592
(g1955
(idivisor
TwoPDivisor
p5592
(dp5593
g1376
I-9
sg1377
I413
sbtp5594
sg1178
(g1419
(idivisor
TwoPDivisor
p5595
(dp5596
g1376
I-9
sg1377
I444
sbtp5597
sg917
(g1409
(idivisor
TwoPDivisor
p5598
(dp5599
g1376
I-9
sg1377
I418
sbtp5600
sg1113
(g1386
(idivisor
TwoPDivisor
p5601
(dp5602
g1376
I-9
sg1377
I444
sbtp5603
sg78
(g5159
(idivisor
TwoPDivisor
p5604
(dp5605
g1376
I-5
sg1377
I427
sbtp5606
sg1194
(g1427
(idivisor
TwoPDivisor
p5607
(dp5608
g1376
I-9
sg1377
I439
sbtp5609
sg856
(g1442
(idivisor
TwoPDivisor
p5610
(dp5611
g1376
I-9
sg1377
I413
sbtp5612
sg613
(g1458
(idivisor
TwoPDivisor
p5613
(dp5614
g1376
I-9
sg1377
I468
sbtp5615
sg160
(g2903
(idivisor
TwoPDivisor
p5616
(dp5617
g1376
I-9
sg1377
I495
sbtp5618
sg623
(g2170
(idivisor
TwoPDivisor
p5619
(dp5620
g1376
I-9
sg1377
I416
sbtp5621
sg677
(g1463
(idivisor
TwoPDivisor
p5622
(dp5623
g1376
I-9
sg1377
I419
sbtp5624
sg610
(g1540
(idivisor
TwoPDivisor
p5625
(dp5626
g1376
I-9
sg1377
I449
sbtp5627
sg219
(g2196
(idivisor
TwoPDivisor
p5628
(dp5629
g1376
I-8
sg1377
I421
sbtp5630
sg1055
(g1419
(idivisor
TwoPDivisor
p5631
(dp5632
g1376
I-9
sg1377
I455
sbtp5633
sg576
(g1505
(idivisor
TwoPDivisor
p5634
(dp5635
g1376
I-9
sg1377
I432
sbtp5636
sg831
(g1527
(idivisor
TwoPDivisor
p5637
(dp5638
g1376
I-9
sg1377
I468
sbtp5639
sg553
(g1486
(idivisor
TwoPDivisor
p5640
(dp5641
g1376
I-9
sg1377
I443
sbtp5642
sg75
(g2659
(idivisor
TwoPDivisor
p5643
(dp5644
g1376
I-8
sg1377
I427
sbtp5645
sg432
(g1519
(idivisor
TwoPDivisor
p5646
(dp5647
g1376
I-9
sg1377
I460
sbtp5648
sg187
(g4769
(idivisor
TwoPDivisor
p5649
(dp5650
g1376
I-9
sg1377
I443
sbtp5651
sg1275
(g1458
(idivisor
TwoPDivisor
p5652
(dp5653
g1376
I-9
sg1377
I421
sbtp5654
sg385
(g1442
(idivisor
TwoPDivisor
p5655
(dp5656
g1376
I-9
sg1377
I431
sbtp5657
sg1212
(g1427
(idivisor
TwoPDivisor
p5658
(dp5659
g1376
I-9
sg1377
I437
sbtp5660
sg343
(g1738
(idivisor
TwoPDivisor
p5661
(dp5662
g1376
I-9
sg1377
I423
sbtp5663
sg299
(g2048
(idivisor
TwoPDivisor
p5664
(dp5665
g1376
I-9
sg1377
I416
sbtp5666
sg1209
(g1373
(idivisor
TwoPDivisor
p5667
(dp5668
g1376
I-9
sg1377
I425
sbtp5669
sg519
(g1505
(idivisor
TwoPDivisor
p5670
(dp5671
g1376
I-9
sg1377
I434
sbtp5672
sg271
(g1442
(idivisor
TwoPDivisor
p5673
(dp5674
g1376
I-9
sg1377
I434
sbtp5675
sg1145
(g1373
(idivisor
TwoPDivisor
p5676
(dp5677
g1376
I-9
sg1377
I432
sbtp5678
sg85
(g2956
(idivisor
TwoPDivisor
p5679
(dp5680
g1376
I-6
sg1377
I440
sbtp5681
sg757
(g1481
(idivisor
TwoPDivisor
p5682
(dp5683
g1376
I-9
sg1377
I432
sbtp5684
sg815
(g1442
(idivisor
TwoPDivisor
p5685
(dp5686
g1376
I-9
sg1377
I415
sbtp5687
sg625
(g1463
(idivisor
TwoPDivisor
p5688
(dp5689
g1376
I-9
sg1377
I421
sbtp5690
sg263
(g1955
(idivisor
TwoPDivisor
p5691
(dp5692
g1376
I-8
sg1377
I422
sbtp5693
sg203
(g3416
(idivisor
TwoPDivisor
p5694
(dp5695
g1376
I-9
sg1377
I485
sbtp5696
sg685
(g1481
(idivisor
TwoPDivisor
p5697
(dp5698
g1376
I-9
sg1377
I435
sbtp5699
sg433
(g1569
(idivisor
TwoPDivisor
p5700
(dp5701
g1376
I-9
sg1377
I462
sbtp5702
sg351
(g1414
(idivisor
TwoPDivisor
p5703
(dp5704
g1376
I-9
sg1377
I437
sbtp5705
sg1312
(g1386
(idivisor
TwoPDivisor
p5706
(dp5707
g1376
I-9
sg1377
I419
sbtp5708
sg158
(g2287
(idivisor
TwoPDivisor
p5709
(dp5710
g1376
I-9
sg1377
I486
sbtp5711
sg1191
(g1373
(idivisor
TwoPDivisor
p5712
(dp5713
g1376
I-9
sg1377
I427
sbtp5714
sg87
(g4725
(idivisor
TwoPDivisor
p5715
(dp5716
g1376
I-8
sg1377
I444
sbtp5717
sg325
(g1814
(idivisor
TwoPDivisor
p5718
(dp5719
g1376
I-9
sg1377
I470
sbtp5720
sg872
(g1527
(idivisor
TwoPDivisor
p5721
(dp5722
g1376
I-1
sg1377
I458
sbtp5723
sg615
(g1427
(idivisor
TwoPDivisor
p5724
(dp5725
g1376
I-9
sg1377
I477
sbtp5726
sg250
(g1427
(idivisor
TwoPDivisor
p5727
(dp5728
g1376
I-9
sg1377
I495
sbtp5729
ss.