(dp0
S'ind'
p1
(lp2
(I19
I6
tp3
a(I20
I5
tp4
a(I21
I4
tp5
a(I23
I3
tp6
a(I25
I2
tp7
a(I26
I1
tp8
asS'witness'
p9
(dp10
g3
((idivisor
TwoPDivisor
p11
(dp13
S'Q'
p14
I1
sS'P'
p15
I4
sbtp16
sg8
((idivisor
TwoPDivisor
p17
(dp18
g14
I3
sg15
I-6
sbtp19
sg4
((idivisor
TwoPDivisor
p20
(dp21
g14
I3
sg15
I1
sbtp22
sg6
((idivisor
TwoPDivisor
p23
(dp24
g14
I1
sg15
I0
sbtp25
sg5
((idivisor
TwoPDivisor
p26
(dp27
g14
I2
sg15
I1
sbtp28
sg7
((idivisor
TwoPDivisor
p29
(dp30
g14
I2
sg15
I-3
sbtp31
ss.