(dp0
S'ind'
p1
(lp2
(I47
I12
tp3
a(I48
I11
tp4
a(I49
I10
tp5
a(I50
I9
tp6
a(I52
I8
tp7
a(I53
I7
tp8
a(I55
I6
tp9
a(I57
I4
tp10
a(I60
I3
tp11
a(I62
I2
tp12
a(I63
I1
tp13
asS'witness'
p14
(dp15
g12
((idivisor
TwoPDivisor
p16
(dp18
S'Q'
p19
I3
sS'P'
p20
I-8
sbtp21
sg8
((idivisor
TwoPDivisor
p22
(dp23
g19
I4
sg20
I1
sbtp24
sg13
((idivisor
TwoPDivisor
p25
(dp26
g19
I4
sg20
I-12
sbtp27
sg3
((idivisor
TwoPDivisor
p28
(dp29
g19
I1
sg20
I10
sbtp30
sg10
((idivisor
TwoPDivisor
p31
(dp32
g19
I1
sg20
I0
sbtp33
sg7
((idivisor
TwoPDivisor
p34
(dp35
g19
I1
sg20
I5
sbtp36
sg4
((idivisor
TwoPDivisor
p37
(dp38
g19
I4
sg20
I6
sbtp39
sg6
((idivisor
TwoPDivisor
p40
(dp41
g19
I2
sg20
I6
sbtp42
sg9
((idivisor
TwoPDivisor
p43
(dp44
g19
I2
sg20
I1
sbtp45
sg5
((idivisor
TwoPDivisor
p46
(dp47
g19
I3
sg20
I6
sbtp48
sg11
((idivisor
TwoPDivisor
p49
(dp50
g19
I2
sg20
I-4
sbtp51
ss.