(dp0
S'ind'
p1
(lp2
(I0
I341
I0
tp3
a(I1
I260
I42
tp4
a(I1
I261
I40
tp5
a(I1
I262
I39
tp6
a(I1
I263
I38
tp7
a(I1
I264
I37
tp8
a(I1
I267
I36
tp9
a(I1
I268
I35
tp10
a(I1
I269
I32
tp11
a(I1
I270
I31
tp12
a(I1
I272
I29
tp13
a(I1
I275
I30
tp14
a(I1
I276
I28
tp15
a(I1
I278
I23
tp16
a(I1
I279
I22
tp17
a(I1
I282
I25
tp18
a(I1
I283
I24
tp19
a(I1
I284
I21
tp20
a(I1
I290
I20
tp21
a(I1
I291
I18
tp22
a(I1
I292
I14
tp23
a(I1
I297
I16
tp24
a(I1
I298
I15
tp25
a(I1
I300
I7
tp26
a(I1
I305
I12
tp27
a(I1
I306
I10
tp28
a(I1
I312
I9
tp29
a(I1
I313
I8
tp30
a(I1
I314
I5
tp31
a(I1
I320
I6
tp32
a(I1
I327
I4
tp33
a(I1
I328
I3
tp34
a(I1
I335
I2
tp35
a(I2
I260
I40
tp36
a(I2
I261
I39
tp37
a(I2
I262
I38
tp38
a(I2
I263
I37
tp39
a(I2
I264
I36
tp40
a(I2
I267
I35
tp41
a(I2
I268
I32
tp42
a(I2
I269
I31
tp43
a(I2
I271
I29
tp44
a(I2
I274
I30
tp45
a(I2
I275
I28
tp46
a(I2
I277
I23
tp47
a(I2
I278
I22
tp48
a(I2
I282
I24
tp49
a(I2
I283
I21
tp50
a(I2
I284
I16
tp51
a(I2
I289
I20
tp52
a(I2
I290
I18
tp53
a(I2
I291
I14
tp54
a(I2
I297
I15
tp55
a(I2
I299
I7
tp56
a(I2
I304
I12
tp57
a(I2
I305
I10
tp58
a(I2
I312
I8
tp59
a(I2
I313
I5
tp60
a(I2
I319
I6
tp61
a(I2
I320
I4
tp62
a(I2
I327
I3
tp63
a(I2
I334
I2
tp64
a(I3
I260
I39
tp65
a(I3
I261
I38
tp66
a(I3
I262
I37
tp67
a(I3
I263
I36
tp68
a(I3
I266
I35
tp69
a(I3
I267
I32
tp70
a(I3
I268
I31
tp71
a(I3
I269
I30
tp72
a(I3
I270
I29
tp73
a(I3
I274
I28
tp74
a(I3
I276
I23
tp75
a(I3
I277
I22
tp76
a(I3
I281
I24
tp77
a(I3
I282
I21
tp78
a(I3
I283
I16
tp79
a(I3
I289
I18
tp80
a(I3
I290
I14
tp81
a(I3
I296
I15
tp82
a(I3
I297
I12
tp83
a(I3
I298
I7
tp84
a(I3
I304
I10
tp85
a(I3
I305
I6
tp86
a(I3
I311
I8
tp87
a(I3
I312
I5
tp88
a(I3
I319
I4
tp89
a(I3
I326
I3
tp90
a(I3
I328
I2
tp91
a(I4
I260
I38
tp92
a(I4
I261
I37
tp93
a(I4
I262
I36
tp94
a(I4
I265
I35
tp95
a(I4
I266
I32
tp96
a(I4
I267
I31
tp97
a(I4
I268
I30
tp98
a(I4
I269
I29
tp99
a(I4
I273
I28
tp100
a(I4
I274
I24
tp101
a(I4
I275
I23
tp102
a(I4
I276
I22
tp103
a(I4
I281
I21
tp104
a(I4
I282
I16
tp105
a(I4
I283
I15
tp106
a(I4
I288
I18
tp107
a(I4
I289
I14
tp108
a(I4
I290
I8
tp109
a(I4
I296
I12
tp110
a(I4
I297
I7
tp111
a(I4
I303
I10
tp112
a(I4
I304
I6
tp113
a(I4
I311
I5
tp114
a(I4
I318
I4
tp115
a(I4
I321
I3
tp116
a(I4
I327
I2
tp117
a(I5
I260
I37
tp118
a(I5
I261
I36
tp119
a(I5
I264
I35
tp120
a(I5
I265
I32
tp121
a(I5
I266
I31
tp122
a(I5
I267
I30
tp123
a(I5
I268
I29
tp124
a(I5
I272
I28
tp125
a(I5
I273
I24
tp126
a(I5
I274
I23
tp127
a(I5
I275
I22
tp128
a(I5
I280
I21
tp129
a(I5
I281
I16
tp130
a(I5
I282
I15
tp131
a(I5
I288
I14
tp132
a(I5
I289
I8
tp133
a(I5
I295
I12
tp134
a(I5
I296
I7
tp135
a(I5
I303
I6
tp136
a(I5
I310
I5
tp137
a(I5
I314
I4
tp138
a(I5
I320
I3
tp139
a(I5
I326
I2
tp140
a(I6
I260
I36
tp141
a(I6
I263
I35
tp142
a(I6
I264
I32
tp143
a(I6
I265
I31
tp144
a(I6
I266
I30
tp145
a(I6
I267
I29
tp146
a(I6
I271
I28
tp147
a(I6
I272
I24
tp148
a(I6
I273
I23
tp149
a(I6
I274
I22
tp150
a(I6
I279
I21
tp151
a(I6
I280
I16
tp152
a(I6
I281
I15
tp153
a(I6
I287
I14
tp154
a(I6
I288
I8
tp155
a(I6
I295
I7
tp156
a(I6
I302
I6
tp157
a(I6
I307
I5
tp158
a(I6
I313
I4
tp159
a(I6
I319
I3
tp160
a(I6
I321
I2
tp161
a(I7
I262
I35
tp162
a(I7
I263
I32
tp163
a(I7
I264
I31
tp164
a(I7
I265
I30
tp165
a(I7
I266
I29
tp166
a(I7
I270
I28
tp167
a(I7
I271
I24
tp168
a(I7
I272
I23
tp169
a(I7
I273
I22
tp170
a(I7
I278
I21
tp171
a(I7
I279
I16
tp172
a(I7
I280
I15
tp173
a(I7
I286
I14
tp174
a(I7
I287
I8
tp175
a(I7
I294
I7
tp176
a(I7
I300
I6
tp177
a(I7
I306
I5
tp178
a(I7
I312
I4
tp179
a(I7
I318
I3
tp180
a(I7
I320
I2
tp181
a(I8
I261
I35
tp182
a(I8
I262
I32
tp183
a(I8
I263
I31
tp184
a(I8
I264
I30
tp185
a(I8
I265
I29
tp186
a(I8
I269
I28
tp187
a(I8
I270
I24
tp188
a(I8
I271
I23
tp189
a(I8
I272
I22
tp190
a(I8
I277
I21
tp191
a(I8
I278
I16
tp192
a(I8
I279
I15
tp193
a(I8
I285
I14
tp194
a(I8
I286
I8
tp195
a(I8
I293
I7
tp196
a(I8
I299
I6
tp197
a(I8
I305
I5
tp198
a(I8
I311
I4
tp199
a(I8
I314
I3
tp200
a(I8
I319
I2
tp201
a(I9
I260
I35
tp202
a(I9
I261
I32
tp203
a(I9
I262
I31
tp204
a(I9
I263
I30
tp205
a(I9
I264
I29
tp206
a(I9
I268
I28
tp207
a(I9
I269
I24
tp208
a(I9
I270
I23
tp209
a(I9
I271
I22
tp210
a(I9
I276
I21
tp211
a(I9
I277
I16
tp212
a(I9
I278
I15
tp213
a(I9
I284
I14
tp214
a(I9
I285
I8
tp215
a(I9
I292
I7
tp216
a(I9
I298
I6
tp217
a(I9
I304
I5
tp218
a(I9
I310
I4
tp219
a(I9
I313
I3
tp220
a(I9
I318
I2
tp221
a(I10
I260
I32
tp222
a(I10
I261
I31
tp223
a(I10
I262
I30
tp224
a(I10
I263
I29
tp225
a(I10
I267
I28
tp226
a(I10
I268
I24
tp227
a(I10
I269
I23
tp228
a(I10
I270
I22
tp229
a(I10
I275
I21
tp230
a(I10
I276
I16
tp231
a(I10
I277
I15
tp232
a(I10
I283
I14
tp233
a(I10
I284
I8
tp234
a(I10
I291
I7
tp235
a(I10
I297
I6
tp236
a(I10
I303
I5
tp237
a(I10
I307
I4
tp238
a(I10
I312
I3
tp239
a(I10
I314
I2
tp240
a(I11
I260
I31
tp241
a(I11
I261
I30
tp242
a(I11
I262
I29
tp243
a(I11
I266
I28
tp244
a(I11
I267
I24
tp245
a(I11
I268
I23
tp246
a(I11
I269
I22
tp247
a(I11
I274
I21
tp248
a(I11
I275
I16
tp249
a(I11
I276
I15
tp250
a(I11
I282
I14
tp251
a(I11
I283
I8
tp252
a(I11
I290
I7
tp253
a(I11
I296
I6
tp254
a(I11
I302
I5
tp255
a(I11
I306
I4
tp256
a(I11
I311
I3
tp257
a(I11
I313
I2
tp258
a(I12
I260
I30
tp259
a(I12
I261
I29
tp260
a(I12
I265
I28
tp261
a(I12
I266
I24
tp262
a(I12
I267
I23
tp263
a(I12
I268
I22
tp264
a(I12
I273
I21
tp265
a(I12
I274
I16
tp266
a(I12
I275
I15
tp267
a(I12
I281
I14
tp268
a(I12
I282
I8
tp269
a(I12
I289
I7
tp270
a(I12
I295
I6
tp271
a(I12
I300
I5
tp272
a(I12
I305
I4
tp273
a(I12
I310
I3
tp274
a(I12
I312
I2
tp275
a(I13
I260
I29
tp276
a(I13
I264
I28
tp277
a(I13
I265
I24
tp278
a(I13
I266
I23
tp279
a(I13
I267
I22
tp280
a(I13
I272
I21
tp281
a(I13
I273
I16
tp282
a(I13
I274
I15
tp283
a(I13
I280
I14
tp284
a(I13
I281
I8
tp285
a(I13
I288
I7
tp286
a(I13
I294
I6
tp287
a(I13
I299
I5
tp288
a(I13
I304
I4
tp289
a(I13
I307
I3
tp290
a(I13
I311
I2
tp291
a(I14
I263
I28
tp292
a(I14
I264
I24
tp293
a(I14
I265
I23
tp294
a(I14
I266
I22
tp295
a(I14
I271
I21
tp296
a(I14
I272
I16
tp297
a(I14
I273
I15
tp298
a(I14
I279
I14
tp299
a(I14
I280
I8
tp300
a(I14
I287
I7
tp301
a(I14
I293
I6
tp302
a(I14
I298
I5
tp303
a(I14
I303
I4
tp304
a(I14
I306
I3
tp305
a(I14
I310
I2
tp306
a(I15
I262
I28
tp307
a(I15
I263
I24
tp308
a(I15
I264
I23
tp309
a(I15
I265
I22
tp310
a(I15
I270
I21
tp311
a(I15
I271
I16
tp312
a(I15
I272
I15
tp313
a(I15
I278
I14
tp314
a(I15
I279
I8
tp315
a(I15
I286
I7
tp316
a(I15
I292
I6
tp317
a(I15
I297
I5
tp318
a(I15
I302
I4
tp319
a(I15
I305
I3
tp320
a(I15
I307
I2
tp321
a(I16
I261
I28
tp322
a(I16
I262
I24
tp323
a(I16
I263
I23
tp324
a(I16
I264
I22
tp325
a(I16
I269
I21
tp326
a(I16
I270
I16
tp327
a(I16
I271
I15
tp328
a(I16
I277
I14
tp329
a(I16
I278
I8
tp330
a(I16
I285
I7
tp331
a(I16
I291
I6
tp332
a(I16
I296
I5
tp333
a(I16
I300
I4
tp334
a(I16
I304
I3
tp335
a(I16
I306
I2
tp336
a(I17
I260
I28
tp337
a(I17
I261
I24
tp338
a(I17
I262
I23
tp339
a(I17
I263
I22
tp340
a(I17
I268
I21
tp341
a(I17
I269
I16
tp342
a(I17
I270
I15
tp343
a(I17
I276
I14
tp344
a(I17
I277
I8
tp345
a(I17
I284
I7
tp346
a(I17
I290
I6
tp347
a(I17
I295
I5
tp348
a(I17
I299
I4
tp349
a(I17
I303
I3
tp350
a(I17
I305
I2
tp351
a(I18
I260
I24
tp352
a(I18
I261
I23
tp353
a(I18
I262
I22
tp354
a(I18
I267
I21
tp355
a(I18
I268
I16
tp356
a(I18
I269
I15
tp357
a(I18
I275
I14
tp358
a(I18
I276
I8
tp359
a(I18
I283
I7
tp360
a(I18
I289
I6
tp361
a(I18
I294
I5
tp362
a(I18
I298
I4
tp363
a(I18
I302
I3
tp364
a(I18
I304
I2
tp365
a(I19
I260
I23
tp366
a(I19
I261
I22
tp367
a(I19
I266
I21
tp368
a(I19
I267
I16
tp369
a(I19
I268
I15
tp370
a(I19
I274
I14
tp371
a(I19
I275
I8
tp372
a(I19
I282
I7
tp373
a(I19
I288
I6
tp374
a(I19
I293
I5
tp375
a(I19
I297
I4
tp376
a(I19
I300
I3
tp377
a(I19
I303
I2
tp378
a(I20
I260
I22
tp379
a(I20
I265
I21
tp380
a(I20
I266
I16
tp381
a(I20
I267
I15
tp382
a(I20
I273
I14
tp383
a(I20
I274
I8
tp384
a(I20
I281
I7
tp385
a(I20
I287
I6
tp386
a(I20
I292
I5
tp387
a(I20
I296
I4
tp388
a(I20
I299
I3
tp389
a(I20
I302
I2
tp390
a(I21
I264
I21
tp391
a(I21
I265
I16
tp392
a(I21
I266
I15
tp393
a(I21
I272
I14
tp394
a(I21
I273
I8
tp395
a(I21
I280
I7
tp396
a(I21
I286
I6
tp397
a(I21
I291
I5
tp398
a(I21
I295
I4
tp399
a(I21
I298
I3
tp400
a(I21
I300
I2
tp401
a(I22
I263
I21
tp402
a(I22
I264
I16
tp403
a(I22
I265
I15
tp404
a(I22
I271
I14
tp405
a(I22
I272
I8
tp406
a(I22
I279
I7
tp407
a(I22
I285
I6
tp408
a(I22
I290
I5
tp409
a(I22
I294
I4
tp410
a(I22
I297
I3
tp411
a(I22
I299
I2
tp412
a(I23
I262
I21
tp413
a(I23
I263
I16
tp414
a(I23
I264
I15
tp415
a(I23
I270
I14
tp416
a(I23
I271
I8
tp417
a(I23
I278
I7
tp418
a(I23
I284
I6
tp419
a(I23
I289
I5
tp420
a(I23
I293
I4
tp421
a(I23
I296
I3
tp422
a(I23
I298
I2
tp423
a(I24
I261
I21
tp424
a(I24
I262
I16
tp425
a(I24
I263
I15
tp426
a(I24
I269
I14
tp427
a(I24
I270
I8
tp428
a(I24
I277
I7
tp429
a(I24
I283
I6
tp430
a(I24
I288
I5
tp431
a(I24
I292
I4
tp432
a(I24
I295
I3
tp433
a(I24
I297
I2
tp434
a(I25
I260
I21
tp435
a(I25
I261
I16
tp436
a(I25
I262
I15
tp437
a(I25
I268
I14
tp438
a(I25
I269
I8
tp439
a(I25
I276
I7
tp440
a(I25
I282
I6
tp441
a(I25
I287
I5
tp442
a(I25
I291
I4
tp443
a(I25
I294
I3
tp444
a(I25
I296
I2
tp445
a(I26
I260
I16
tp446
a(I26
I261
I15
tp447
a(I26
I267
I14
tp448
a(I26
I268
I8
tp449
a(I26
I275
I7
tp450
a(I26
I281
I6
tp451
a(I26
I286
I5
tp452
a(I26
I290
I4
tp453
a(I26
I293
I3
tp454
a(I26
I295
I2
tp455
a(I27
I260
I15
tp456
a(I27
I266
I14
tp457
a(I27
I267
I8
tp458
a(I27
I274
I7
tp459
a(I27
I280
I6
tp460
a(I27
I285
I5
tp461
a(I27
I289
I4
tp462
a(I27
I292
I3
tp463
a(I27
I294
I2
tp464
a(I28
I265
I14
tp465
a(I28
I266
I8
tp466
a(I28
I273
I7
tp467
a(I28
I279
I6
tp468
a(I28
I284
I5
tp469
a(I28
I288
I4
tp470
a(I28
I291
I3
tp471
a(I28
I293
I2
tp472
a(I29
I264
I14
tp473
a(I29
I265
I8
tp474
a(I29
I272
I7
tp475
a(I29
I278
I6
tp476
a(I29
I283
I5
tp477
a(I29
I287
I4
tp478
a(I29
I290
I3
tp479
a(I29
I292
I2
tp480
a(I30
I263
I14
tp481
a(I30
I264
I8
tp482
a(I30
I271
I7
tp483
a(I30
I277
I6
tp484
a(I30
I282
I5
tp485
a(I30
I286
I4
tp486
a(I30
I289
I3
tp487
a(I30
I291
I2
tp488
a(I31
I262
I14
tp489
a(I31
I263
I8
tp490
a(I31
I270
I7
tp491
a(I31
I276
I6
tp492
a(I31
I281
I5
tp493
a(I31
I285
I4
tp494
a(I31
I288
I3
tp495
a(I31
I290
I2
tp496
a(I32
I261
I14
tp497
a(I32
I262
I8
tp498
a(I32
I269
I7
tp499
a(I32
I275
I6
tp500
a(I32
I280
I5
tp501
a(I32
I284
I4
tp502
a(I32
I287
I3
tp503
a(I32
I289
I2
tp504
a(I33
I260
I14
tp505
a(I33
I261
I8
tp506
a(I33
I268
I7
tp507
a(I33
I274
I6
tp508
a(I33
I279
I5
tp509
a(I33
I283
I4
tp510
a(I33
I286
I3
tp511
a(I33
I288
I2
tp512
a(I34
I260
I8
tp513
a(I34
I267
I7
tp514
a(I34
I273
I6
tp515
a(I34
I278
I5
tp516
a(I34
I282
I4
tp517
a(I34
I285
I3
tp518
a(I34
I287
I2
tp519
a(I35
I266
I7
tp520
a(I35
I272
I6
tp521
a(I35
I277
I5
tp522
a(I35
I281
I4
tp523
a(I35
I284
I3
tp524
a(I35
I286
I2
tp525
a(I36
I265
I7
tp526
a(I36
I271
I6
tp527
a(I36
I276
I5
tp528
a(I36
I280
I4
tp529
a(I36
I283
I3
tp530
a(I36
I285
I2
tp531
a(I37
I264
I7
tp532
a(I37
I270
I6
tp533
a(I37
I275
I5
tp534
a(I37
I279
I4
tp535
a(I37
I282
I3
tp536
a(I37
I284
I2
tp537
a(I38
I263
I7
tp538
a(I38
I269
I6
tp539
a(I38
I274
I5
tp540
a(I38
I278
I4
tp541
a(I38
I281
I3
tp542
a(I38
I283
I2
tp543
a(I39
I262
I7
tp544
a(I39
I268
I6
tp545
a(I39
I273
I5
tp546
a(I39
I277
I4
tp547
a(I39
I280
I3
tp548
a(I39
I282
I2
tp549
a(I40
I261
I7
tp550
a(I40
I267
I6
tp551
a(I40
I272
I5
tp552
a(I40
I276
I4
tp553
a(I40
I279
I3
tp554
a(I40
I281
I2
tp555
a(I41
I260
I7
tp556
a(I41
I266
I6
tp557
a(I41
I271
I5
tp558
a(I41
I275
I4
tp559
a(I41
I278
I3
tp560
a(I41
I280
I2
tp561
a(I42
I265
I6
tp562
a(I42
I270
I5
tp563
a(I42
I274
I4
tp564
a(I42
I277
I3
tp565
a(I42
I279
I2
tp566
a(I43
I264
I6
tp567
a(I43
I269
I5
tp568
a(I43
I273
I4
tp569
a(I43
I276
I3
tp570
a(I43
I278
I2
tp571
a(I44
I263
I6
tp572
a(I44
I268
I5
tp573
a(I44
I272
I4
tp574
a(I44
I275
I3
tp575
a(I44
I277
I2
tp576
a(I45
I262
I6
tp577
a(I45
I267
I5
tp578
a(I45
I271
I4
tp579
a(I45
I274
I3
tp580
a(I45
I276
I2
tp581
a(I46
I261
I6
tp582
a(I46
I266
I5
tp583
a(I46
I270
I4
tp584
a(I46
I273
I3
tp585
a(I46
I275
I2
tp586
a(I47
I260
I6
tp587
a(I47
I265
I5
tp588
a(I47
I269
I4
tp589
a(I47
I272
I3
tp590
a(I47
I274
I2
tp591
a(I48
I264
I5
tp592
a(I48
I268
I4
tp593
a(I48
I271
I3
tp594
a(I48
I273
I2
tp595
a(I49
I263
I5
tp596
a(I49
I267
I4
tp597
a(I49
I270
I3
tp598
a(I49
I272
I2
tp599
a(I50
I262
I5
tp600
a(I50
I266
I4
tp601
a(I50
I269
I3
tp602
a(I50
I271
I2
tp603
a(I51
I261
I5
tp604
a(I51
I265
I4
tp605
a(I51
I268
I3
tp606
a(I51
I270
I2
tp607
a(I52
I260
I5
tp608
a(I52
I264
I4
tp609
a(I52
I267
I3
tp610
a(I52
I269
I2
tp611
a(I53
I263
I4
tp612
a(I53
I266
I3
tp613
a(I53
I268
I2
tp614
a(I54
I262
I4
tp615
a(I54
I265
I3
tp616
a(I54
I267
I2
tp617
a(I55
I261
I4
tp618
a(I55
I264
I3
tp619
a(I55
I266
I2
tp620
a(I56
I260
I4
tp621
a(I56
I263
I3
tp622
a(I56
I265
I2
tp623
a(I57
I262
I3
tp624
a(I57
I264
I2
tp625
a(I58
I261
I3
tp626
a(I58
I263
I2
tp627
a(I59
I260
I3
tp628
a(I59
I262
I2
tp629
a(I60
I261
I2
tp630
a(I61
I260
I2
tp631
asS'witness'
p632
(dp633
g555
((idivisor
TwoPDivisor
p634
(dp636
S'Q'
p637
I0
sS'P'
p638
I-34
sb(idivisor
TwoPDivisor
p639
(dp640
g637
I-1
sg638
I282
sbtp641
sg146
((idivisor
TwoPDivisor
p642
(dp643
g637
I0
sg638
I29
sb(idivisor
TwoPDivisor
p644
(dp645
g637
I-1
sg638
I268
sbtp646
sg9
((idivisor
TwoPDivisor
p647
(dp648
g637
I0
sg638
I34
sb(idivisor
TwoPDivisor
p649
(dp650
g637
I-1
sg638
I268
sbtp651
sg505
((idivisor
TwoPDivisor
p652
(dp653
g637
I0
sg638
I9
sb(idivisor
TwoPDivisor
p654
(dp655
g637
I-1
sg638
I261
sbtp656
sg630
(g634
(idivisor
TwoPDivisor
p657
(dp658
g637
I-1
sg638
I262
sbtp659
sg289
((idivisor
TwoPDivisor
p660
(dp661
g637
I0
sg638
I-20
sb(idivisor
TwoPDivisor
p662
(dp663
g637
I-1
sg638
I305
sbtp664
sg560
((idivisor
TwoPDivisor
p665
(dp666
g637
I0
sg638
I-27
sb(idivisor
TwoPDivisor
p667
(dp668
g637
I-1
sg638
I279
sbtp669
sg481
(g652
(idivisor
TwoPDivisor
p670
(dp671
g637
I-1
sg638
I264
sbtp672
sg225
(g642
(idivisor
TwoPDivisor
p673
(dp674
g637
I-1
sg638
I264
sbtp675
sg168
((idivisor
TwoPDivisor
p676
(dp677
g637
I0
sg638
I24
sb(idivisor
TwoPDivisor
p678
(dp679
g637
I-1
sg638
I272
sbtp680
sg248
((idivisor
TwoPDivisor
p681
(dp682
g637
I0
sg638
I17
sb(idivisor
TwoPDivisor
p683
(dp684
g637
I-1
sg638
I275
sbtp685
sg490
((idivisor
TwoPDivisor
p686
(dp687
g637
I0
sg638
I8
sb(idivisor
TwoPDivisor
p688
(dp689
g637
I-1
sg638
I264
sbtp690
sg468
((idivisor
TwoPDivisor
p691
(dp692
g637
I0
sg638
I-6
sb(idivisor
TwoPDivisor
p693
(dp694
g637
I-1
sg638
I280
sbtp695
sg28
((idivisor
TwoPDivisor
p696
(dp697
g637
I0
sg638
I-5
sb(idivisor
TwoPDivisor
p698
(dp699
g637
I-1
sg638
I307
sbtp700
sg489
(g652
(idivisor
TwoPDivisor
p701
(dp702
g637
I-1
sg638
I263
sbtp703
sg500
(g691
(idivisor
TwoPDivisor
p704
(dp705
g637
I-1
sg638
I276
sbtp706
sg356
((idivisor
TwoPDivisor
p707
(dp708
g637
I0
sg638
I16
sb(idivisor
TwoPDivisor
p709
(dp710
g637
I-1
sg638
I269
sbtp711
sg491
((idivisor
TwoPDivisor
p712
(dp713
g637
I0
sg638
I1
sb(idivisor
TwoPDivisor
p714
(dp715
g637
I-1
sg638
I271
sbtp716
sg276
(g642
(idivisor
TwoPDivisor
p717
(dp718
g637
I-1
sg638
I261
sbtp719
sg21
((idivisor
TwoPDivisor
p720
(dp721
g637
I0
sg638
I11
sb(idivisor
TwoPDivisor
p722
(dp723
g637
I-1
sg638
I291
sbtp724
sg520
(g712
(idivisor
TwoPDivisor
p725
(dp726
g637
I-1
sg638
I267
sbtp727
sg232
((idivisor
TwoPDivisor
p728
(dp729
g637
I0
sg638
I15
sb(idivisor
TwoPDivisor
p730
(dp731
g637
I-1
sg638
I278
sbtp732
sg70
((idivisor
TwoPDivisor
p733
(dp734
g637
I0
sg638
I32
sb(idivisor
TwoPDivisor
p735
(dp736
g637
I-1
sg638
I268
sbtp737
sg320
(g665
(idivisor
TwoPDivisor
p738
(dp739
g637
I-1
sg638
I306
sbtp740
sg89
(g660
(idivisor
TwoPDivisor
p741
(dp742
g637
I-1
sg638
I320
sbtp743
sg291
(g634
(idivisor
TwoPDivisor
p744
(dp745
g637
I-1
sg638
I312
sbtp746
sg159
(g660
(idivisor
TwoPDivisor
p747
(dp748
g637
I-1
sg638
I314
sbtp749
sg24
((idivisor
TwoPDivisor
p750
(dp751
g637
I0
sg638
I4
sb(idivisor
TwoPDivisor
p752
(dp753
g637
I-1
sg638
I298
sbtp754
sg13
(g642
(idivisor
TwoPDivisor
p755
(dp756
g637
I-1
sg638
I273
sbtp757
sg147
((idivisor
TwoPDivisor
p758
(dp759
g637
I0
sg638
I25
sb(idivisor
TwoPDivisor
p760
(dp761
g637
I-1
sg638
I272
sbtp762
sg568
((idivisor
TwoPDivisor
p763
(dp764
g637
I0
sg638
I-13
sb(idivisor
TwoPDivisor
p765
(dp766
g637
I-1
sg638
I270
sbtp767
sg176
(g712
(idivisor
TwoPDivisor
p768
(dp769
g637
I-1
sg638
I295
sbtp770
sg111
(g712
(idivisor
TwoPDivisor
p771
(dp772
g637
I-1
sg638
I298
sbtp773
sg269
(g686
(idivisor
TwoPDivisor
p774
(dp775
g637
I-1
sg638
I283
sbtp776
sg23
(g652
(idivisor
TwoPDivisor
p777
(dp778
g637
I-1
sg638
I293
sbtp779
sg402
(g681
(idivisor
TwoPDivisor
p780
(dp781
g637
I-1
sg638
I264
sbtp782
sg398
(g763
(idivisor
TwoPDivisor
p783
(dp784
g637
I-1
sg638
I292
sbtp785
sg133
(g686
(idivisor
TwoPDivisor
p786
(dp787
g637
I-1
sg638
I290
sbtp788
sg439
(g686
(idivisor
TwoPDivisor
p789
(dp790
g637
I-1
sg638
I270
sbtp791
sg334
(g660
(idivisor
TwoPDivisor
p792
(dp793
g637
I-1
sg638
I301
sbtp794
sg167
(g758
(idivisor
TwoPDivisor
p795
(dp796
g637
I-1
sg638
I271
sbtp797
sg469
(g763
(idivisor
TwoPDivisor
p798
(dp799
g637
I-1
sg638
I285
sbtp800
sg105
(g707
(idivisor
TwoPDivisor
p801
(dp802
g637
I-1
sg638
I283
sbtp803
sg307
(g758
(idivisor
TwoPDivisor
p804
(dp805
g637
I-1
sg638
I263
sbtp806
sg193
(g728
(idivisor
TwoPDivisor
p807
(dp808
g637
I-1
sg638
I280
sbtp809
sg69
((idivisor
TwoPDivisor
p810
(dp811
g637
I0
sg638
I33
sb(idivisor
TwoPDivisor
p812
(dp813
g637
I-1
sg638
I267
sbtp814
sg41
(g810
(idivisor
TwoPDivisor
p815
(dp816
g637
I-1
sg638
I268
sbtp817
sg211
(g681
(idivisor
TwoPDivisor
p818
(dp819
g637
I-1
sg638
I277
sbtp820
sg542
(g665
(idivisor
TwoPDivisor
p821
(dp822
g637
I-1
sg638
I282
sbtp823
sg545
(g691
(idivisor
TwoPDivisor
p824
(dp825
g637
I-1
sg638
I269
sbtp826
sg565
(g665
(idivisor
TwoPDivisor
p827
(dp828
g637
I-1
sg638
I278
sbtp829
sg237
(g763
(idivisor
TwoPDivisor
p830
(dp831
g637
I-1
sg638
I304
sbtp832
sg567
(g691
(idivisor
TwoPDivisor
p833
(dp834
g637
I-1
sg638
I265
sbtp835
sg366
((idivisor
TwoPDivisor
p836
(dp837
g637
I0
sg638
I23
sb(idivisor
TwoPDivisor
p838
(dp839
g637
I-1
sg638
I261
sbtp840
sg118
((idivisor
TwoPDivisor
p841
(dp842
g637
I0
sg638
I37
sb(idivisor
TwoPDivisor
p843
(dp844
g637
I-1
sg638
I261
sbtp845
sg15
(g758
(idivisor
TwoPDivisor
p846
(dp847
g637
I-1
sg638
I277
sbtp848
sg300
(g686
(idivisor
TwoPDivisor
p849
(dp850
g637
I-1
sg638
I281
sbtp851
sg143
(g733
(idivisor
TwoPDivisor
p852
(dp853
g637
I-1
sg638
I265
sbtp854
sg127
(g836
(idivisor
TwoPDivisor
p855
(dp856
g637
I-1
sg638
I275
sbtp857
sg112
(g696
(idivisor
TwoPDivisor
p858
(dp859
g637
I-1
sg638
I304
sbtp860
sg236
(g691
(idivisor
TwoPDivisor
p861
(dp862
g637
I-1
sg638
I298
sbtp863
sg479
(g665
(idivisor
TwoPDivisor
p864
(dp865
g637
I-1
sg638
I291
sbtp866
sg538
(g712
(idivisor
TwoPDivisor
p867
(dp868
g637
I-1
sg638
I264
sbtp869
sg383
(g652
(idivisor
TwoPDivisor
p870
(dp871
g637
I-1
sg638
I274
sbtp872
sg554
(g665
(idivisor
TwoPDivisor
p873
(dp874
g637
I-1
sg638
I280
sbtp875
sg178
(g763
(idivisor
TwoPDivisor
p876
(dp877
g637
I-1
sg638
I307
sbtp878
sg103
((idivisor
TwoPDivisor
p879
(dp880
g637
I0
sg638
I22
sb(idivisor
TwoPDivisor
p881
(dp882
g637
I-1
sg638
I277
sbtp883
sg549
(g634
(idivisor
TwoPDivisor
p884
(dp885
g637
I-1
sg638
I283
sbtp886
sg376
(g660
(idivisor
TwoPDivisor
p887
(dp888
g637
I-1
sg638
I298
sbtp889
sg299
(g652
(idivisor
TwoPDivisor
p890
(dp891
g637
I-1
sg638
I280
sbtp892
sg217
(g691
(idivisor
TwoPDivisor
p893
(dp894
g637
I-1
sg638
I299
sbtp895
sg214
(g652
(idivisor
TwoPDivisor
p896
(dp897
g637
I-1
sg638
I285
sbtp898
sg436
(g707
(idivisor
TwoPDivisor
p899
(dp900
g637
I-1
sg638
I262
sbtp901
sg581
(g634
(idivisor
TwoPDivisor
p902
(dp903
g637
I-1
sg638
I277
sbtp904
sg450
(g712
(idivisor
TwoPDivisor
p905
(dp906
g637
I-1
sg638
I276
sbtp907
sg628
(g665
(idivisor
TwoPDivisor
p908
(dp909
g637
I-1
sg638
I261
sbtp910
sg599
(g634
(idivisor
TwoPDivisor
p911
(dp912
g637
I-1
sg638
I273
sbtp913
sg29
((idivisor
TwoPDivisor
p914
(dp915
g637
I0
sg638
I-11
sb(idivisor
TwoPDivisor
p916
(dp917
g637
I-1
sg638
I313
sbtp918
sg563
(g763
(idivisor
TwoPDivisor
p919
(dp920
g637
I-1
sg638
I271
sbtp921
sg48
(g879
(idivisor
TwoPDivisor
p922
(dp923
g637
I-1
sg638
I279
sbtp924
sg596
(g763
(idivisor
TwoPDivisor
p925
(dp926
g637
I-1
sg638
I264
sbtp927
sg52
(g720
(idivisor
TwoPDivisor
p928
(dp929
g637
I-1
sg638
I290
sbtp930
sg210
(g879
(idivisor
TwoPDivisor
p931
(dp932
g637
I-1
sg638
I272
sbtp933
sg132
(g652
(idivisor
TwoPDivisor
p934
(dp935
g637
I-1
sg638
I289
sbtp936
sg145
((idivisor
TwoPDivisor
p937
(dp938
g637
I0
sg638
I30
sb(idivisor
TwoPDivisor
p939
(dp940
g637
I-1
sg638
I267
sbtp941
sg323
(g676
(idivisor
TwoPDivisor
p942
(dp943
g637
I-1
sg638
I263
sbtp944
sg488
(g634
(idivisor
TwoPDivisor
p945
(dp946
g637
I-1
sg638
I292
sbtp947
sg224
(g937
(idivisor
TwoPDivisor
p948
(dp949
g637
I-1
sg638
I263
sbtp950
sg477
(g763
(idivisor
TwoPDivisor
p951
(dp952
g637
I-1
sg638
I284
sbtp953
sg612
(g660
(idivisor
TwoPDivisor
p954
(dp955
g637
I-1
sg638
I264
sbtp956
sg16
(g836
(idivisor
TwoPDivisor
p957
(dp958
g637
I-1
sg638
I279
sbtp959
sg222
(g733
(idivisor
TwoPDivisor
p960
(dp961
g637
I-1
sg638
I261
sbtp962
sg91
(g634
(idivisor
TwoPDivisor
p963
(dp964
g637
I-1
sg638
I329
sbtp965
sg106
(g728
(idivisor
TwoPDivisor
p966
(dp967
g637
I-1
sg638
I284
sbtp968
sg156
(g712
(idivisor
TwoPDivisor
p969
(dp970
g637
I-1
sg638
I296
sbtp971
sg101
(g676
(idivisor
TwoPDivisor
p972
(dp973
g637
I-1
sg638
I275
sbtp974
sg390
(g634
(idivisor
TwoPDivisor
p975
(dp976
g637
I-1
sg638
I303
sbtp977
sg416
(g652
(idivisor
TwoPDivisor
p978
(dp979
g637
I-1
sg638
I271
sbtp980
sg50
(g681
(idivisor
TwoPDivisor
p981
(dp982
g637
I-1
sg638
I284
sbtp983
sg536
(g665
(idivisor
TwoPDivisor
p984
(dp985
g637
I-1
sg638
I283
sbtp986
sg577
(g691
(idivisor
TwoPDivisor
p987
(dp988
g637
I-1
sg638
I263
sbtp989
sg153
(g728
(idivisor
TwoPDivisor
p990
(dp991
g637
I-1
sg638
I282
sbtp992
sg358
(g652
(idivisor
TwoPDivisor
p993
(dp994
g637
I-1
sg638
I276
sbtp995
sg99
(g642
(idivisor
TwoPDivisor
p996
(dp997
g637
I-1
sg638
I270
sbtp998
sg449
(g686
(idivisor
TwoPDivisor
p999
(dp1000
g637
I-1
sg638
I269
sbtp1001
sg418
(g712
(idivisor
TwoPDivisor
p1002
(dp1003
g637
I-1
sg638
I279
sbtp1004
sg152
(g707
(idivisor
TwoPDivisor
p1005
(dp1006
g637
I-1
sg638
I281
sbtp1007
sg463
(g665
(idivisor
TwoPDivisor
p1008
(dp1009
g637
I-1
sg638
I293
sbtp1010
sg164
((idivisor
TwoPDivisor
p1011
(dp1012
g637
I0
sg638
I31
sb(idivisor
TwoPDivisor
p1013
(dp1014
g637
I-1
sg638
I265
sbtp1015
sg498
(g686
(idivisor
TwoPDivisor
p1016
(dp1017
g637
I-1
sg638
I263
sbtp1018
sg161
(g634
(idivisor
TwoPDivisor
p1019
(dp1020
g637
I-1
sg638
I322
sbtp1021
sg621
(g660
(idivisor
TwoPDivisor
p1022
(dp1023
g637
I-1
sg638
I261
sbtp1024
sg76
(g879
(idivisor
TwoPDivisor
p1025
(dp1026
g637
I-1
sg638
I278
sbtp1027
sg198
(g763
(idivisor
TwoPDivisor
p1028
(dp1029
g637
I-1
sg638
I306
sbtp1030
sg608
(g763
(idivisor
TwoPDivisor
p1031
(dp1032
g637
I-1
sg638
I261
sbtp1033
sg614
(g634
(idivisor
TwoPDivisor
p1034
(dp1035
g637
I-1
sg638
I269
sbtp1036
sg395
(g686
(idivisor
TwoPDivisor
p1037
(dp1038
g637
I-1
sg638
I274
sbtp1039
sg348
(g763
(idivisor
TwoPDivisor
p1040
(dp1041
g637
I-1
sg638
I296
sbtp1042
sg625
(g634
(idivisor
TwoPDivisor
p1043
(dp1044
g637
I-1
sg638
I265
sbtp1045
sg502
(g660
(idivisor
TwoPDivisor
p1046
(dp1047
g637
I-1
sg638
I285
sbtp1048
sg271
(g691
(idivisor
TwoPDivisor
p1049
(dp1050
g637
I-1
sg638
I296
sbtp1051
sg465
(g652
(idivisor
TwoPDivisor
p1052
(dp1053
g637
I-1
sg638
I266
sbtp1054
sg62
(g660
(idivisor
TwoPDivisor
p1055
(dp1056
g637
I-1
sg638
I321
sbtp1057
sg267
(g728
(idivisor
TwoPDivisor
p1058
(dp1059
g637
I-1
sg638
I276
sbtp1060
sg51
(g707
(idivisor
TwoPDivisor
p1061
(dp1062
g637
I-1
sg638
I285
sbtp1063
sg433
(g665
(idivisor
TwoPDivisor
p1064
(dp1065
g637
I-1
sg638
I296
sbtp1066
sg361
(g691
(idivisor
TwoPDivisor
p1067
(dp1068
g637
I-1
sg638
I290
sbtp1069
sg443
(g660
(idivisor
TwoPDivisor
p1070
(dp1071
g637
I-1
sg638
I292
sbtp1072
sg141
((idivisor
TwoPDivisor
p1073
(dp1074
g637
I0
sg638
I36
sb(idivisor
TwoPDivisor
p1075
(dp1076
g637
I-1
sg638
I261
sbtp1077
sg514
(g712
(idivisor
TwoPDivisor
p1078
(dp1079
g637
I-1
sg638
I268
sbtp1080
sg467
(g712
(idivisor
TwoPDivisor
p1081
(dp1082
g637
I-1
sg638
I274
sbtp1083
sg243
(g642
(idivisor
TwoPDivisor
p1084
(dp1085
g637
I-1
sg638
I263
sbtp1086
sg148
(g676
(idivisor
TwoPDivisor
p1087
(dp1088
g637
I-1
sg638
I273
sbtp1089
sg187
(g758
(idivisor
TwoPDivisor
p1090
(dp1091
g637
I-1
sg638
I270
sbtp1092
sg88
(g763
(idivisor
TwoPDivisor
p1093
(dp1094
g637
I-1
sg638
I313
sbtp1095
sg282
(g707
(idivisor
TwoPDivisor
p1096
(dp1097
g637
I-1
sg638
I274
sbtp1098
sg19
((idivisor
TwoPDivisor
p1099
(dp1100
g637
I0
sg638
I18
sb(idivisor
TwoPDivisor
p1101
(dp1102
g637
I-1
sg638
I284
sbtp1103
sg262
(g676
(idivisor
TwoPDivisor
p1104
(dp1105
g637
I-1
sg638
I267
sbtp1106
sg347
(g691
(idivisor
TwoPDivisor
p1107
(dp1108
g637
I-1
sg638
I291
sbtp1109
sg241
(g1011
(idivisor
TwoPDivisor
p1110
(dp1111
g637
I-1
sg638
I261
sbtp1112
sg461
(g763
(idivisor
TwoPDivisor
p1113
(dp1114
g637
I-1
sg638
I286
sbtp1115
sg205
(g937
(idivisor
TwoPDivisor
p1116
(dp1117
g637
I-1
sg638
I264
sbtp1118
sg189
(g836
(idivisor
TwoPDivisor
p1119
(dp1120
g637
I-1
sg638
I272
sbtp1121
sg534
(g763
(idivisor
TwoPDivisor
p1122
(dp1123
g637
I-1
sg638
I276
sbtp1124
sg129
(g681
(idivisor
TwoPDivisor
p1125
(dp1126
g637
I-1
sg638
I281
sbtp1127
sg253
(g712
(idivisor
TwoPDivisor
p1128
(dp1129
g637
I-1
sg638
I291
sbtp1130
sg74
(g758
(idivisor
TwoPDivisor
p1131
(dp1132
g637
I-1
sg638
I275
sbtp1133
sg150
(g879
(idivisor
TwoPDivisor
p1134
(dp1135
g637
I-1
sg638
I275
sbtp1136
sg524
(g665
(idivisor
TwoPDivisor
p1137
(dp1138
g637
I-1
sg638
I285
sbtp1139
sg79
(g707
(idivisor
TwoPDivisor
p1140
(dp1141
g637
I-1
sg638
I284
sbtp1142
sg445
(g634
(idivisor
TwoPDivisor
p1143
(dp1144
g637
I-1
sg638
I297
sbtp1145
sg272
(g763
(idivisor
TwoPDivisor
p1146
(dp1147
g637
I-1
sg638
I301
sbtp1148
sg328
(g728
(idivisor
TwoPDivisor
p1149
(dp1150
g637
I-1
sg638
I272
sbtp1151
sg92
((idivisor
TwoPDivisor
p1152
(dp1153
g637
I0
sg638
I38
sb(idivisor
TwoPDivisor
p1154
(dp1155
g637
I-1
sg638
I261
sbtp1156
sg331
(g712
(idivisor
TwoPDivisor
p1157
(dp1158
g637
I-1
sg638
I286
sbtp1159
sg87
((idivisor
TwoPDivisor
p1160
(dp1161
g637
I0
sg638
I-12
sb(idivisor
TwoPDivisor
p1162
(dp1163
g637
I-1
sg638
I312
sbtp1164
sg277
(g758
(idivisor
TwoPDivisor
p1165
(dp1166
g637
I-1
sg638
I265
sbtp1167
sg58
(g696
(idivisor
TwoPDivisor
p1168
(dp1169
g637
I-1
sg638
I306
sbtp1170
sg215
(g686
(idivisor
TwoPDivisor
p1171
(dp1172
g637
I-1
sg638
I286
sbtp1173
sg100
(g758
(idivisor
TwoPDivisor
p1174
(dp1175
g637
I-1
sg638
I274
sbtp1176
sg56
(g712
(idivisor
TwoPDivisor
p1177
(dp1178
g637
I-1
sg638
I300
sbtp1179
sg424
(g681
(idivisor
TwoPDivisor
p1180
(dp1181
g637
I-1
sg638
I262
sbtp1182
sg338
(g676
(idivisor
TwoPDivisor
p1183
(dp1184
g637
I-1
sg638
I262
sbtp1185
sg36
((idivisor
TwoPDivisor
p1186
(dp1187
g637
I0
sg638
I40
sb(idivisor
TwoPDivisor
p1188
(dp1189
g637
I-1
sg638
I261
sbtp1190
sg394
(g652
(idivisor
TwoPDivisor
p1191
(dp1192
g637
I-1
sg638
I273
sbtp1193
sg388
(g660
(idivisor
TwoPDivisor
p1194
(dp1195
g637
I-1
sg638
I297
sbtp1196
sg90
(g665
(idivisor
TwoPDivisor
p1197
(dp1198
g637
I-1
sg638
I327
sbtp1199
sg45
((idivisor
TwoPDivisor
p1200
(dp1201
g637
I0
sg638
I26
sb(idivisor
TwoPDivisor
p1202
(dp1203
g637
I-1
sg638
I275
sbtp1204
sg586
(g634
(idivisor
TwoPDivisor
p1205
(dp1206
g637
I-1
sg638
I276
sbtp1207
sg458
(g686
(idivisor
TwoPDivisor
p1208
(dp1209
g637
I-1
sg638
I268
sbtp1210
sg182
(g810
(idivisor
TwoPDivisor
p1211
(dp1212
g637
I-1
sg638
I262
sbtp1213
sg286
(g712
(idivisor
TwoPDivisor
p1214
(dp1215
g637
I-1
sg638
I289
sbtp1216
sg405
(g652
(idivisor
TwoPDivisor
p1217
(dp1218
g637
I-1
sg638
I272
sbtp1219
sg474
(g686
(idivisor
TwoPDivisor
p1220
(dp1221
g637
I-1
sg638
I266
sbtp1222
sg313
(g728
(idivisor
TwoPDivisor
p1223
(dp1224
g637
I-1
sg638
I273
sbtp1225
sg420
(g763
(idivisor
TwoPDivisor
p1226
(dp1227
g637
I-1
sg638
I290
sbtp1228
sg43
(g1011
(idivisor
TwoPDivisor
p1229
(dp1230
g637
I-1
sg638
I270
sbtp1231
sg230
(g681
(idivisor
TwoPDivisor
p1232
(dp1233
g637
I-1
sg638
I276
sbtp1234
sg412
(g634
(idivisor
TwoPDivisor
p1235
(dp1236
g637
I-1
sg638
I300
sbtp1237
sg245
(g676
(idivisor
TwoPDivisor
p1238
(dp1239
g637
I-1
sg638
I268
sbtp1240
sg571
(g634
(idivisor
TwoPDivisor
p1241
(dp1242
g637
I-1
sg638
I279
sbtp1243
sg407
(g712
(idivisor
TwoPDivisor
p1244
(dp1245
g637
I-1
sg638
I280
sbtp1246
sg453
(g660
(idivisor
TwoPDivisor
p1247
(dp1248
g637
I-1
sg638
I291
sbtp1249
sg38
(g1152
(idivisor
TwoPDivisor
p1250
(dp1251
g637
I-1
sg638
I263
sbtp1252
sg122
(g1011
(idivisor
TwoPDivisor
p1253
(dp1254
g637
I-1
sg638
I267
sbtp1255
sg353
(g836
(idivisor
TwoPDivisor
p1256
(dp1257
g637
I-1
sg638
I262
sbtp1258
sg195
(g686
(idivisor
TwoPDivisor
p1259
(dp1260
g637
I-1
sg638
I287
sbtp1261
sg169
(g836
(idivisor
TwoPDivisor
p1262
(dp1263
g637
I-1
sg638
I273
sbtp1264
sg235
(g712
(idivisor
TwoPDivisor
p1265
(dp1266
g637
I-1
sg638
I292
sbtp1267
sg561
(g634
(idivisor
TwoPDivisor
p1268
(dp1269
g637
I-1
sg638
I281
sbtp1270
sg452
(g763
(idivisor
TwoPDivisor
p1271
(dp1272
g637
I-1
sg638
I287
sbtp1273
sg98
(g937
(idivisor
TwoPDivisor
p1274
(dp1275
g637
I-1
sg638
I269
sbtp1276
sg582
(g691
(idivisor
TwoPDivisor
p1277
(dp1278
g637
I-1
sg638
I262
sbtp1279
sg522
(g763
(idivisor
TwoPDivisor
p1280
(dp1281
g637
I-1
sg638
I278
sbtp1282
sg231
(g707
(idivisor
TwoPDivisor
p1283
(dp1284
g637
I-1
sg638
I277
sbtp1285
sg185
(g937
(idivisor
TwoPDivisor
p1286
(dp1287
g637
I-1
sg638
I265
sbtp1288
sg40
(g1073
(idivisor
TwoPDivisor
p1289
(dp1290
g637
I-1
sg638
I265
sbtp1291
sg437
(g728
(idivisor
TwoPDivisor
p1292
(dp1293
g637
I-1
sg638
I263
sbtp1294
sg509
(g763
(idivisor
TwoPDivisor
p1295
(dp1296
g637
I-1
sg638
I280
sbtp1297
sg274
(g665
(idivisor
TwoPDivisor
p1298
(dp1299
g637
I-1
sg638
I311
sbtp1300
sg260
(g642
(idivisor
TwoPDivisor
p1301
(dp1302
g637
I-1
sg638
I262
sbtp1303
sg246
(g836
(idivisor
TwoPDivisor
p1304
(dp1305
g637
I-1
sg638
I269
sbtp1306
sg109
(g686
(idivisor
TwoPDivisor
p1307
(dp1308
g637
I-1
sg638
I291
sbtp1309
sg547
(g660
(idivisor
TwoPDivisor
p1310
(dp1311
g637
I-1
sg638
I278
sbtp1312
sg184
(g1011
(idivisor
TwoPDivisor
p1313
(dp1314
g637
I-1
sg638
I264
sbtp1315
sg264
(g879
(idivisor
TwoPDivisor
p1316
(dp1317
g637
I-1
sg638
I269
sbtp1318
sg569
(g660
(idivisor
TwoPDivisor
p1319
(dp1320
g637
I-1
sg638
I274
sbtp1321
sg288
(g763
(idivisor
TwoPDivisor
p1322
(dp1323
g637
I-1
sg638
I300
sbtp1324
sg592
(g763
(idivisor
TwoPDivisor
p1325
(dp1326
g637
I-1
sg638
I265
sbtp1327
sg515
(g691
(idivisor
TwoPDivisor
p1328
(dp1329
g637
I-1
sg638
I274
sbtp1330
sg325
(g879
(idivisor
TwoPDivisor
p1331
(dp1332
g637
I-1
sg638
I265
sbtp1333
sg54
(g652
(idivisor
TwoPDivisor
p1334
(dp1335
g637
I-1
sg638
I292
sbtp1336
sg350
(g665
(idivisor
TwoPDivisor
p1337
(dp1338
g637
I-1
sg638
I304
sbtp1339
sg114
(g763
(idivisor
TwoPDivisor
p1340
(dp1341
g637
I-1
sg638
I312
sbtp1342
sg487
(g665
(idivisor
TwoPDivisor
p1343
(dp1344
g637
I-1
sg638
I290
sbtp1345
sg492
(g691
(idivisor
TwoPDivisor
p1346
(dp1347
g637
I-1
sg638
I277
sbtp1348
sg228
(g836
(idivisor
TwoPDivisor
p1349
(dp1350
g637
I-1
sg638
I270
sbtp1351
sg521
(g691
(idivisor
TwoPDivisor
p1352
(dp1353
g637
I-1
sg638
I273
sbtp1354
sg476
(g691
(idivisor
TwoPDivisor
p1355
(dp1356
g637
I-1
sg638
I279
sbtp1357
sg607
(g634
(idivisor
TwoPDivisor
p1358
(dp1359
g637
I-1
sg638
I271
sbtp1360
sg335
(g665
(idivisor
TwoPDivisor
p1361
(dp1362
g637
I-1
sg638
I305
sbtp1363
sg275
(g634
(idivisor
TwoPDivisor
p1364
(dp1365
g637
I-1
sg638
I313
sbtp1366
sg508
(g691
(idivisor
TwoPDivisor
p1367
(dp1368
g637
I-1
sg638
I275
sbtp1369
sg473
(g652
(idivisor
TwoPDivisor
p1370
(dp1371
g637
I-1
sg638
I265
sbtp1372
sg617
(g634
(idivisor
TwoPDivisor
p1373
(dp1374
g637
I-1
sg638
I268
sbtp1375
sg27
((idivisor
TwoPDivisor
p1376
(dp1377
g637
I0
sg638
I-4
sb(idivisor
TwoPDivisor
p1378
(dp1379
g637
I-1
sg638
I306
sbtp1380
sg175
(g686
(idivisor
TwoPDivisor
p1381
(dp1382
g637
I-1
sg638
I288
sbtp1383
sg415
(g728
(idivisor
TwoPDivisor
p1384
(dp1385
g637
I-1
sg638
I265
sbtp1386
sg627
(g634
(idivisor
TwoPDivisor
p1387
(dp1388
g637
I-1
sg638
I264
sbtp1389
sg342
(g707
(idivisor
TwoPDivisor
p1390
(dp1391
g637
I-1
sg638
I270
sbtp1392
sg42
(g733
(idivisor
TwoPDivisor
p1393
(dp1394
g637
I-1
sg638
I269
sbtp1395
sg265
(g681
(idivisor
TwoPDivisor
p1396
(dp1397
g637
I-1
sg638
I274
sbtp1398
sg302
(g691
(idivisor
TwoPDivisor
p1399
(dp1400
g637
I-1
sg638
I294
sbtp1401
sg365
(g634
(idivisor
TwoPDivisor
p1402
(dp1403
g637
I-1
sg638
I305
sbtp1404
sg8
(g841
(idivisor
TwoPDivisor
p1405
(dp1406
g637
I-1
sg638
I265
sbtp1407
sg6
((idivisor
TwoPDivisor
p1408
(dp1409
g637
I0
sg638
I39
sb(idivisor
TwoPDivisor
p1410
(dp1411
g637
I-1
sg638
I263
sbtp1412
sg475
(g712
(idivisor
TwoPDivisor
p1413
(dp1414
g637
I-1
sg638
I273
sbtp1415
sg309
(g836
(idivisor
TwoPDivisor
p1416
(dp1417
g637
I-1
sg638
I265
sbtp1418
sg470
(g660
(idivisor
TwoPDivisor
p1419
(dp1420
g637
I-1
sg638
I289
sbtp1421
sg155
(g686
(idivisor
TwoPDivisor
p1422
(dp1423
g637
I-1
sg638
I289
sbtp1424
sg329
(g652
(idivisor
TwoPDivisor
p1425
(dp1426
g637
I-1
sg638
I278
sbtp1427
sg280
(g879
(idivisor
TwoPDivisor
p1428
(dp1429
g637
I-1
sg638
I268
sbtp1430
sg496
(g634
(idivisor
TwoPDivisor
p1431
(dp1432
g637
I-1
sg638
I291
sbtp1433
sg425
(g707
(idivisor
TwoPDivisor
p1434
(dp1435
g637
I-1
sg638
I263
sbtp1436
sg589
(g660
(idivisor
TwoPDivisor
p1437
(dp1438
g637
I-1
sg638
I270
sbtp1439
sg485
(g763
(idivisor
TwoPDivisor
p1440
(dp1441
g637
I-1
sg638
I283
sbtp1442
sg53
((idivisor
TwoPDivisor
p1443
(dp1444
g637
I0
sg638
I10
sb(idivisor
TwoPDivisor
p1445
(dp1446
g637
I-1
sg638
I291
sbtp1447
sg218
(g763
(idivisor
TwoPDivisor
p1448
(dp1449
g637
I-1
sg638
I305
sbtp1450
sg605
(g660
(idivisor
TwoPDivisor
p1451
(dp1452
g637
I-1
sg638
I266
sbtp1453
sg270
(g712
(idivisor
TwoPDivisor
p1454
(dp1455
g637
I-1
sg638
I290
sbtp1456
sg72
(g937
(idivisor
TwoPDivisor
p1457
(dp1458
g637
I-1
sg638
I270
sbtp1459
sg615
(g660
(idivisor
TwoPDivisor
p1460
(dp1461
g637
I-1
sg638
I263
sbtp1462
sg3
((idivisor
TwoPDivisor
p1463
(dp1464
g637
I0
sg638
I-40
sb(idivisor
TwoPDivisor
p1465
(dp1466
g637
I-1
sg638
I342
sbtp1467
sg368
(g681
(idivisor
TwoPDivisor
p1468
(dp1469
g637
I-1
sg638
I267
sbtp1470
sg572
(g691
(idivisor
TwoPDivisor
p1471
(dp1472
g637
I-1
sg638
I264
sbtp1473
sg59
(g1160
(idivisor
TwoPDivisor
p1474
(dp1475
g637
I-1
sg638
I313
sbtp1476
sg314
(g652
(idivisor
TwoPDivisor
p1477
(dp1478
g637
I-1
sg638
I279
sbtp1479
sg346
(g712
(idivisor
TwoPDivisor
p1480
(dp1481
g637
I-1
sg638
I285
sbtp1482
sg574
(g660
(idivisor
TwoPDivisor
p1483
(dp1484
g637
I-1
sg638
I273
sbtp1485
sg595
(g634
(idivisor
TwoPDivisor
p1486
(dp1487
g637
I-1
sg638
I274
sbtp1488
sg579
(g660
(idivisor
TwoPDivisor
p1489
(dp1490
g637
I-1
sg638
I272
sbtp1491
sg455
(g634
(idivisor
TwoPDivisor
p1492
(dp1493
g637
I-1
sg638
I296
sbtp1494
sg250
(g728
(idivisor
TwoPDivisor
p1495
(dp1496
g637
I-1
sg638
I277
sbtp1497
sg597
(g660
(idivisor
TwoPDivisor
p1498
(dp1499
g637
I-1
sg638
I268
sbtp1500
sg380
(g681
(idivisor
TwoPDivisor
p1501
(dp1502
g637
I-1
sg638
I266
sbtp1503
sg527
(g691
(idivisor
TwoPDivisor
p1504
(dp1505
g637
I-1
sg638
I272
sbtp1506
sg67
(g841
(idivisor
TwoPDivisor
p1507
(dp1508
g637
I-1
sg638
I263
sbtp1509
sg501
(g763
(idivisor
TwoPDivisor
p1510
(dp1511
g637
I-1
sg638
I281
sbtp1512
sg317
(g691
(idivisor
TwoPDivisor
p1513
(dp1514
g637
I-1
sg638
I293
sbtp1515
sg180
(g665
(idivisor
TwoPDivisor
p1516
(dp1517
g637
I-1
sg638
I319
sbtp1518
sg529
(g660
(idivisor
TwoPDivisor
p1519
(dp1520
g637
I-1
sg638
I281
sbtp1521
sg544
(g712
(idivisor
TwoPDivisor
p1522
(dp1523
g637
I-1
sg638
I263
sbtp1524
sg151
(g681
(idivisor
TwoPDivisor
p1525
(dp1526
g637
I-1
sg638
I280
sbtp1527
sg427
(g652
(idivisor
TwoPDivisor
p1528
(dp1529
g637
I-1
sg638
I270
sbtp1530
sg158
(g763
(idivisor
TwoPDivisor
p1531
(dp1532
g637
I-1
sg638
I308
sbtp1533
sg107
(g1443
(idivisor
TwoPDivisor
p1534
(dp1535
g637
I-1
sg638
I289
sbtp1536
sg384
(g686
(idivisor
TwoPDivisor
p1537
(dp1538
g637
I-1
sg638
I275
sbtp1539
sg32
((idivisor
TwoPDivisor
p1540
(dp1541
g637
I0
sg638
I-19
sb(idivisor
TwoPDivisor
p1542
(dp1543
g637
I-1
sg638
I321
sbtp1544
sg456
(g728
(idivisor
TwoPDivisor
p1545
(dp1546
g637
I-1
sg638
I261
sbtp1547
sg593
(g660
(idivisor
TwoPDivisor
p1548
(dp1549
g637
I-1
sg638
I269
sbtp1550
sg573
(g763
(idivisor
TwoPDivisor
p1551
(dp1552
g637
I-1
sg638
I269
sbtp1553
sg233
(g652
(idivisor
TwoPDivisor
p1554
(dp1555
g637
I-1
sg638
I284
sbtp1556
sg124
(g642
(idivisor
TwoPDivisor
p1557
(dp1558
g637
I-1
sg638
I269
sbtp1559
sg192
(g707
(idivisor
TwoPDivisor
p1560
(dp1561
g637
I-1
sg638
I279
sbtp1562
sg345
(g686
(idivisor
TwoPDivisor
p1563
(dp1564
g637
I-1
sg638
I278
sbtp1565
sg206
(g642
(idivisor
TwoPDivisor
p1566
(dp1567
g637
I-1
sg638
I265
sbtp1568
sg171
(g681
(idivisor
TwoPDivisor
p1569
(dp1570
g637
I-1
sg638
I279
sbtp1571
sg31
(g763
(idivisor
TwoPDivisor
p1572
(dp1573
g637
I-1
sg638
I315
sbtp1574
sg255
(g763
(idivisor
TwoPDivisor
p1575
(dp1576
g637
I-1
sg638
I303
sbtp1577
sg585
(g665
(idivisor
TwoPDivisor
p1578
(dp1579
g637
I-1
sg638
I274
sbtp1580
sg493
(g763
(idivisor
TwoPDivisor
p1581
(dp1582
g637
I-1
sg638
I282
sbtp1583
sg609
(g660
(idivisor
TwoPDivisor
p1584
(dp1585
g637
I-1
sg638
I265
sbtp1586
sg349
(g660
(idivisor
TwoPDivisor
p1587
(dp1588
g637
I-1
sg638
I300
sbtp1589
sg290
(g665
(idivisor
TwoPDivisor
p1590
(dp1591
g637
I-1
sg638
I308
sbtp1592
sg623
(g634
(idivisor
TwoPDivisor
p1593
(dp1594
g637
I-1
sg638
I266
sbtp1595
sg263
(g836
(idivisor
TwoPDivisor
p1596
(dp1597
g637
I-1
sg638
I268
sbtp1598
sg370
(g728
(idivisor
TwoPDivisor
p1599
(dp1600
g637
I-1
sg638
I269
sbtp1601
sg140
(g634
(idivisor
TwoPDivisor
p1602
(dp1603
g637
I-1
sg638
I327
sbtp1604
sg239
(g665
(idivisor
TwoPDivisor
p1605
(dp1606
g637
I-1
sg638
I313
sbtp1607
sg266
(g707
(idivisor
TwoPDivisor
p1608
(dp1609
g637
I-1
sg638
I275
sbtp1610
sg624
(g665
(idivisor
TwoPDivisor
p1611
(dp1612
g637
I-1
sg638
I263
sbtp1613
sg119
(g1073
(idivisor
TwoPDivisor
p1614
(dp1615
g637
I-1
sg638
I262
sbtp1616
sg47
(g836
(idivisor
TwoPDivisor
p1617
(dp1618
g637
I-1
sg638
I278
sbtp1619
sg321
(g634
(idivisor
TwoPDivisor
p1620
(dp1621
g637
I-1
sg638
I308
sbtp1622
sg95
(g810
(idivisor
TwoPDivisor
p1623
(dp1624
g637
I-1
sg638
I266
sbtp1625
sg548
(g665
(idivisor
TwoPDivisor
p1626
(dp1627
g637
I-1
sg638
I281
sbtp1628
sg131
(g728
(idivisor
TwoPDivisor
p1629
(dp1630
g637
I-1
sg638
I283
sbtp1631
sg414
(g707
(idivisor
TwoPDivisor
p1632
(dp1633
g637
I-1
sg638
I264
sbtp1634
sg203
(g733
(idivisor
TwoPDivisor
p1635
(dp1636
g637
I-1
sg638
I262
sbtp1637
sg601
(g660
(idivisor
TwoPDivisor
p1638
(dp1639
g637
I-1
sg638
I267
sbtp1640
sg472
(g634
(idivisor
TwoPDivisor
p1641
(dp1642
g637
I-1
sg638
I294
sbtp1643
sg207
(g758
(idivisor
TwoPDivisor
p1644
(dp1645
g637
I-1
sg638
I269
sbtp1646
sg406
(g686
(idivisor
TwoPDivisor
p1647
(dp1648
g637
I-1
sg638
I273
sbtp1649
sg201
(g634
(idivisor
TwoPDivisor
p1650
(dp1651
g637
I-1
sg638
I320
sbtp1652
sg326
(g681
(idivisor
TwoPDivisor
p1653
(dp1654
g637
I-1
sg638
I270
sbtp1655
sg378
(g634
(idivisor
TwoPDivisor
p1656
(dp1657
g637
I-1
sg638
I304
sbtp1658
sg591
(g634
(idivisor
TwoPDivisor
p1659
(dp1660
g637
I-1
sg638
I275
sbtp1661
sg306
(g634
(idivisor
TwoPDivisor
p1662
(dp1663
g637
I-1
sg638
I311
sbtp1664
sg213
(g728
(idivisor
TwoPDivisor
p1665
(dp1666
g637
I-1
sg638
I279
sbtp1667
sg399
(g660
(idivisor
TwoPDivisor
p1668
(dp1669
g637
I-1
sg638
I296
sbtp1670
sg486
(g660
(idivisor
TwoPDivisor
p1671
(dp1672
g637
I-1
sg638
I287
sbtp1673
sg423
(g634
(idivisor
TwoPDivisor
p1674
(dp1675
g637
I-1
sg638
I299
sbtp1676
sg377
(g665
(idivisor
TwoPDivisor
p1677
(dp1678
g637
I-1
sg638
I301
sbtp1679
sg227
(g676
(idivisor
TwoPDivisor
p1680
(dp1681
g637
I-1
sg638
I269
sbtp1682
sg311
(g681
(idivisor
TwoPDivisor
p1683
(dp1684
g637
I-1
sg638
I271
sbtp1685
sg84
(g712
(idivisor
TwoPDivisor
p1686
(dp1687
g637
I-1
sg638
I299
sbtp1688
sg258
(g634
(idivisor
TwoPDivisor
p1689
(dp1690
g637
I-1
sg638
I314
sbtp1691
sg287
(g691
(idivisor
TwoPDivisor
p1692
(dp1693
g637
I-1
sg638
I295
sbtp1694
sg466
(g686
(idivisor
TwoPDivisor
p1695
(dp1696
g637
I-1
sg638
I267
sbtp1697
sg344
(g652
(idivisor
TwoPDivisor
p1698
(dp1699
g637
I-1
sg638
I277
sbtp1700
sg576
(g634
(idivisor
TwoPDivisor
p1701
(dp1702
g637
I-1
sg638
I278
sbtp1703
sg444
(g665
(idivisor
TwoPDivisor
p1704
(dp1705
g637
I-1
sg638
I295
sbtp1706
sg117
(g634
(idivisor
TwoPDivisor
p1707
(dp1708
g637
I-1
sg638
I328
sbtp1709
sg600
(g763
(idivisor
TwoPDivisor
p1710
(dp1711
g637
I-1
sg638
I263
sbtp1712
sg137
(g763
(idivisor
TwoPDivisor
p1713
(dp1714
g637
I-1
sg638
I311
sbtp1715
sg229
(g879
(idivisor
TwoPDivisor
p1716
(dp1717
g637
I-1
sg638
I271
sbtp1718
sg381
(g707
(idivisor
TwoPDivisor
p1719
(dp1720
g637
I-1
sg638
I267
sbtp1721
sg351
(g634
(idivisor
TwoPDivisor
p1722
(dp1723
g637
I-1
sg638
I306
sbtp1724
sg434
(g634
(idivisor
TwoPDivisor
p1725
(dp1726
g637
I-1
sg638
I298
sbtp1727
sg125
(g758
(idivisor
TwoPDivisor
p1728
(dp1729
g637
I-1
sg638
I273
sbtp1730
sg401
(g634
(idivisor
TwoPDivisor
p1731
(dp1732
g637
I-1
sg638
I301
sbtp1733
sg340
(g879
(idivisor
TwoPDivisor
p1734
(dp1735
g637
I-1
sg638
I264
sbtp1736
sg202
(g810
(idivisor
TwoPDivisor
p1737
(dp1738
g637
I-1
sg638
I261
sbtp1739
sg435
(g681
(idivisor
TwoPDivisor
p1740
(dp1741
g637
I-1
sg638
I261
sbtp1742
sg616
(g665
(idivisor
TwoPDivisor
p1743
(dp1744
g637
I-1
sg638
I266
sbtp1745
sg304
(g660
(idivisor
TwoPDivisor
p1746
(dp1747
g637
I-1
sg638
I304
sbtp1748
sg363
(g660
(idivisor
TwoPDivisor
p1749
(dp1750
g637
I-1
sg638
I299
sbtp1751
sg626
(g665
(idivisor
TwoPDivisor
p1752
(dp1753
g637
I-1
sg638
I262
sbtp1754
sg298
(g728
(idivisor
TwoPDivisor
p1755
(dp1756
g637
I-1
sg638
I274
sbtp1757
sg110
((idivisor
TwoPDivisor
p1758
(dp1759
g637
I0
sg638
I2
sb(idivisor
TwoPDivisor
p1760
(dp1761
g637
I-1
sg638
I297
sbtp1762
sg318
(g763
(idivisor
TwoPDivisor
p1763
(dp1764
g637
I-1
sg638
I298
sbtp1765
sg531
(g634
(idivisor
TwoPDivisor
p1766
(dp1767
g637
I-1
sg638
I286
sbtp1768
sg209
(g836
(idivisor
TwoPDivisor
p1769
(dp1770
g637
I-1
sg638
I271
sbtp1771
sg163
(g733
(idivisor
TwoPDivisor
p1772
(dp1773
g637
I-1
sg638
I264
sbtp1774
sg352
(g676
(idivisor
TwoPDivisor
p1775
(dp1776
g637
I-1
sg638
I261
sbtp1777
sg22
(g1443
(idivisor
TwoPDivisor
p1778
(dp1779
g637
I-1
sg638
I292
sbtp1780
sg190
(g879
(idivisor
TwoPDivisor
p1781
(dp1782
g637
I-1
sg638
I273
sbtp1783
sg60
(g763
(idivisor
TwoPDivisor
p1784
(dp1785
g637
I-1
sg638
I314
sbtp1786
sg460
(g691
(idivisor
TwoPDivisor
p1787
(dp1788
g637
I-1
sg638
I281
sbtp1789
sg251
(g652
(idivisor
TwoPDivisor
p1790
(dp1791
g637
I-1
sg638
I283
sbtp1792
sg319
(g660
(idivisor
TwoPDivisor
p1793
(dp1794
g637
I-1
sg638
I303
sbtp1795
sg539
(g691
(idivisor
TwoPDivisor
p1796
(dp1797
g637
I-1
sg638
I270
sbtp1798
sg157
(g691
(idivisor
TwoPDivisor
p1799
(dp1800
g637
I-1
sg638
I303
sbtp1801
sg580
(g665
(idivisor
TwoPDivisor
p1802
(dp1803
g637
I-1
sg638
I275
sbtp1804
sg30
(g1160
(idivisor
TwoPDivisor
p1805
(dp1806
g637
I-1
sg638
I314
sbtp1807
sg343
(g728
(idivisor
TwoPDivisor
p1808
(dp1809
g637
I-1
sg638
I271
sbtp1810
sg375
(g763
(idivisor
TwoPDivisor
p1811
(dp1812
g637
I-1
sg638
I294
sbtp1813
sg622
(g665
(idivisor
TwoPDivisor
p1814
(dp1815
g637
I-1
sg638
I264
sbtp1816
sg513
(g686
(idivisor
TwoPDivisor
p1817
(dp1818
g637
I-1
sg638
I261
sbtp1819
sg149
(g836
(idivisor
TwoPDivisor
p1820
(dp1821
g637
I-1
sg638
I274
sbtp1822
sg620
(g634
(idivisor
TwoPDivisor
p1823
(dp1824
g637
I-1
sg638
I267
sbtp1825
sg240
(g634
(idivisor
TwoPDivisor
p1826
(dp1827
g637
I-1
sg638
I315
sbtp1828
sg478
(g660
(idivisor
TwoPDivisor
p1829
(dp1830
g637
I-1
sg638
I288
sbtp1831
sg503
(g665
(idivisor
TwoPDivisor
p1832
(dp1833
g637
I-1
sg638
I288
sbtp1834
sg552
(g763
(idivisor
TwoPDivisor
p1835
(dp1836
g637
I-1
sg638
I273
sbtp1837
sg362
(g763
(idivisor
TwoPDivisor
p1838
(dp1839
g637
I-1
sg638
I295
sbtp1840
sg438
(g652
(idivisor
TwoPDivisor
p1841
(dp1842
g637
I-1
sg638
I269
sbtp1843
sg611
(g634
(idivisor
TwoPDivisor
p1844
(dp1845
g637
I-1
sg638
I270
sbtp1846
sg121
(g733
(idivisor
TwoPDivisor
p1847
(dp1848
g637
I-1
sg638
I266
sbtp1849
sg510
(g660
(idivisor
TwoPDivisor
p1850
(dp1851
g637
I-1
sg638
I284
sbtp1852
sg631
(g634
(idivisor
TwoPDivisor
p1853
(dp1854
g637
I-1
sg638
I261
sbtp1855
sg162
(g810
(idivisor
TwoPDivisor
p1856
(dp1857
g637
I-1
sg638
I263
sbtp1858
sg457
(g652
(idivisor
TwoPDivisor
p1859
(dp1860
g637
I-1
sg638
I267
sbtp1861
sg5
(g1186
(idivisor
TwoPDivisor
p1862
(dp1863
g637
I-1
sg638
I262
sbtp1864
sg386
(g691
(idivisor
TwoPDivisor
p1865
(dp1866
g637
I-1
sg638
I288
sbtp1867
sg454
(g665
(idivisor
TwoPDivisor
p1868
(dp1869
g637
I-1
sg638
I294
sbtp1870
sg430
(g691
(idivisor
TwoPDivisor
p1871
(dp1872
g637
I-1
sg638
I284
sbtp1873
sg75
(g836
(idivisor
TwoPDivisor
p1874
(dp1875
g637
I-1
sg638
I277
sbtp1876
sg278
(g676
(idivisor
TwoPDivisor
p1877
(dp1878
g637
I-1
sg638
I266
sbtp1879
sg374
(g691
(idivisor
TwoPDivisor
p1880
(dp1881
g637
I-1
sg638
I289
sbtp1882
sg556
(g712
(idivisor
TwoPDivisor
p1883
(dp1884
g637
I-1
sg638
I261
sbtp1885
sg327
(g707
(idivisor
TwoPDivisor
p1886
(dp1887
g637
I-1
sg638
I271
sbtp1888
sg459
(g712
(idivisor
TwoPDivisor
p1889
(dp1890
g637
I-1
sg638
I275
sbtp1891
sg526
(g712
(idivisor
TwoPDivisor
p1892
(dp1893
g637
I-1
sg638
I266
sbtp1894
sg603
(g634
(idivisor
TwoPDivisor
p1895
(dp1896
g637
I-1
sg638
I272
sbtp1897
sg372
(g686
(idivisor
TwoPDivisor
p1898
(dp1899
g637
I-1
sg638
I276
sbtp1900
sg322
(g758
(idivisor
TwoPDivisor
p1901
(dp1902
g637
I-1
sg638
I262
sbtp1903
sg179
(g660
(idivisor
TwoPDivisor
p1904
(dp1905
g637
I-1
sg638
I313
sbtp1906
sg382
(g728
(idivisor
TwoPDivisor
p1907
(dp1908
g637
I-1
sg638
I268
sbtp1909
sg409
(g763
(idivisor
TwoPDivisor
p1910
(dp1911
g637
I-1
sg638
I291
sbtp1912
sg295
(g879
(idivisor
TwoPDivisor
p1913
(dp1914
g637
I-1
sg638
I267
sbtp1915
sg238
(g660
(idivisor
TwoPDivisor
p1916
(dp1917
g637
I-1
sg638
I308
sbtp1918
sg613
(g665
(idivisor
TwoPDivisor
p1919
(dp1920
g637
I-1
sg638
I267
sbtp1921
sg120
(g810
(idivisor
TwoPDivisor
p1922
(dp1923
g637
I-1
sg638
I265
sbtp1924
sg165
(g937
(idivisor
TwoPDivisor
p1925
(dp1926
g637
I-1
sg638
I266
sbtp1927
sg404
(g728
(idivisor
TwoPDivisor
p1928
(dp1929
g637
I-1
sg638
I266
sbtp1930
sg324
(g836
(idivisor
TwoPDivisor
p1931
(dp1932
g637
I-1
sg638
I264
sbtp1933
sg429
(g712
(idivisor
TwoPDivisor
p1934
(dp1935
g637
I-1
sg638
I278
sbtp1936
sg305
(g665
(idivisor
TwoPDivisor
p1937
(dp1938
g637
I-1
sg638
I307
sbtp1939
sg447
(g728
(idivisor
TwoPDivisor
p1940
(dp1941
g637
I-1
sg638
I262
sbtp1942
sg14
(g1200
(idivisor
TwoPDivisor
p1943
(dp1944
g637
I-1
sg638
I276
sbtp1945
sg373
(g712
(idivisor
TwoPDivisor
p1946
(dp1947
g637
I-1
sg638
I283
sbtp1948
sg80
(g1443
(idivisor
TwoPDivisor
p1949
(dp1950
g637
I-1
sg638
I290
sbtp1951
sg480
(g634
(idivisor
TwoPDivisor
p1952
(dp1953
g637
I-1
sg638
I293
sbtp1954
sg172
(g707
(idivisor
TwoPDivisor
p1955
(dp1956
g637
I-1
sg638
I280
sbtp1957
sg220
(g665
(idivisor
TwoPDivisor
p1958
(dp1959
g637
I-1
sg638
I314
sbtp1960
sg570
(g665
(idivisor
TwoPDivisor
p1961
(dp1962
g637
I-1
sg638
I277
sbtp1963
sg379
(g879
(idivisor
TwoPDivisor
p1964
(dp1965
g637
I-1
sg638
I261
sbtp1966
sg204
(g1011
(idivisor
TwoPDivisor
p1967
(dp1968
g637
I-1
sg638
I263
sbtp1969
sg249
(g707
(idivisor
TwoPDivisor
p1970
(dp1971
g637
I-1
sg638
I276
sbtp1972
sg136
(g691
(idivisor
TwoPDivisor
p1973
(dp1974
g637
I-1
sg638
I304
sbtp1975
sg257
(g665
(idivisor
TwoPDivisor
p1976
(dp1977
g637
I-1
sg638
I312
sbtp1978
sg367
(g879
(idivisor
TwoPDivisor
p1979
(dp1980
g637
I-1
sg638
I262
sbtp1981
sg293
(g676
(idivisor
TwoPDivisor
p1982
(dp1983
g637
I-1
sg638
I265
sbtp1984
sg389
(g665
(idivisor
TwoPDivisor
p1985
(dp1986
g637
I-1
sg638
I300
sbtp1987
sg252
(g686
(idivisor
TwoPDivisor
p1988
(dp1989
g637
I-1
sg638
I284
sbtp1990
sg297
(g707
(idivisor
TwoPDivisor
p1991
(dp1992
g637
I-1
sg638
I273
sbtp1993
sg128
(g879
(idivisor
TwoPDivisor
p1994
(dp1995
g637
I-1
sg638
I276
sbtp1996
sg166
(g642
(idivisor
TwoPDivisor
p1997
(dp1998
g637
I-1
sg638
I267
sbtp1999
sg535
(g660
(idivisor
TwoPDivisor
p2000
(dp2001
g637
I-1
sg638
I280
sbtp2002
sg517
(g660
(idivisor
TwoPDivisor
p2003
(dp2004
g637
I-1
sg638
I283
sbtp2005
sg559
(g660
(idivisor
TwoPDivisor
p2006
(dp2007
g637
I-1
sg638
I276
sbtp2008
sg86
(g691
(idivisor
TwoPDivisor
p2009
(dp2010
g637
I-1
sg638
I306
sbtp2011
sg431
(g763
(idivisor
TwoPDivisor
p2012
(dp2013
g637
I-1
sg638
I289
sbtp2014
sg188
(g676
(idivisor
TwoPDivisor
p2015
(dp2016
g637
I-1
sg638
I271
sbtp2017
sg359
(g686
(idivisor
TwoPDivisor
p2018
(dp2019
g637
I-1
sg638
I277
sbtp2020
sg199
(g660
(idivisor
TwoPDivisor
p2021
(dp2022
g637
I-1
sg638
I312
sbtp2023
sg174
(g652
(idivisor
TwoPDivisor
p2024
(dp2025
g637
I-1
sg638
I287
sbtp2026
sg256
(g660
(idivisor
TwoPDivisor
p2027
(dp2028
g637
I-1
sg638
I307
sbtp2029
sg177
(g691
(idivisor
TwoPDivisor
p2030
(dp2031
g637
I-1
sg638
I301
sbtp2032
sg37
(g1408
(idivisor
TwoPDivisor
p2033
(dp2034
g637
I-1
sg638
I262
sbtp2035
sg483
(g712
(idivisor
TwoPDivisor
p2036
(dp2037
g637
I-1
sg638
I272
sbtp2038
sg392
(g707
(idivisor
TwoPDivisor
p2039
(dp2040
g637
I-1
sg638
I266
sbtp2041
sg226
(g758
(idivisor
TwoPDivisor
p2042
(dp2043
g637
I-1
sg638
I268
sbtp2044
sg11
(g733
(idivisor
TwoPDivisor
p2045
(dp2046
g637
I-1
sg638
I270
sbtp2047
sg65
(g1408
(idivisor
TwoPDivisor
p2048
(dp2049
g637
I-1
sg638
I261
sbtp2050
sg234
(g686
(idivisor
TwoPDivisor
p2051
(dp2052
g637
I-1
sg638
I285
sbtp2053
sg391
(g681
(idivisor
TwoPDivisor
p2054
(dp2055
g637
I-1
sg638
I265
sbtp2056
sg330
(g686
(idivisor
TwoPDivisor
p2057
(dp2058
g637
I-1
sg638
I279
sbtp2059
sg553
(g660
(idivisor
TwoPDivisor
p2060
(dp2061
g637
I-1
sg638
I277
sbtp2062
sg537
(g634
(idivisor
TwoPDivisor
p2063
(dp2064
g637
I-1
sg638
I285
sbtp2065
sg606
(g665
(idivisor
TwoPDivisor
p2066
(dp2067
g637
I-1
sg638
I269
sbtp2068
sg369
(g707
(idivisor
TwoPDivisor
p2069
(dp2070
g637
I-1
sg638
I268
sbtp2071
sg421
(g660
(idivisor
TwoPDivisor
p2072
(dp2073
g637
I-1
sg638
I294
sbtp2074
sg273
(g660
(idivisor
TwoPDivisor
p2075
(dp2076
g637
I-1
sg638
I306
sbtp2077
sg403
(g707
(idivisor
TwoPDivisor
p2078
(dp2079
g637
I-1
sg638
I265
sbtp2080
sg39
(g841
(idivisor
TwoPDivisor
p2081
(dp2082
g637
I-1
sg638
I264
sbtp2083
sg516
(g763
(idivisor
TwoPDivisor
p2084
(dp2085
g637
I-1
sg638
I279
sbtp2086
sg259
(g937
(idivisor
TwoPDivisor
p2087
(dp2088
g637
I-1
sg638
I261
sbtp2089
sg268
(g652
(idivisor
TwoPDivisor
p2090
(dp2091
g637
I-1
sg638
I282
sbtp2092
sg558
(g763
(idivisor
TwoPDivisor
p2093
(dp2094
g637
I-1
sg638
I272
sbtp2095
sg499
(g712
(idivisor
TwoPDivisor
p2096
(dp2097
g637
I-1
sg638
I270
sbtp2098
sg17
(g879
(idivisor
TwoPDivisor
p2099
(dp2100
g637
I-1
sg638
I280
sbtp2101
sg18
((idivisor
TwoPDivisor
p2102
(dp2103
g637
I0
sg638
I19
sb(idivisor
TwoPDivisor
p2104
(dp2105
g637
I-1
sg638
I283
sbtp2106
sg46
(g758
(idivisor
TwoPDivisor
p2107
(dp2108
g637
I-1
sg638
I276
sbtp2109
sg94
(g1073
(idivisor
TwoPDivisor
p2110
(dp2111
g637
I-1
sg638
I263
sbtp2112
sg360
(g712
(idivisor
TwoPDivisor
p2113
(dp2114
g637
I-1
sg638
I284
sbtp2115
sg562
(g691
(idivisor
TwoPDivisor
p2116
(dp2117
g637
I-1
sg638
I266
sbtp2118
sg598
(g665
(idivisor
TwoPDivisor
p2119
(dp2120
g637
I-1
sg638
I271
sbtp2121
sg10
(g810
(idivisor
TwoPDivisor
p2122
(dp2123
g637
I-1
sg638
I269
sbtp2124
sg315
(g686
(idivisor
TwoPDivisor
p2125
(dp2126
g637
I-1
sg638
I280
sbtp2127
sg138
(g660
(idivisor
TwoPDivisor
p2128
(dp2129
g637
I-1
sg638
I315
sbtp2130
sg221
(g634
(idivisor
TwoPDivisor
p2131
(dp2132
g637
I-1
sg638
I319
sbtp2133
sg183
(g733
(idivisor
TwoPDivisor
p2134
(dp2135
g637
I-1
sg638
I263
sbtp2136
sg495
(g665
(idivisor
TwoPDivisor
p2137
(dp2138
g637
I-1
sg638
I289
sbtp2139
sg410
(g660
(idivisor
TwoPDivisor
p2140
(dp2141
g637
I-1
sg638
I295
sbtp2142
sg408
(g691
(idivisor
TwoPDivisor
p2143
(dp2144
g637
I-1
sg638
I286
sbtp2145
sg139
(g665
(idivisor
TwoPDivisor
p2146
(dp2147
g637
I-1
sg638
I321
sbtp2148
sg533
(g691
(idivisor
TwoPDivisor
p2149
(dp2150
g637
I-1
sg638
I271
sbtp2151
sg629
(g634
(idivisor
TwoPDivisor
p2152
(dp2153
g637
I-1
sg638
I263
sbtp2154
sg564
(g660
(idivisor
TwoPDivisor
p2155
(dp2156
g637
I-1
sg638
I275
sbtp2157
sg557
(g691
(idivisor
TwoPDivisor
p2158
(dp2159
g637
I-1
sg638
I267
sbtp2160
sg113
(g691
(idivisor
TwoPDivisor
p2161
(dp2162
g637
I-1
sg638
I305
sbtp2163
sg102
(g836
(idivisor
TwoPDivisor
p2164
(dp2165
g637
I-1
sg638
I276
sbtp2166
sg316
(g712
(idivisor
TwoPDivisor
p2167
(dp2168
g637
I-1
sg638
I287
sbtp2169
sg181
(g634
(idivisor
TwoPDivisor
p2170
(dp2171
g637
I-1
sg638
I321
sbtp2172
sg471
(g665
(idivisor
TwoPDivisor
p2173
(dp2174
g637
I-1
sg638
I292
sbtp2175
sg428
(g686
(idivisor
TwoPDivisor
p2176
(dp2177
g637
I-1
sg638
I271
sbtp2178
sg532
(g712
(idivisor
TwoPDivisor
p2179
(dp2180
g637
I-1
sg638
I265
sbtp2181
sg33
((idivisor
TwoPDivisor
p2182
(dp2183
g637
I0
sg638
I-26
sb(idivisor
TwoPDivisor
p2184
(dp2185
g637
I-1
sg638
I328
sbtp2186
sg604
(g763
(idivisor
TwoPDivisor
p2187
(dp2188
g637
I-1
sg638
I262
sbtp2189
sg341
(g681
(idivisor
TwoPDivisor
p2190
(dp2191
g637
I-1
sg638
I269
sbtp2192
sg446
(g707
(idivisor
TwoPDivisor
p2193
(dp2194
g637
I-1
sg638
I261
sbtp2195
sg197
(g691
(idivisor
TwoPDivisor
p2196
(dp2197
g637
I-1
sg638
I300
sbtp2198
sg44
(g642
(idivisor
TwoPDivisor
p2199
(dp2200
g637
I-1
sg638
I272
sbtp2201
sg73
(g642
(idivisor
TwoPDivisor
p2202
(dp2203
g637
I-1
sg638
I271
sbtp2204
sg191
(g681
(idivisor
TwoPDivisor
p2205
(dp2206
g637
I-1
sg638
I278
sbtp2207
sg618
(g660
(idivisor
TwoPDivisor
p2208
(dp2209
g637
I-1
sg638
I262
sbtp2210
sg440
(g712
(idivisor
TwoPDivisor
p2211
(dp2212
g637
I-1
sg638
I277
sbtp2213
sg154
(g652
(idivisor
TwoPDivisor
p2214
(dp2215
g637
I-1
sg638
I288
sbtp2216
sg336
(g634
(idivisor
TwoPDivisor
p2217
(dp2218
g637
I-1
sg638
I307
sbtp2219
sg540
(g763
(idivisor
TwoPDivisor
p2220
(dp2221
g637
I-1
sg638
I275
sbtp2222
sg160
(g665
(idivisor
TwoPDivisor
p2223
(dp2224
g637
I-1
sg638
I320
sbtp2225
sg134
(g1758
(idivisor
TwoPDivisor
p2226
(dp2227
g637
I-1
sg638
I296
sbtp2228
sg285
(g686
(idivisor
TwoPDivisor
p2229
(dp2230
g637
I-1
sg638
I282
sbtp2231
sg385
(g712
(idivisor
TwoPDivisor
p2232
(dp2233
g637
I-1
sg638
I282
sbtp2234
sg519
(g634
(idivisor
TwoPDivisor
p2235
(dp2236
g637
I-1
sg638
I288
sbtp2237
sg242
(g937
(idivisor
TwoPDivisor
p2238
(dp2239
g637
I-1
sg638
I262
sbtp2240
sg432
(g660
(idivisor
TwoPDivisor
p2241
(dp2242
g637
I-1
sg638
I293
sbtp2243
sg93
(g841
(idivisor
TwoPDivisor
p2244
(dp2245
g637
I-1
sg638
I262
sbtp2246
sg279
(g836
(idivisor
TwoPDivisor
p2247
(dp2248
g637
I-1
sg638
I267
sbtp2249
sg575
(g665
(idivisor
TwoPDivisor
p2250
(dp2251
g637
I-1
sg638
I276
sbtp2252
sg142
(g810
(idivisor
TwoPDivisor
p2253
(dp2254
g637
I-1
sg638
I264
sbtp2255
sg292
(g758
(idivisor
TwoPDivisor
p2256
(dp2257
g637
I-1
sg638
I264
sbtp2258
sg130
(g707
(idivisor
TwoPDivisor
p2259
(dp2260
g637
I-1
sg638
I282
sbtp2261
sg464
(g634
(idivisor
TwoPDivisor
p2262
(dp2263
g637
I-1
sg638
I295
sbtp2264
sg587
(g691
(idivisor
TwoPDivisor
p2265
(dp2266
g637
I-1
sg638
I261
sbtp2267
sg71
(g1011
(idivisor
TwoPDivisor
p2268
(dp2269
g637
I-1
sg638
I269
sbtp2270
sg602
(g665
(idivisor
TwoPDivisor
p2271
(dp2272
g637
I-1
sg638
I270
sbtp2273
sg68
(g1073
(idivisor
TwoPDivisor
p2274
(dp2275
g637
I-1
sg638
I264
sbtp2276
sg419
(g691
(idivisor
TwoPDivisor
p2277
(dp2278
g637
I-1
sg638
I285
sbtp2279
sg196
(g712
(idivisor
TwoPDivisor
p2280
(dp2281
g637
I-1
sg638
I294
sbtp2282
sg63
(g665
(idivisor
TwoPDivisor
p2283
(dp2284
g637
I-1
sg638
I328
sbtp2285
sg66
(g1152
(idivisor
TwoPDivisor
p2286
(dp2287
g637
I-1
sg638
I262
sbtp2288
sg135
(g712
(idivisor
TwoPDivisor
p2289
(dp2290
g637
I-1
sg638
I297
sbtp2291
sg81
(g652
(idivisor
TwoPDivisor
p2292
(dp2293
g637
I-1
sg638
I291
sbtp2294
sg504
(g634
(idivisor
TwoPDivisor
p2295
(dp2296
g637
I-1
sg638
I290
sbtp2297
sg530
(g665
(idivisor
TwoPDivisor
p2298
(dp2299
g637
I-1
sg638
I284
sbtp2300
sg484
(g691
(idivisor
TwoPDivisor
p2301
(dp2302
g637
I-1
sg638
I278
sbtp2303
sg312
(g707
(idivisor
TwoPDivisor
p2304
(dp2305
g637
I-1
sg638
I272
sbtp2306
sg497
(g652
(idivisor
TwoPDivisor
p2307
(dp2308
g637
I-1
sg638
I262
sbtp2309
sg594
(g665
(idivisor
TwoPDivisor
p2310
(dp2311
g637
I-1
sg638
I272
sbtp2312
sg82
((idivisor
TwoPDivisor
p2313
(dp2314
g637
I0
sg638
I3
sb(idivisor
TwoPDivisor
p2315
(dp2316
g637
I-1
sg638
I297
sbtp2317
sg96
(g733
(idivisor
TwoPDivisor
p2318
(dp2319
g637
I-1
sg638
I267
sbtp2320
sg462
(g660
(idivisor
TwoPDivisor
p2321
(dp2322
g637
I-1
sg638
I290
sbtp2323
sg208
(g676
(idivisor
TwoPDivisor
p2324
(dp2325
g637
I-1
sg638
I270
sbtp2326
sg583
(g763
(idivisor
TwoPDivisor
p2327
(dp2328
g637
I-1
sg638
I267
sbtp2329
sg281
(g681
(idivisor
TwoPDivisor
p2330
(dp2331
g637
I-1
sg638
I273
sbtp2332
sg4
((idivisor
TwoPDivisor
p2333
(dp2334
g637
I0
sg638
I41
sb(idivisor
TwoPDivisor
p2335
(dp2336
g637
I-1
sg638
I261
sbtp2337
sg551
(g691
(idivisor
TwoPDivisor
p2338
(dp2339
g637
I-1
sg638
I268
sbtp2340
sg482
(g686
(idivisor
TwoPDivisor
p2341
(dp2342
g637
I-1
sg638
I265
sbtp2343
sg610
(g665
(idivisor
TwoPDivisor
p2344
(dp2345
g637
I-1
sg638
I268
sbtp2346
sg525
(g634
(idivisor
TwoPDivisor
p2347
(dp2348
g637
I-1
sg638
I287
sbtp2349
sg301
(g712
(idivisor
TwoPDivisor
p2350
(dp2351
g637
I-1
sg638
I288
sbtp2352
sg590
(g665
(idivisor
TwoPDivisor
p2353
(dp2354
g637
I-1
sg638
I273
sbtp2355
sg123
(g937
(idivisor
TwoPDivisor
p2356
(dp2357
g637
I-1
sg638
I268
sbtp2358
sg284
(g652
(idivisor
TwoPDivisor
p2359
(dp2360
g637
I-1
sg638
I281
sbtp2361
sg254
(g691
(idivisor
TwoPDivisor
p2362
(dp2363
g637
I-1
sg638
I297
sbtp2364
sg546
(g763
(idivisor
TwoPDivisor
p2365
(dp2366
g637
I-1
sg638
I274
sbtp2367
sg507
(g712
(idivisor
TwoPDivisor
p2368
(dp2369
g637
I-1
sg638
I269
sbtp2370
sg170
(g879
(idivisor
TwoPDivisor
p2371
(dp2372
g637
I-1
sg638
I274
sbtp2373
sg543
(g634
(idivisor
TwoPDivisor
p2374
(dp2375
g637
I-1
sg638
I284
sbtp2376
sg422
(g665
(idivisor
TwoPDivisor
p2377
(dp2378
g637
I-1
sg638
I297
sbtp2379
sg173
(g728
(idivisor
TwoPDivisor
p2380
(dp2381
g637
I-1
sg638
I281
sbtp2382
sg566
(g634
(idivisor
TwoPDivisor
p2383
(dp2384
g637
I-1
sg638
I280
sbtp2385
sg7
(g1152
(idivisor
TwoPDivisor
p2386
(dp2387
g637
I-1
sg638
I264
sbtp2388
sg219
(g660
(idivisor
TwoPDivisor
p2389
(dp2390
g637
I-1
sg638
I311
sbtp2391
sg247
(g879
(idivisor
TwoPDivisor
p2392
(dp2393
g637
I-1
sg638
I270
sbtp2394
sg332
(g691
(idivisor
TwoPDivisor
p2395
(dp2396
g637
I-1
sg638
I292
sbtp2397
sg283
(g728
(idivisor
TwoPDivisor
p2398
(dp2399
g637
I-1
sg638
I275
sbtp2400
sg550
(g712
(idivisor
TwoPDivisor
p2401
(dp2402
g637
I-1
sg638
I262
sbtp2403
sg186
(g642
(idivisor
TwoPDivisor
p2404
(dp2405
g637
I-1
sg638
I266
sbtp2406
sg294
(g836
(idivisor
TwoPDivisor
p2407
(dp2408
g637
I-1
sg638
I266
sbtp2409
sg61
(g1540
(idivisor
TwoPDivisor
p2410
(dp2411
g637
I-1
sg638
I320
sbtp2412
sg126
(g676
(idivisor
TwoPDivisor
p2413
(dp2414
g637
I-1
sg638
I274
sbtp2415
sg442
(g763
(idivisor
TwoPDivisor
p2416
(dp2417
g637
I-1
sg638
I288
sbtp2418
sg212
(g707
(idivisor
TwoPDivisor
p2419
(dp2420
g637
I-1
sg638
I278
sbtp2421
sg426
(g728
(idivisor
TwoPDivisor
p2422
(dp2423
g637
I-1
sg638
I264
sbtp2424
sg411
(g665
(idivisor
TwoPDivisor
p2425
(dp2426
g637
I-1
sg638
I298
sbtp2427
sg357
(g728
(idivisor
TwoPDivisor
p2428
(dp2429
g637
I-1
sg638
I270
sbtp2430
sg337
(g758
(idivisor
TwoPDivisor
p2431
(dp2432
g637
I-1
sg638
I261
sbtp2433
sg528
(g763
(idivisor
TwoPDivisor
p2434
(dp2435
g637
I-1
sg638
I277
sbtp2436
sg200
(g665
(idivisor
TwoPDivisor
p2437
(dp2438
g637
I-1
sg638
I315
sbtp2439
sg494
(g660
(idivisor
TwoPDivisor
p2440
(dp2441
g637
I-1
sg638
I286
sbtp2442
sg303
(g763
(idivisor
TwoPDivisor
p2443
(dp2444
g637
I-1
sg638
I299
sbtp2445
sg523
(g660
(idivisor
TwoPDivisor
p2446
(dp2447
g637
I-1
sg638
I282
sbtp2448
sg451
(g691
(idivisor
TwoPDivisor
p2449
(dp2450
g637
I-1
sg638
I282
sbtp2451
sg541
(g660
(idivisor
TwoPDivisor
p2452
(dp2453
g637
I-1
sg638
I279
sbtp2454
sg57
(g1376
(idivisor
TwoPDivisor
p2455
(dp2456
g637
I-1
sg638
I305
sbtp2457
sg511
(g665
(idivisor
TwoPDivisor
p2458
(dp2459
g637
I-1
sg638
I287
sbtp2460
sg448
(g652
(idivisor
TwoPDivisor
p2461
(dp2462
g637
I-1
sg638
I268
sbtp2463
sg78
(g681
(idivisor
TwoPDivisor
p2464
(dp2465
g637
I-1
sg638
I283
sbtp2466
sg506
(g686
(idivisor
TwoPDivisor
p2467
(dp2468
g637
I-1
sg638
I262
sbtp2469
sg35
(g634
(idivisor
TwoPDivisor
p2470
(dp2471
g637
I-1
sg638
I336
sbtp2472
sg413
(g681
(idivisor
TwoPDivisor
p2473
(dp2474
g637
I-1
sg638
I263
sbtp2475
sg308
(g676
(idivisor
TwoPDivisor
p2476
(dp2477
g637
I-1
sg638
I264
sbtp2478
sg55
(g2313
(idivisor
TwoPDivisor
p2479
(dp2480
g637
I-1
sg638
I298
sbtp2481
sg26
(g712
(idivisor
TwoPDivisor
p2482
(dp2483
g637
I-1
sg638
I301
sbtp2484
sg397
(g691
(idivisor
TwoPDivisor
p2485
(dp2486
g637
I-1
sg638
I287
sbtp2487
sg34
(g665
(idivisor
TwoPDivisor
p2488
(dp2489
g637
I-1
sg638
I329
sbtp2490
sg441
(g691
(idivisor
TwoPDivisor
p2491
(dp2492
g637
I-1
sg638
I283
sbtp2493
sg588
(g763
(idivisor
TwoPDivisor
p2494
(dp2495
g637
I-1
sg638
I266
sbtp2496
sg310
(g879
(idivisor
TwoPDivisor
p2497
(dp2498
g637
I-1
sg638
I266
sbtp2499
sg12
(g1011
(idivisor
TwoPDivisor
p2500
(dp2501
g637
I-1
sg638
I271
sbtp2502
sg244
(g758
(idivisor
TwoPDivisor
p2503
(dp2504
g637
I-1
sg638
I267
sbtp2505
sg333
(g763
(idivisor
TwoPDivisor
p2506
(dp2507
g637
I-1
sg638
I297
sbtp2508
sg115
(g660
(idivisor
TwoPDivisor
p2509
(dp2510
g637
I-1
sg638
I319
sbtp2511
sg354
(g879
(idivisor
TwoPDivisor
p2512
(dp2513
g637
I-1
sg638
I263
sbtp2514
sg104
(g681
(idivisor
TwoPDivisor
p2515
(dp2516
g637
I-1
sg638
I282
sbtp2517
sg25
(g2313
(idivisor
TwoPDivisor
p2518
(dp2519
g637
I-1
sg638
I299
sbtp2520
sg396
(g712
(idivisor
TwoPDivisor
p2521
(dp2522
g637
I-1
sg638
I281
sbtp2523
sg371
(g652
(idivisor
TwoPDivisor
p2524
(dp2525
g637
I-1
sg638
I275
sbtp2526
sg619
(g665
(idivisor
TwoPDivisor
p2527
(dp2528
g637
I-1
sg638
I265
sbtp2529
sg393
(g728
(idivisor
TwoPDivisor
p2530
(dp2531
g637
I-1
sg638
I267
sbtp2532
sg512
(g634
(idivisor
TwoPDivisor
p2533
(dp2534
g637
I-1
sg638
I289
sbtp2535
sg77
(g1099
(idivisor
TwoPDivisor
p2536
(dp2537
g637
I-1
sg638
I282
sbtp2538
sg296
(g681
(idivisor
TwoPDivisor
p2539
(dp2540
g637
I-1
sg638
I272
sbtp2541
sg20
(g681
(idivisor
TwoPDivisor
p2542
(dp2543
g637
I-1
sg638
I285
sbtp2544
sg85
(g696
(idivisor
TwoPDivisor
p2545
(dp2546
g637
I-1
sg638
I305
sbtp2547
sg194
(g652
(idivisor
TwoPDivisor
p2548
(dp2549
g637
I-1
sg638
I286
sbtp2550
sg578
(g763
(idivisor
TwoPDivisor
p2551
(dp2552
g637
I-1
sg638
I268
sbtp2553
sg417
(g686
(idivisor
TwoPDivisor
p2554
(dp2555
g637
I-1
sg638
I272
sbtp2556
sg97
(g1011
(idivisor
TwoPDivisor
p2557
(dp2558
g637
I-1
sg638
I268
sbtp2559
sg339
(g836
(idivisor
TwoPDivisor
p2560
(dp2561
g637
I-1
sg638
I263
sbtp2562
sg261
(g758
(idivisor
TwoPDivisor
p2563
(dp2564
g637
I-1
sg638
I266
sbtp2565
sg216
(g712
(idivisor
TwoPDivisor
p2566
(dp2567
g637
I-1
sg638
I293
sbtp2568
sg64
(g634
(idivisor
TwoPDivisor
p2569
(dp2570
g637
I-1
sg638
I335
sbtp2571
sg144
(g1011
(idivisor
TwoPDivisor
p2572
(dp2573
g637
I-1
sg638
I266
sbtp2574
sg584
(g660
(idivisor
TwoPDivisor
p2575
(dp2576
g637
I-1
sg638
I271
sbtp2577
sg387
(g763
(idivisor
TwoPDivisor
p2578
(dp2579
g637
I-1
sg638
I293
sbtp2580
sg223
(g1011
(idivisor
TwoPDivisor
p2581
(dp2582
g637
I-1
sg638
I262
sbtp2583
sg355
(g681
(idivisor
TwoPDivisor
p2584
(dp2585
g637
I-1
sg638
I268
sbtp2586
sg108
(g652
(idivisor
TwoPDivisor
p2587
(dp2588
g637
I-1
sg638
I290
sbtp2589
sg116
(g665
(idivisor
TwoPDivisor
p2590
(dp2591
g637
I-1
sg638
I322
sbtp2592
sg83
(g1758
(idivisor
TwoPDivisor
p2593
(dp2594
g637
I-1
sg638
I298
sbtp2595
sg364
(g665
(idivisor
TwoPDivisor
p2596
(dp2597
g637
I-1
sg638
I303
sbtp2598
sg518
(g665
(idivisor
TwoPDivisor
p2599
(dp2600
g637
I-1
sg638
I286
sbtp2601
sg400
(g665
(idivisor
TwoPDivisor
p2602
(dp2603
g637
I-1
sg638
I299
sbtp2604
sg49
(g1099
(idivisor
TwoPDivisor
p2605
(dp2606
g637
I-1
sg638
I283
sbtp2607
ss.