(dp0
S'ind'
p1
(lp2
(I0
I25
I0
tp3
a(I1
I16
I6
tp4
a(I1
I17
I5
tp5
a(I1
I19
I4
tp6
a(I1
I20
I3
tp7
a(I1
I23
I2
tp8
a(I1
I25
I1
tp9
a(I2
I16
I5
tp10
a(I2
I17
I4
tp11
a(I2
I19
I3
tp12
a(I2
I22
I2
tp13
a(I2
I23
I1
tp14
a(I3
I16
I4
tp15
a(I3
I18
I3
tp16
a(I3
I20
I2
tp17
a(I3
I22
I1
tp18
a(I4
I17
I3
tp19
a(I4
I19
I2
tp20
a(I4
I20
I1
tp21
a(I5
I16
I3
tp22
a(I5
I18
I2
tp23
a(I5
I19
I1
tp24
a(I6
I17
I2
tp25
a(I6
I18
I1
tp26
a(I7
I16
I2
tp27
a(I7
I17
I1
tp28
a(I8
I16
I1
tp29
asS'witness'
p30
(dp31
g17
((idivisor
TwoPDivisor
p32
(dp34
S'Q'
p35
I2
sS'P'
p36
I-3
sb(idivisor
TwoPDivisor
p37
(dp38
g35
I-4
sg36
I24
sbtp39
sg10
((idivisor
TwoPDivisor
p40
(dp41
g35
I3
sg36
I1
sb(idivisor
TwoPDivisor
p42
(dp43
g35
I-4
sg36
I20
sbtp44
sg7
((idivisor
TwoPDivisor
p45
(dp46
g35
I3
sg36
I-2
sb(idivisor
TwoPDivisor
p47
(dp48
g35
I-4
sg36
I24
sbtp49
sg8
((idivisor
TwoPDivisor
p50
(dp51
g35
I2
sg36
I-4
sb(idivisor
TwoPDivisor
p52
(dp53
g35
I-4
sg36
I27
sbtp54
sg9
((idivisor
TwoPDivisor
p55
(dp56
g35
I3
sg36
I-7
sb(idivisor
TwoPDivisor
p57
(dp58
g35
I-1
sg36
I26
sbtp59
sg21
((idivisor
TwoPDivisor
p60
(dp61
g35
I3
sg36
I-6
sb(idivisor
TwoPDivisor
p62
(dp63
g35
I-4
sg36
I24
sbtp64
sg12
((idivisor
TwoPDivisor
p65
(dp66
g35
I1
sg36
I0
sb(idivisor
TwoPDivisor
p67
(dp68
g35
I-4
sg36
I23
sbtp69
sg20
(g32
(idivisor
TwoPDivisor
p70
(dp71
g35
I-4
sg36
I23
sbtp72
sg28
(g60
(idivisor
TwoPDivisor
p73
(dp74
g35
I-4
sg36
I21
sbtp75
sg23
(g32
(idivisor
TwoPDivisor
p76
(dp77
g35
I-4
sg36
I22
sbtp78
sg3
(g55
(idivisor
TwoPDivisor
p79
(dp80
g35
I-4
sg36
I29
sbtp81
sg29
(g60
(idivisor
TwoPDivisor
p82
(dp83
g35
I-4
sg36
I20
sbtp84
sg13
(g50
(idivisor
TwoPDivisor
p85
(dp86
g35
I-1
sg36
I23
sbtp87
sg11
((idivisor
TwoPDivisor
p88
(dp89
g35
I2
sg36
I1
sb(idivisor
TwoPDivisor
p90
(dp91
g35
I-4
sg36
I21
sbtp92
sg25
(g32
(idivisor
TwoPDivisor
p93
(dp94
g35
I-4
sg36
I21
sbtp95
sg15
(g88
(idivisor
TwoPDivisor
p96
(dp97
g35
I-4
sg36
I20
sbtp98
sg16
(g65
(idivisor
TwoPDivisor
p99
(dp100
g35
I-4
sg36
I22
sbtp101
sg26
(g60
(idivisor
TwoPDivisor
p102
(dp103
g35
I-4
sg36
I22
sbtp104
sg4
((idivisor
TwoPDivisor
p105
(dp106
g35
I1
sg36
I4
sb(idivisor
TwoPDivisor
p107
(dp108
g35
I-3
sg36
I19
sbtp109
sg27
(g32
(idivisor
TwoPDivisor
p110
(dp111
g35
I-4
sg36
I20
sbtp112
sg22
(g65
(idivisor
TwoPDivisor
p113
(dp114
g35
I-4
sg36
I20
sbtp115
sg5
(g40
(idivisor
TwoPDivisor
p116
(dp117
g35
I-4
sg36
I21
sbtp118
sg6
((idivisor
TwoPDivisor
p119
(dp120
g35
I2
sg36
I0
sb(idivisor
TwoPDivisor
p121
(dp122
g35
I-4
sg36
I23
sbtp123
sg19
(g65
(idivisor
TwoPDivisor
p124
(dp125
g35
I-4
sg36
I21
sbtp126
sg24
(g60
(idivisor
TwoPDivisor
p127
(dp128
g35
I-4
sg36
I23
sbtp129
sg14
(g60
(idivisor
TwoPDivisor
p130
(dp131
g35
I-4
sg36
I27
sbtp132
sg18
(g60
(idivisor
TwoPDivisor
p133
(dp134
g35
I-1
sg36
I23
sbtp135
ss.