(dp0
S'ind'
p1
(lp2
(I281
I42
tp3
a(I282
I41
tp4
a(I283
I40
tp5
a(I284
I39
tp6
a(I285
I38
tp7
a(I286
I37
tp8
a(I287
I36
tp9
a(I289
I35
tp10
a(I290
I34
tp11
a(I291
I33
tp12
a(I292
I32
tp13
a(I293
I31
tp14
a(I295
I30
tp15
a(I297
I28
tp16
a(I298
I27
tp17
a(I299
I26
tp18
a(I300
I25
tp19
a(I303
I24
tp20
a(I305
I21
tp21
a(I306
I20
tp22
a(I307
I19
tp23
a(I311
I18
tp24
a(I313
I14
tp25
a(I314
I13
tp26
a(I319
I12
tp27
a(I321
I7
tp28
a(I327
I6
tp29
a(I332
I5
tp30
a(I336
I4
tp31
a(I339
I3
tp32
a(I341
I2
tp33
a(I342
I1
tp34
asS'witness'
p35
(dp36
g31
((idivisor
TwoPDivisor
p37
(dp39
S'Q'
p40
I4
sS'P'
p41
I-21
sbtp42
sg14
((idivisor
TwoPDivisor
p43
(dp44
g40
I4
sg41
I25
sbtp45
sg12
((idivisor
TwoPDivisor
p46
(dp47
g40
I6
sg41
I25
sbtp48
sg22
((idivisor
TwoPDivisor
p49
(dp50
g40
I7
sg41
I9
sbtp51
sg8
((idivisor
TwoPDivisor
p52
(dp53
g40
I3
sg41
I33
sbtp54
sg11
((idivisor
TwoPDivisor
p55
(dp56
g40
I7
sg41
I25
sbtp57
sg7
((idivisor
TwoPDivisor
p58
(dp59
g40
I4
sg41
I33
sbtp60
sg6
((idivisor
TwoPDivisor
p61
(dp62
g40
I5
sg41
I33
sbtp63
sg4
((idivisor
TwoPDivisor
p64
(dp65
g40
I7
sg41
I33
sbtp66
sg28
((idivisor
TwoPDivisor
p67
(dp68
g40
I1
sg41
I0
sbtp69
sg34
((idivisor
TwoPDivisor
p70
(dp71
g40
I7
sg41
I-42
sbtp72
sg10
((idivisor
TwoPDivisor
p73
(dp74
g40
I1
sg41
I32
sbtp75
sg30
((idivisor
TwoPDivisor
p76
(dp77
g40
I3
sg41
I-14
sbtp78
sg23
((idivisor
TwoPDivisor
p79
(dp80
g40
I6
sg41
I9
sbtp81
sg9
((idivisor
TwoPDivisor
p82
(dp83
g40
I2
sg41
I33
sbtp84
sg18
((idivisor
TwoPDivisor
p85
(dp86
g40
I6
sg41
I17
sbtp87
sg25
((idivisor
TwoPDivisor
p88
(dp89
g40
I1
sg41
I8
sbtp90
sg26
((idivisor
TwoPDivisor
p91
(dp92
g40
I7
sg41
I1
sbtp93
sg24
((idivisor
TwoPDivisor
p94
(dp95
g40
I2
sg41
I9
sbtp96
sg29
((idivisor
TwoPDivisor
p97
(dp98
g40
I2
sg41
I-7
sbtp99
sg5
((idivisor
TwoPDivisor
p100
(dp101
g40
I6
sg41
I33
sbtp102
sg21
((idivisor
TwoPDivisor
p103
(dp104
g40
I1
sg41
I16
sbtp105
sg19
((idivisor
TwoPDivisor
p106
(dp107
g40
I5
sg41
I17
sbtp108
sg32
((idivisor
TwoPDivisor
p109
(dp110
g40
I5
sg41
I-28
sbtp111
sg20
((idivisor
TwoPDivisor
p112
(dp113
g40
I2
sg41
I17
sbtp114
sg15
((idivisor
TwoPDivisor
p115
(dp116
g40
I2
sg41
I25
sbtp117
sg3
((idivisor
TwoPDivisor
p118
(dp119
g40
I1
sg41
I40
sbtp120
sg33
((idivisor
TwoPDivisor
p121
(dp122
g40
I6
sg41
I-35
sbtp123
sg16
((idivisor
TwoPDivisor
p124
(dp125
g40
I1
sg41
I24
sbtp126
sg27
((idivisor
TwoPDivisor
p127
(dp128
g40
I2
sg41
I1
sbtp129
sg17
((idivisor
TwoPDivisor
p130
(dp131
g40
I7
sg41
I17
sbtp132
sg13
((idivisor
TwoPDivisor
p133
(dp134
g40
I5
sg41
I25
sbtp135
ss.