(dp0
S'ind'
p1
(lp2
(I0
I123
I0
tp3
a(I1
I86
I20
tp4
a(I1
I87
I19
tp5
a(I1
I88
I18
tp6
a(I1
I89
I17
tp7
a(I1
I91
I16
tp8
a(I1
I92
I15
tp9
a(I1
I93
I14
tp10
a(I1
I94
I13
tp11
a(I1
I97
I12
tp12
a(I1
I98
I11
tp13
a(I1
I99
I10
tp14
a(I1
I102
I9
tp15
a(I1
I103
I8
tp16
a(I1
I104
I7
tp17
a(I1
I108
I6
tp18
a(I1
I109
I5
tp19
a(I1
I113
I4
tp20
a(I1
I114
I3
tp21
a(I1
I119
I2
tp22
a(I1
I123
I1
tp23
a(I2
I86
I19
tp24
a(I2
I87
I18
tp25
a(I2
I88
I17
tp26
a(I2
I89
I16
tp27
a(I2
I91
I15
tp28
a(I2
I92
I14
tp29
a(I2
I93
I13
tp30
a(I2
I96
I12
tp31
a(I2
I97
I11
tp32
a(I2
I98
I10
tp33
a(I2
I99
I9
tp34
a(I2
I102
I8
tp35
a(I2
I103
I7
tp36
a(I2
I107
I6
tp37
a(I2
I108
I5
tp38
a(I2
I109
I4
tp39
a(I2
I113
I3
tp40
a(I2
I118
I2
tp41
a(I2
I119
I1
tp42
a(I3
I86
I18
tp43
a(I3
I87
I17
tp44
a(I3
I88
I16
tp45
a(I3
I90
I15
tp46
a(I3
I91
I14
tp47
a(I3
I92
I13
tp48
a(I3
I94
I12
tp49
a(I3
I96
I10
tp50
a(I3
I98
I9
tp51
a(I3
I101
I8
tp52
a(I3
I102
I7
tp53
a(I3
I104
I6
tp54
a(I3
I108
I4
tp55
a(I3
I112
I3
tp56
a(I3
I114
I2
tp57
a(I3
I118
I1
tp58
a(I4
I86
I17
tp59
a(I4
I87
I16
tp60
a(I4
I89
I15
tp61
a(I4
I90
I14
tp62
a(I4
I91
I13
tp63
a(I4
I93
I12
tp64
a(I4
I95
I10
tp65
a(I4
I96
I9
tp66
a(I4
I99
I8
tp67
a(I4
I101
I5
tp68
a(I4
I103
I6
tp69
a(I4
I106
I4
tp70
a(I4
I109
I3
tp71
a(I4
I113
I2
tp72
a(I4
I114
I1
tp73
a(I5
I86
I16
tp74
a(I5
I88
I15
tp75
a(I5
I89
I14
tp76
a(I5
I90
I13
tp77
a(I5
I92
I12
tp78
a(I5
I94
I10
tp79
a(I5
I95
I9
tp80
a(I5
I98
I8
tp81
a(I5
I100
I5
tp82
a(I5
I102
I6
tp83
a(I5
I104
I4
tp84
a(I5
I108
I3
tp85
a(I5
I112
I2
tp86
a(I5
I113
I1
tp87
a(I6
I87
I15
tp88
a(I6
I88
I14
tp89
a(I6
I89
I13
tp90
a(I6
I91
I12
tp91
a(I6
I93
I10
tp92
a(I6
I94
I9
tp93
a(I6
I97
I8
tp94
a(I6
I99
I5
tp95
a(I6
I103
I4
tp96
a(I6
I107
I3
tp97
a(I6
I109
I2
tp98
a(I6
I112
I1
tp99
a(I7
I86
I15
tp100
a(I7
I87
I14
tp101
a(I7
I88
I13
tp102
a(I7
I90
I12
tp103
a(I7
I92
I10
tp104
a(I7
I93
I9
tp105
a(I7
I96
I8
tp106
a(I7
I98
I5
tp107
a(I7
I102
I4
tp108
a(I7
I106
I3
tp109
a(I7
I108
I2
tp110
a(I7
I109
I1
tp111
a(I8
I86
I14
tp112
a(I8
I87
I13
tp113
a(I8
I89
I12
tp114
a(I8
I91
I10
tp115
a(I8
I92
I9
tp116
a(I8
I95
I8
tp117
a(I8
I97
I5
tp118
a(I8
I101
I4
tp119
a(I8
I104
I3
tp120
a(I8
I107
I2
tp121
a(I8
I108
I1
tp122
a(I9
I86
I13
tp123
a(I9
I88
I12
tp124
a(I9
I90
I10
tp125
a(I9
I91
I9
tp126
a(I9
I94
I8
tp127
a(I9
I96
I5
tp128
a(I9
I100
I4
tp129
a(I9
I103
I3
tp130
a(I9
I106
I2
tp131
a(I9
I107
I1
tp132
a(I10
I87
I12
tp133
a(I10
I89
I10
tp134
a(I10
I90
I9
tp135
a(I10
I93
I8
tp136
a(I10
I95
I5
tp137
a(I10
I99
I4
tp138
a(I10
I102
I3
tp139
a(I10
I104
I2
tp140
a(I10
I106
I1
tp141
a(I11
I86
I12
tp142
a(I11
I88
I10
tp143
a(I11
I89
I9
tp144
a(I11
I92
I8
tp145
a(I11
I94
I5
tp146
a(I11
I98
I4
tp147
a(I11
I101
I3
tp148
a(I11
I103
I2
tp149
a(I11
I104
I1
tp150
a(I12
I87
I10
tp151
a(I12
I88
I9
tp152
a(I12
I91
I8
tp153
a(I12
I93
I5
tp154
a(I12
I97
I4
tp155
a(I12
I100
I3
tp156
a(I12
I102
I2
tp157
a(I12
I103
I1
tp158
a(I13
I86
I10
tp159
a(I13
I87
I9
tp160
a(I13
I90
I8
tp161
a(I13
I92
I5
tp162
a(I13
I96
I4
tp163
a(I13
I99
I3
tp164
a(I13
I101
I2
tp165
a(I13
I102
I1
tp166
a(I14
I86
I9
tp167
a(I14
I89
I8
tp168
a(I14
I91
I5
tp169
a(I14
I95
I4
tp170
a(I14
I98
I3
tp171
a(I14
I100
I2
tp172
a(I14
I101
I1
tp173
a(I15
I88
I8
tp174
a(I15
I90
I5
tp175
a(I15
I94
I4
tp176
a(I15
I97
I3
tp177
a(I15
I99
I2
tp178
a(I15
I100
I1
tp179
a(I16
I87
I8
tp180
a(I16
I89
I5
tp181
a(I16
I93
I4
tp182
a(I16
I96
I3
tp183
a(I16
I98
I2
tp184
a(I16
I99
I1
tp185
a(I17
I86
I8
tp186
a(I17
I88
I5
tp187
a(I17
I92
I4
tp188
a(I17
I95
I3
tp189
a(I17
I97
I2
tp190
a(I17
I98
I1
tp191
a(I18
I87
I5
tp192
a(I18
I91
I4
tp193
a(I18
I94
I3
tp194
a(I18
I96
I2
tp195
a(I18
I97
I1
tp196
a(I19
I86
I5
tp197
a(I19
I90
I4
tp198
a(I19
I93
I3
tp199
a(I19
I95
I2
tp200
a(I19
I96
I1
tp201
a(I20
I89
I4
tp202
a(I20
I92
I3
tp203
a(I20
I94
I2
tp204
a(I20
I95
I1
tp205
a(I21
I88
I4
tp206
a(I21
I91
I3
tp207
a(I21
I93
I2
tp208
a(I21
I94
I1
tp209
a(I22
I87
I4
tp210
a(I22
I90
I3
tp211
a(I22
I92
I2
tp212
a(I22
I93
I1
tp213
a(I23
I86
I4
tp214
a(I23
I89
I3
tp215
a(I23
I91
I2
tp216
a(I23
I92
I1
tp217
a(I24
I88
I3
tp218
a(I24
I90
I2
tp219
a(I24
I91
I1
tp220
a(I25
I87
I3
tp221
a(I25
I89
I2
tp222
a(I25
I90
I1
tp223
a(I26
I86
I3
tp224
a(I26
I88
I2
tp225
a(I26
I89
I1
tp226
a(I27
I87
I2
tp227
a(I27
I88
I1
tp228
a(I28
I86
I2
tp229
a(I28
I87
I1
tp230
a(I29
I86
I1
tp231
asS'witness'
p232
(dp233
g90
((idivisor
TwoPDivisor
p234
(dp236
S'Q'
p237
I4
sS'P'
p238
I7
sb(idivisor
TwoPDivisor
p239
(dp240
g237
I-6
sg238
I95
sbtp241
sg112
((idivisor
TwoPDivisor
p242
(dp243
g237
I5
sg238
I7
sb(idivisor
TwoPDivisor
p244
(dp245
g237
I-6
sg238
I92
sbtp246
sg130
((idivisor
TwoPDivisor
p247
(dp248
g237
I3
sg238
I-10
sb(idivisor
TwoPDivisor
p249
(dp250
g237
I-6
sg238
I109
sbtp251
sg165
((idivisor
TwoPDivisor
p252
(dp253
g237
I4
sg238
I-15
sb(idivisor
TwoPDivisor
p254
(dp255
g237
I-6
sg238
I107
sbtp256
sg170
((idivisor
TwoPDivisor
p257
(dp258
g237
I2
sg238
I-5
sb(idivisor
TwoPDivisor
p259
(dp260
g237
I-6
sg238
I101
sbtp261
sg72
(g252
(idivisor
TwoPDivisor
p262
(dp263
g237
I-6
sg238
I119
sbtp264
sg200
(g252
(idivisor
TwoPDivisor
p265
(dp266
g237
I-6
sg238
I101
sbtp267
sg3
((idivisor
TwoPDivisor
p268
(dp269
g237
I5
sg238
I-23
sb(idivisor
TwoPDivisor
p270
(dp271
g237
I-6
sg238
I129
sbtp272
sg174
((idivisor
TwoPDivisor
p273
(dp274
g237
I2
sg238
I1
sb(idivisor
TwoPDivisor
p275
(dp276
g237
I-6
sg238
I94
sbtp277
sg106
(g273
(idivisor
TwoPDivisor
p278
(dp279
g237
I-6
sg238
I102
sbtp280
sg228
((idivisor
TwoPDivisor
p281
(dp282
g237
I5
sg238
I-20
sb(idivisor
TwoPDivisor
p283
(dp284
g237
I-6
sg238
I94
sbtp285
sg15
((idivisor
TwoPDivisor
p286
(dp287
g237
I3
sg238
I0
sb(idivisor
TwoPDivisor
p288
(dp289
g237
I-5
sg238
I107
sbtp290
sg36
((idivisor
TwoPDivisor
p291
(dp292
g237
I5
sg238
I-4
sb(idivisor
TwoPDivisor
p293
(dp294
g237
I-6
sg238
I109
sbtp295
sg59
((idivisor
TwoPDivisor
p296
(dp297
g237
I3
sg238
I13
sb(idivisor
TwoPDivisor
p298
(dp299
g237
I-6
sg238
I92
sbtp300
sg53
(g291
(idivisor
TwoPDivisor
p301
(dp302
g237
I-6
sg238
I108
sbtp303
sg154
((idivisor
TwoPDivisor
p304
(dp305
g237
I1
sg238
I0
sb(idivisor
TwoPDivisor
p306
(dp307
g237
I-6
sg238
I99
sbtp308
sg23
(g268
(idivisor
TwoPDivisor
p309
(dp310
g237
I-1
sg238
I124
sbtp311
sg97
(g247
(idivisor
TwoPDivisor
p312
(dp313
g237
I-6
sg238
I113
sbtp314
sg155
(g257
(idivisor
TwoPDivisor
p315
(dp316
g237
I-6
sg238
I103
sbtp317
sg152
((idivisor
TwoPDivisor
p318
(dp319
g237
I5
sg238
I1
sb(idivisor
TwoPDivisor
p320
(dp321
g237
I-6
sg238
I94
sbtp322
sg86
(g252
(idivisor
TwoPDivisor
p323
(dp324
g237
I-1
sg238
I113
sbtp325
sg48
(g234
(idivisor
TwoPDivisor
p326
(dp327
g237
I-6
sg238
I98
sbtp328
sg116
(g318
(idivisor
TwoPDivisor
p329
(dp330
g237
I-6
sg238
I98
sbtp331
sg35
((idivisor
TwoPDivisor
p332
(dp333
g237
I2
sg238
I0
sb(idivisor
TwoPDivisor
p334
(dp335
g237
I-5
sg238
I107
sbtp336
sg125
((idivisor
TwoPDivisor
p337
(dp338
g237
I1
sg238
I6
sb(idivisor
TwoPDivisor
p339
(dp340
g237
I-6
sg238
I96
sbtp341
sg190
(g252
(idivisor
TwoPDivisor
p342
(dp343
g237
I-6
sg238
I103
sbtp344
sg129
(g257
(idivisor
TwoPDivisor
p345
(dp346
g237
I-6
sg238
I106
sbtp347
sg180
(g273
(idivisor
TwoPDivisor
p348
(dp349
g237
I-6
sg238
I93
sbtp350
sg49
((idivisor
TwoPDivisor
p351
(dp352
g237
I2
sg238
I7
sb(idivisor
TwoPDivisor
p353
(dp354
g237
I-6
sg238
I100
sbtp355
sg41
((idivisor
TwoPDivisor
p356
(dp357
g237
I4
sg238
I-18
sb(idivisor
TwoPDivisor
p358
(dp359
g237
I-1
sg238
I119
sbtp360
sg192
(g304
(idivisor
TwoPDivisor
p361
(dp362
g237
I-6
sg238
I93
sbtp363
sg98
(g252
(idivisor
TwoPDivisor
p364
(dp365
g237
I-6
sg238
I115
sbtp366
sg93
(g318
(idivisor
TwoPDivisor
p367
(dp368
g237
I-6
sg238
I100
sbtp369
sg74
((idivisor
TwoPDivisor
p370
(dp371
g237
I2
sg238
I13
sb(idivisor
TwoPDivisor
p372
(dp373
g237
I-6
sg238
I92
sbtp374
sg50
(g337
(idivisor
TwoPDivisor
p375
(dp376
g237
I-5
sg238
I101
sbtp377
sg32
((idivisor
TwoPDivisor
p378
(dp379
g237
I5
sg238
I2
sb(idivisor
TwoPDivisor
p380
(dp381
g237
I-6
sg238
I103
sbtp382
sg55
((idivisor
TwoPDivisor
p383
(dp384
g237
I4
sg238
I-9
sb(idivisor
TwoPDivisor
p385
(dp386
g237
I-6
sg238
I114
sbtp387
sg201
(g281
(idivisor
TwoPDivisor
p388
(dp389
g237
I-6
sg238
I102
sbtp390
sg96
(g257
(idivisor
TwoPDivisor
p391
(dp392
g237
I-6
sg238
I109
sbtp393
sg212
(g252
(idivisor
TwoPDivisor
p394
(dp395
g237
I-6
sg238
I98
sbtp396
sg105
(g318
(idivisor
TwoPDivisor
p397
(dp398
g237
I-6
sg238
I99
sbtp399
sg171
(g247
(idivisor
TwoPDivisor
p400
(dp401
g237
I-6
sg238
I104
sbtp402
sg179
(g281
(idivisor
TwoPDivisor
p403
(dp404
g237
I-6
sg238
I106
sbtp405
sg207
(g247
(idivisor
TwoPDivisor
p406
(dp407
g237
I-6
sg238
I97
sbtp408
sg127
(g273
(idivisor
TwoPDivisor
p409
(dp410
g237
I-6
sg238
I100
sbtp411
sg39
(g383
(idivisor
TwoPDivisor
p412
(dp413
g237
I-6
sg238
I115
sbtp414
sg167
(g318
(idivisor
TwoPDivisor
p415
(dp416
g237
I-6
sg238
I92
sbtp417
sg64
(g351
(idivisor
TwoPDivisor
p418
(dp419
g237
I-6
sg238
I99
sbtp420
sg205
(g281
(idivisor
TwoPDivisor
p421
(dp422
g237
I-6
sg238
I101
sbtp423
sg123
(g234
(idivisor
TwoPDivisor
p424
(dp425
g237
I-6
sg238
I92
sbtp426
sg11
(g234
(idivisor
TwoPDivisor
p427
(dp428
g237
I-6
sg238
I100
sbtp429
sg69
((idivisor
TwoPDivisor
p430
(dp431
g237
I3
sg238
I-4
sb(idivisor
TwoPDivisor
p432
(dp433
g237
I-6
sg238
I109
sbtp434
sg139
(g247
(idivisor
TwoPDivisor
p435
(dp436
g237
I-6
sg238
I108
sbtp437
sg150
(g281
(idivisor
TwoPDivisor
p438
(dp439
g237
I-6
sg238
I110
sbtp440
sg164
(g247
(idivisor
TwoPDivisor
p441
(dp442
g237
I-6
sg238
I105
sbtp443
sg153
(g273
(idivisor
TwoPDivisor
p444
(dp445
g237
I-6
sg238
I97
sbtp446
sg46
((idivisor
TwoPDivisor
p447
(dp448
g237
I1
sg238
I12
sb(idivisor
TwoPDivisor
p449
(dp450
g237
I-5
sg238
I95
sbtp451
sg81
(g273
(idivisor
TwoPDivisor
p452
(dp453
g237
I-6
sg238
I104
sbtp454
sg199
(g247
(idivisor
TwoPDivisor
p455
(dp456
g237
I-6
sg238
I99
sbtp457
sg187
(g304
(idivisor
TwoPDivisor
p458
(dp459
g237
I-6
sg238
I94
sbtp460
sg76
(g242
(idivisor
TwoPDivisor
p461
(dp462
g237
I-6
sg238
I95
sbtp463
sg227
(g252
(idivisor
TwoPDivisor
p464
(dp465
g237
I-6
sg238
I93
sbtp466
sg102
(g234
(idivisor
TwoPDivisor
p467
(dp468
g237
I-6
sg238
I94
sbtp469
sg204
(g252
(idivisor
TwoPDivisor
p470
(dp471
g237
I-6
sg238
I100
sbtp472
sg173
(g281
(idivisor
TwoPDivisor
p473
(dp474
g237
I-6
sg238
I107
sbtp475
sg92
(g337
(idivisor
TwoPDivisor
p476
(dp477
g237
I-6
sg238
I99
sbtp478
sg30
(g234
(idivisor
TwoPDivisor
p479
(dp480
g237
I-6
sg238
I99
sbtp481
sg216
(g252
(idivisor
TwoPDivisor
p482
(dp483
g237
I-6
sg238
I97
sbtp484
sg67
(g273
(idivisor
TwoPDivisor
p485
(dp486
g237
I-6
sg238
I105
sbtp487
sg51
((idivisor
TwoPDivisor
p488
(dp489
g237
I3
sg238
I2
sb(idivisor
TwoPDivisor
p490
(dp491
g237
I-5
sg238
I103
sbtp492
sg230
(g281
(idivisor
TwoPDivisor
p493
(dp494
g237
I-6
sg238
I93
sbtp495
sg60
(g370
(idivisor
TwoPDivisor
p496
(dp497
g237
I-6
sg238
I93
sbtp498
sg89
(g242
(idivisor
TwoPDivisor
p499
(dp500
g237
I-6
sg238
I94
sbtp501
sg176
(g257
(idivisor
TwoPDivisor
p502
(dp503
g237
I-6
sg238
I100
sbtp504
sg206
(g257
(idivisor
TwoPDivisor
p505
(dp506
g237
I-6
sg238
I94
sbtp507
sg189
(g247
(idivisor
TwoPDivisor
p508
(dp509
g237
I-6
sg238
I101
sbtp510
sg121
(g252
(idivisor
TwoPDivisor
p511
(dp512
g237
I-6
sg238
I113
sbtp513
sg70
((idivisor
TwoPDivisor
p514
(dp515
g237
I2
sg238
I-6
sb(idivisor
TwoPDivisor
p516
(dp517
g237
I-1
sg238
I107
sbtp518
sg172
(g252
(idivisor
TwoPDivisor
p519
(dp520
g237
I-6
sg238
I106
sbtp521
sg56
((idivisor
TwoPDivisor
p522
(dp523
g237
I3
sg238
I-12
sb(idivisor
TwoPDivisor
p524
(dp525
g237
I-1
sg238
I113
sbtp526
sg4
((idivisor
TwoPDivisor
p527
(dp528
g237
I1
sg238
I18
sb(idivisor
TwoPDivisor
p529
(dp530
g237
I-3
sg238
I89
sbtp531
sg29
(g242
(idivisor
TwoPDivisor
p532
(dp533
g237
I-6
sg238
I98
sbtp534
sg14
((idivisor
TwoPDivisor
p535
(dp536
g237
I4
sg238
I2
sb(idivisor
TwoPDivisor
p537
(dp538
g237
I-5
sg238
I104
sbtp539
sg229
(g252
(idivisor
TwoPDivisor
p540
(dp541
g237
I-6
sg238
I92
sbtp542
sg65
(g337
(idivisor
TwoPDivisor
p543
(dp544
g237
I-6
sg238
I101
sbtp545
sg198
(g257
(idivisor
TwoPDivisor
p546
(dp547
g237
I-6
sg238
I96
sbtp548
sg168
(g273
(idivisor
TwoPDivisor
p549
(dp550
g237
I-6
sg238
I95
sbtp551
sg79
(g337
(idivisor
TwoPDivisor
p552
(dp553
g237
I-6
sg238
I100
sbtp554
sg131
(g252
(idivisor
TwoPDivisor
p555
(dp556
g237
I-1
sg238
I107
sbtp557
sg5
((idivisor
TwoPDivisor
p558
(dp559
g237
I5
sg238
I13
sb(idivisor
TwoPDivisor
p560
(dp561
g237
I-6
sg238
I93
sbtp562
sg110
(g252
(idivisor
TwoPDivisor
p563
(dp564
g237
I-6
sg238
I114
sbtp565
sg115
(g337
(idivisor
TwoPDivisor
p566
(dp567
g237
I-6
sg238
I97
sbtp568
sg137
(g304
(idivisor
TwoPDivisor
p569
(dp570
g237
I-6
sg238
I101
sbtp571
sg194
(g247
(idivisor
TwoPDivisor
p572
(dp573
g237
I-6
sg238
I100
sbtp574
sg144
(g318
(idivisor
TwoPDivisor
p575
(dp576
g237
I-6
sg238
I95
sbtp577
sg118
(g304
(idivisor
TwoPDivisor
p578
(dp579
g237
I-6
sg238
I103
sbtp580
sg217
(g281
(idivisor
TwoPDivisor
p581
(dp582
g237
I-6
sg238
I98
sbtp583
sg186
(g273
(idivisor
TwoPDivisor
p584
(dp585
g237
I-6
sg238
I92
sbtp586
sg68
(g304
(idivisor
TwoPDivisor
p587
(dp588
g237
I-6
sg238
I107
sbtp589
sg9
((idivisor
TwoPDivisor
p590
(dp591
g237
I5
sg238
I8
sb(idivisor
TwoPDivisor
p592
(dp593
g237
I-6
sg238
I98
sbtp594
sg149
(g252
(idivisor
TwoPDivisor
p595
(dp596
g237
I-6
sg238
I109
sbtp597
sg220
(g281
(idivisor
TwoPDivisor
p598
(dp599
g237
I-6
sg238
I97
sbtp600
sg103
(g351
(idivisor
TwoPDivisor
p601
(dp602
g237
I-6
sg238
I96
sbtp603
sg151
(g337
(idivisor
TwoPDivisor
p604
(dp605
g237
I-6
sg238
I93
sbtp606
sg188
(g257
(idivisor
TwoPDivisor
p607
(dp608
g237
I-6
sg238
I98
sbtp609
sg142
(g351
(idivisor
TwoPDivisor
p610
(dp611
g237
I-6
sg238
I92
sbtp612
sg108
(g257
(idivisor
TwoPDivisor
p613
(dp614
g237
I-6
sg238
I108
sbtp615
sg203
(g247
(idivisor
TwoPDivisor
p616
(dp617
g237
I-6
sg238
I98
sbtp618
sg209
(g281
(idivisor
TwoPDivisor
p619
(dp620
g237
I-6
sg238
I100
sbtp621
sg141
(g281
(idivisor
TwoPDivisor
p622
(dp623
g237
I-1
sg238
I107
sbtp624
sg219
(g252
(idivisor
TwoPDivisor
p625
(dp626
g237
I-6
sg238
I96
sbtp627
sg215
(g247
(idivisor
TwoPDivisor
p628
(dp629
g237
I-6
sg238
I95
sbtp630
sg109
(g247
(idivisor
TwoPDivisor
p631
(dp632
g237
I-1
sg238
I107
sbtp633
sg161
(g273
(idivisor
TwoPDivisor
p634
(dp635
g237
I-6
sg238
I96
sbtp636
sg10
(g242
(idivisor
TwoPDivisor
p637
(dp638
g237
I-6
sg238
I99
sbtp639
sg12
((idivisor
TwoPDivisor
p640
(dp641
g237
I2
sg238
I6
sb(idivisor
TwoPDivisor
p642
(dp643
g237
I-4
sg238
I101
sbtp644
sg100
(g447
(idivisor
TwoPDivisor
p645
(dp646
g237
I-6
sg238
I92
sbtp647
sg138
(g257
(idivisor
TwoPDivisor
p648
(dp649
g237
I-6
sg238
I105
sbtp650
sg162
(g304
(idivisor
TwoPDivisor
p651
(dp652
g237
I-6
sg238
I98
sbtp653
sg147
(g257
(idivisor
TwoPDivisor
p654
(dp655
g237
I-6
sg238
I104
sbtp656
sg52
(g332
(idivisor
TwoPDivisor
p657
(dp658
g237
I-6
sg238
I107
sbtp659
sg135
(g318
(idivisor
TwoPDivisor
p660
(dp661
g237
I-6
sg238
I96
sbtp662
sg31
(g640
(idivisor
TwoPDivisor
p663
(dp664
g237
I-5
sg238
I101
sbtp665
sg122
(g281
(idivisor
TwoPDivisor
p666
(dp667
g237
I-6
sg238
I114
sbtp668
sg214
(g257
(idivisor
TwoPDivisor
p669
(dp670
g237
I-6
sg238
I92
sbtp671
sg145
(g273
(idivisor
TwoPDivisor
p672
(dp673
g237
I-6
sg238
I98
sbtp674
sg17
(g291
(idivisor
TwoPDivisor
p675
(dp676
g237
I-6
sg238
I110
sbtp677
sg124
(g351
(idivisor
TwoPDivisor
p678
(dp679
g237
I-6
sg238
I94
sbtp680
sg20
((idivisor
TwoPDivisor
p681
(dp682
g237
I4
sg238
I-12
sb(idivisor
TwoPDivisor
p683
(dp684
g237
I-6
sg238
I119
sbtp685
sg58
(g281
(idivisor
TwoPDivisor
p686
(dp687
g237
I-1
sg238
I119
sbtp688
sg91
(g351
(idivisor
TwoPDivisor
p689
(dp690
g237
I-6
sg238
I97
sbtp691
sg185
(g281
(idivisor
TwoPDivisor
p692
(dp693
g237
I-6
sg238
I105
sbtp694
sg181
(g304
(idivisor
TwoPDivisor
p695
(dp696
g237
I-6
sg238
I95
sbtp697
sg136
(g273
(idivisor
TwoPDivisor
p698
(dp699
g237
I-6
sg238
I99
sbtp700
sg119
(g257
(idivisor
TwoPDivisor
p701
(dp702
g237
I-6
sg238
I107
sbtp703
sg24
(g558
(idivisor
TwoPDivisor
p704
(dp705
g237
I-6
sg238
I92
sbtp706
sg158
(g281
(idivisor
TwoPDivisor
p707
(dp708
g237
I-6
sg238
I109
sbtp709
sg34
(g488
(idivisor
TwoPDivisor
p710
(dp711
g237
I-5
sg238
I104
sbtp712
sg160
(g318
(idivisor
TwoPDivisor
p713
(dp714
g237
I-6
sg238
I93
sbtp715
sg37
((idivisor
TwoPDivisor
p716
(dp717
g237
I3
sg238
I-6
sb(idivisor
TwoPDivisor
p718
(dp719
g237
I-6
sg238
I113
sbtp720
sg132
(g281
(idivisor
TwoPDivisor
p721
(dp722
g237
I-6
sg238
I113
sbtp723
sg148
(g247
(idivisor
TwoPDivisor
p724
(dp725
g237
I-6
sg238
I107
sbtp726
sg184
(g252
(idivisor
TwoPDivisor
p727
(dp728
g237
I-6
sg238
I104
sbtp729
sg42
(g281
(idivisor
TwoPDivisor
p730
(dp731
g237
I-6
sg238
I125
sbtp732
sg157
(g252
(idivisor
TwoPDivisor
p733
(dp734
g237
I-6
sg238
I108
sbtp735
sg83
(g430
(idivisor
TwoPDivisor
p736
(dp737
g237
I-6
sg238
I108
sbtp738
sg163
(g257
(idivisor
TwoPDivisor
p739
(dp740
g237
I-6
sg238
I102
sbtp741
sg45
(g370
(idivisor
TwoPDivisor
p742
(dp743
g237
I-6
sg238
I94
sbtp744
sg80
(g318
(idivisor
TwoPDivisor
p745
(dp746
g237
I-6
sg238
I101
sbtp747
sg218
(g247
(idivisor
TwoPDivisor
p748
(dp749
g237
I-6
sg238
I94
sbtp750
sg231
(g281
(idivisor
TwoPDivisor
p751
(dp752
g237
I-6
sg238
I92
sbtp753
sg54
(g430
(idivisor
TwoPDivisor
p754
(dp755
g237
I-6
sg238
I110
sbtp756
sg26
(g296
(idivisor
TwoPDivisor
p757
(dp758
g237
I-6
sg238
I94
sbtp759
sg208
(g252
(idivisor
TwoPDivisor
p760
(dp761
g237
I-6
sg238
I99
sbtp762
sg193
(g257
(idivisor
TwoPDivisor
p763
(dp764
g237
I-6
sg238
I97
sbtp765
sg210
(g257
(idivisor
TwoPDivisor
p766
(dp767
g237
I-6
sg238
I93
sbtp768
sg146
(g304
(idivisor
TwoPDivisor
p769
(dp770
g237
I-6
sg238
I100
sbtp771
sg226
(g281
(idivisor
TwoPDivisor
p772
(dp773
g237
I-6
sg238
I95
sbtp774
sg6
((idivisor
TwoPDivisor
p775
(dp776
g237
I4
sg238
I13
sb(idivisor
TwoPDivisor
p777
(dp778
g237
I-6
sg238
I94
sbtp779
sg47
(g242
(idivisor
TwoPDivisor
p780
(dp781
g237
I-6
sg238
I97
sbtp782
sg104
(g337
(idivisor
TwoPDivisor
p783
(dp784
g237
I-6
sg238
I98
sbtp785
sg202
(g257
(idivisor
TwoPDivisor
p786
(dp787
g237
I-6
sg238
I95
sbtp788
sg18
(g716
(idivisor
TwoPDivisor
p789
(dp790
g237
I-5
sg238
I113
sbtp791
sg126
(g318
(idivisor
TwoPDivisor
p792
(dp793
g237
I-6
sg238
I97
sbtp794
sg25
(g775
(idivisor
TwoPDivisor
p795
(dp796
g237
I-6
sg238
I93
sbtp797
sg178
(g252
(idivisor
TwoPDivisor
p798
(dp799
g237
I-6
sg238
I105
sbtp800
sg225
(g252
(idivisor
TwoPDivisor
p801
(dp802
g237
I-6
sg238
I94
sbtp803
sg175
(g304
(idivisor
TwoPDivisor
p804
(dp805
g237
I-6
sg238
I96
sbtp806
sg182
(g257
(idivisor
TwoPDivisor
p807
(dp808
g237
I-6
sg238
I99
sbtp809
sg211
(g247
(idivisor
TwoPDivisor
p810
(dp811
g237
I-6
sg238
I96
sbtp812
sg73
(g281
(idivisor
TwoPDivisor
p813
(dp814
g237
I-6
sg238
I120
sbtp815
sg143
(g337
(idivisor
TwoPDivisor
p816
(dp817
g237
I-6
sg238
I94
sbtp818
sg63
(g234
(idivisor
TwoPDivisor
p819
(dp820
g237
I-6
sg238
I97
sbtp821
sg75
(g447
(idivisor
TwoPDivisor
p822
(dp823
g237
I-6
sg238
I94
sbtp824
sg78
(g351
(idivisor
TwoPDivisor
p825
(dp826
g237
I-6
sg238
I98
sbtp827
sg223
(g281
(idivisor
TwoPDivisor
p828
(dp829
g237
I-6
sg238
I96
sbtp830
sg33
(g535
(idivisor
TwoPDivisor
p831
(dp832
g237
I-5
sg238
I103
sbtp833
sg7
(g296
(idivisor
TwoPDivisor
p834
(dp835
g237
I-5
sg238
I94
sbtp836
sg183
(g247
(idivisor
TwoPDivisor
p837
(dp838
g237
I-6
sg238
I102
sbtp839
sg84
(g257
(idivisor
TwoPDivisor
p840
(dp841
g237
I-6
sg238
I110
sbtp842
sg71
(g247
(idivisor
TwoPDivisor
p843
(dp844
g237
I-6
sg238
I115
sbtp845
sg156
(g247
(idivisor
TwoPDivisor
p846
(dp847
g237
I-6
sg238
I106
sbtp848
sg166
(g281
(idivisor
TwoPDivisor
p849
(dp850
g237
I-6
sg238
I108
sbtp851
sg101
(g242
(idivisor
TwoPDivisor
p852
(dp853
g237
I-6
sg238
I93
sbtp854
sg196
(g281
(idivisor
TwoPDivisor
p855
(dp856
g237
I-6
sg238
I103
sbtp857
sg213
(g281
(idivisor
TwoPDivisor
p858
(dp859
g237
I-6
sg238
I99
sbtp860
sg43
(g775
(idivisor
TwoPDivisor
p861
(dp862
g237
I-6
sg238
I92
sbtp863
sg77
(g234
(idivisor
TwoPDivisor
p864
(dp865
g237
I-6
sg238
I96
sbtp866
sg57
(g252
(idivisor
TwoPDivisor
p867
(dp868
g237
I-6
sg238
I120
sbtp869
sg40
(g522
(idivisor
TwoPDivisor
p870
(dp871
g237
I-6
sg238
I119
sbtp872
sg134
(g337
(idivisor
TwoPDivisor
p873
(dp874
g237
I-6
sg238
I95
sbtp875
sg87
(g281
(idivisor
TwoPDivisor
p876
(dp877
g237
I-6
sg238
I119
sbtp878
sg62
(g242
(idivisor
TwoPDivisor
p879
(dp880
g237
I-6
sg238
I96
sbtp881
sg133
(g351
(idivisor
TwoPDivisor
p882
(dp883
g237
I-6
sg238
I93
sbtp884
sg169
(g304
(idivisor
TwoPDivisor
p885
(dp886
g237
I-6
sg238
I97
sbtp887
sg85
(g247
(idivisor
TwoPDivisor
p888
(dp889
g237
I-6
sg238
I114
sbtp890
sg221
(g247
(idivisor
TwoPDivisor
p891
(dp892
g237
I-6
sg238
I93
sbtp893
sg16
((idivisor
TwoPDivisor
p894
(dp895
g237
I5
sg238
I-3
sb(idivisor
TwoPDivisor
p896
(dp897
g237
I-6
sg238
I109
sbtp898
sg195
(g252
(idivisor
TwoPDivisor
p899
(dp900
g237
I-6
sg238
I102
sbtp901
sg107
(g304
(idivisor
TwoPDivisor
p902
(dp903
g237
I-6
sg238
I104
sbtp904
sg27
(g370
(idivisor
TwoPDivisor
p905
(dp906
g237
I-5
sg238
I94
sbtp907
sg44
(g296
(idivisor
TwoPDivisor
p908
(dp909
g237
I-6
sg238
I93
sbtp910
sg19
((idivisor
TwoPDivisor
p911
(dp912
g237
I5
sg238
I-9
sb(idivisor
TwoPDivisor
p913
(dp914
g237
I-6
sg238
I115
sbtp915
sg8
((idivisor
TwoPDivisor
p916
(dp917
g237
I2
sg238
I12
sb(idivisor
TwoPDivisor
p918
(dp919
g237
I-4
sg238
I95
sbtp920
sg61
(g447
(idivisor
TwoPDivisor
p921
(dp922
g237
I-6
sg238
I95
sbtp923
sg111
(g281
(idivisor
TwoPDivisor
p924
(dp925
g237
I-6
sg238
I115
sbtp926
sg66
(g318
(idivisor
TwoPDivisor
p927
(dp928
g237
I-6
sg238
I102
sbtp929
sg94
(g273
(idivisor
TwoPDivisor
p930
(dp931
g237
I-6
sg238
I103
sbtp932
sg177
(g247
(idivisor
TwoPDivisor
p933
(dp934
g237
I-6
sg238
I103
sbtp935
sg191
(g281
(idivisor
TwoPDivisor
p936
(dp937
g237
I-6
sg238
I104
sbtp938
sg22
(g356
(idivisor
TwoPDivisor
p939
(dp940
g237
I-6
sg238
I125
sbtp941
sg120
(g247
(idivisor
TwoPDivisor
p942
(dp943
g237
I-6
sg238
I110
sbtp944
sg224
(g247
(idivisor
TwoPDivisor
p945
(dp946
g237
I-6
sg238
I92
sbtp947
sg28
(g447
(idivisor
TwoPDivisor
p948
(dp949
g237
I-4
sg238
I95
sbtp950
sg117
(g273
(idivisor
TwoPDivisor
p951
(dp952
g237
I-6
sg238
I101
sbtp953
sg88
(g447
(idivisor
TwoPDivisor
p954
(dp955
g237
I-6
sg238
I93
sbtp956
sg128
(g304
(idivisor
TwoPDivisor
p957
(dp958
g237
I-6
sg238
I102
sbtp959
sg113
(g234
(idivisor
TwoPDivisor
p960
(dp961
g237
I-6
sg238
I93
sbtp962
sg21
((idivisor
TwoPDivisor
p963
(dp964
g237
I5
sg238
I-14
sb(idivisor
TwoPDivisor
p965
(dp966
g237
I-6
sg238
I120
sbtp967
sg114
(g351
(idivisor
TwoPDivisor
p968
(dp969
g237
I-6
sg238
I95
sbtp970
sg82
(g304
(idivisor
TwoPDivisor
p971
(dp972
g237
I-6
sg238
I106
sbtp973
sg38
(g911
(idivisor
TwoPDivisor
p974
(dp975
g237
I-6
sg238
I114
sbtp976
sg222
(g252
(idivisor
TwoPDivisor
p977
(dp978
g237
I-6
sg238
I95
sbtp979
sg197
(g304
(idivisor
TwoPDivisor
p980
(dp981
g237
I-6
sg238
I92
sbtp982
sg95
(g304
(idivisor
TwoPDivisor
p983
(dp984
g237
I-6
sg238
I105
sbtp985
sg159
(g337
(idivisor
TwoPDivisor
p986
(dp987
g237
I-6
sg238
I92
sbtp988
sg13
(g378
(idivisor
TwoPDivisor
p989
(dp990
g237
I-6
sg238
I104
sbtp991
sg99
(g281
(idivisor
TwoPDivisor
p992
(dp993
g237
I-1
sg238
I113
sbtp994
sg140
(g252
(idivisor
TwoPDivisor
p995
(dp996
g237
I-6
sg238
I110
sbtp997
ss.