(dp0
S'ind'
p1
(lp2
(I429
I56
tp3
a(I430
I55
tp4
a(I431
I54
tp5
a(I432
I53
tp6
a(I433
I52
tp7
a(I434
I51
tp8
a(I435
I50
tp9
a(I436
I49
tp10
a(I438
I48
tp11
a(I439
I47
tp12
a(I440
I46
tp13
a(I441
I45
tp14
a(I442
I44
tp15
a(I443
I43
tp16
a(I445
I42
tp17
a(I447
I40
tp18
a(I448
I39
tp19
a(I449
I38
tp20
a(I450
I37
tp21
a(I451
I36
tp22
a(I454
I35
tp23
a(I456
I32
tp24
a(I457
I31
tp25
a(I458
I30
tp26
a(I459
I29
tp27
a(I463
I28
tp28
a(I465
I24
tp29
a(I466
I23
tp30
a(I467
I22
tp31
a(I472
I21
tp32
a(I474
I16
tp33
a(I475
I15
tp34
a(I481
I14
tp35
a(I483
I8
tp36
a(I490
I7
tp37
a(I496
I6
tp38
a(I501
I5
tp39
a(I505
I4
tp40
a(I508
I3
tp41
a(I510
I2
tp42
a(I511
I1
tp43
asS'witness'
p44
(dp45
g37
((idivisor
TwoPDivisor
p46
(dp48
S'Q'
p49
I2
sS'P'
p50
I-8
sbtp51
sg9
((idivisor
TwoPDivisor
p52
(dp53
g49
I3
sg50
I46
sbtp54
sg27
((idivisor
TwoPDivisor
p55
(dp56
g49
I6
sg50
I19
sbtp57
sg30
((idivisor
TwoPDivisor
p58
(dp59
g49
I8
sg50
I10
sbtp60
sg7
((idivisor
TwoPDivisor
p61
(dp62
g49
I5
sg50
I46
sbtp63
sg35
((idivisor
TwoPDivisor
p64
(dp65
g49
I2
sg50
I1
sbtp66
sg33
((idivisor
TwoPDivisor
p67
(dp68
g49
I1
sg50
I9
sbtp69
sg4
((idivisor
TwoPDivisor
p70
(dp71
g49
I8
sg50
I46
sbtp72
sg43
((idivisor
TwoPDivisor
p73
(dp74
g49
I8
sg50
I-56
sbtp75
sg5
((idivisor
TwoPDivisor
p76
(dp77
g49
I7
sg50
I46
sbtp78
sg24
((idivisor
TwoPDivisor
p79
(dp80
g49
I1
sg50
I27
sbtp81
sg39
((idivisor
TwoPDivisor
p82
(dp83
g49
I4
sg50
I-24
sbtp84
sg25
((idivisor
TwoPDivisor
p85
(dp86
g49
I8
sg50
I19
sbtp87
sg22
((idivisor
TwoPDivisor
p88
(dp89
g49
I5
sg50
I28
sbtp90
sg11
((idivisor
TwoPDivisor
p91
(dp92
g49
I1
sg50
I45
sbtp93
sg14
((idivisor
TwoPDivisor
p94
(dp95
g49
I6
sg50
I37
sbtp96
sg42
((idivisor
TwoPDivisor
p97
(dp98
g49
I7
sg50
I-48
sbtp99
sg23
((idivisor
TwoPDivisor
p100
(dp101
g49
I2
sg50
I28
sbtp102
sg6
((idivisor
TwoPDivisor
p103
(dp104
g49
I6
sg50
I46
sbtp105
sg40
((idivisor
TwoPDivisor
p106
(dp107
g49
I5
sg50
I-32
sbtp108
sg17
((idivisor
TwoPDivisor
p109
(dp110
g49
I2
sg50
I37
sbtp111
sg19
((idivisor
TwoPDivisor
p112
(dp113
g49
I8
sg50
I28
sbtp114
sg10
((idivisor
TwoPDivisor
p115
(dp116
g49
I2
sg50
I46
sbtp117
sg12
((idivisor
TwoPDivisor
p118
(dp119
g49
I8
sg50
I37
sbtp120
sg20
((idivisor
TwoPDivisor
p121
(dp122
g49
I7
sg50
I28
sbtp123
sg32
((idivisor
TwoPDivisor
p124
(dp125
g49
I2
sg50
I10
sbtp126
sg26
((idivisor
TwoPDivisor
p127
(dp128
g49
I7
sg50
I19
sbtp129
sg18
((idivisor
TwoPDivisor
p130
(dp131
g49
I1
sg50
I36
sbtp132
sg13
((idivisor
TwoPDivisor
p133
(dp134
g49
I7
sg50
I37
sbtp135
sg29
((idivisor
TwoPDivisor
p136
(dp137
g49
I1
sg50
I18
sbtp138
sg15
((idivisor
TwoPDivisor
p139
(dp140
g49
I5
sg50
I37
sbtp141
sg41
((idivisor
TwoPDivisor
p142
(dp143
g49
I6
sg50
I-40
sbtp144
sg28
((idivisor
TwoPDivisor
p145
(dp146
g49
I2
sg50
I19
sbtp147
sg8
((idivisor
TwoPDivisor
p148
(dp149
g49
I4
sg50
I46
sbtp150
sg3
((idivisor
TwoPDivisor
p151
(dp152
g49
I1
sg50
I54
sbtp153
sg34
((idivisor
TwoPDivisor
p154
(dp155
g49
I8
sg50
I1
sbtp156
sg36
((idivisor
TwoPDivisor
p157
(dp158
g49
I1
sg50
I0
sbtp159
sg16
((idivisor
TwoPDivisor
p160
(dp161
g49
I4
sg50
I37
sbtp162
sg31
((idivisor
TwoPDivisor
p163
(dp164
g49
I7
sg50
I10
sbtp165
sg38
((idivisor
TwoPDivisor
p166
(dp167
g49
I3
sg50
I-16
sbtp168
sg21
((idivisor
TwoPDivisor
p169
(dp170
g49
I6
sg50
I28
sbtp171
ss.