(dp0
S'ind'
p1
(lp2
(I0
I62
I0
tp3
a(I1
I41
I12
tp4
a(I1
I42
I11
tp5
a(I1
I43
I10
tp6
a(I1
I45
I9
tp7
a(I1
I46
I8
tp8
a(I1
I47
I7
tp9
a(I1
I50
I6
tp10
a(I1
I51
I5
tp11
a(I1
I54
I4
tp12
a(I1
I55
I3
tp13
a(I1
I59
I2
tp14
a(I1
I62
I1
tp15
a(I2
I41
I11
tp16
a(I2
I42
I10
tp17
a(I2
I43
I9
tp18
a(I2
I45
I8
tp19
a(I2
I46
I7
tp20
a(I2
I49
I6
tp21
a(I2
I50
I5
tp22
a(I2
I51
I4
tp23
a(I2
I54
I3
tp24
a(I2
I58
I2
tp25
a(I2
I59
I1
tp26
a(I3
I41
I10
tp27
a(I3
I42
I9
tp28
a(I3
I44
I8
tp29
a(I3
I45
I7
tp30
a(I3
I47
I6
tp31
a(I3
I50
I4
tp32
a(I3
I53
I3
tp33
a(I3
I55
I2
tp34
a(I3
I58
I1
tp35
a(I4
I41
I9
tp36
a(I4
I43
I8
tp37
a(I4
I44
I7
tp38
a(I4
I46
I6
tp39
a(I4
I48
I4
tp40
a(I4
I51
I3
tp41
a(I4
I54
I2
tp42
a(I4
I55
I1
tp43
a(I5
I42
I8
tp44
a(I5
I43
I7
tp45
a(I5
I45
I6
tp46
a(I5
I47
I4
tp47
a(I5
I50
I3
tp48
a(I5
I53
I2
tp49
a(I5
I54
I1
tp50
a(I6
I41
I8
tp51
a(I6
I42
I7
tp52
a(I6
I44
I6
tp53
a(I6
I46
I4
tp54
a(I6
I49
I3
tp55
a(I6
I51
I2
tp56
a(I6
I53
I1
tp57
a(I7
I41
I7
tp58
a(I7
I43
I6
tp59
a(I7
I45
I4
tp60
a(I7
I48
I3
tp61
a(I7
I50
I2
tp62
a(I7
I51
I1
tp63
a(I8
I42
I6
tp64
a(I8
I44
I4
tp65
a(I8
I47
I3
tp66
a(I8
I49
I2
tp67
a(I8
I50
I1
tp68
a(I9
I41
I6
tp69
a(I9
I43
I4
tp70
a(I9
I46
I3
tp71
a(I9
I48
I2
tp72
a(I9
I49
I1
tp73
a(I10
I42
I4
tp74
a(I10
I45
I3
tp75
a(I10
I47
I2
tp76
a(I10
I48
I1
tp77
a(I11
I41
I4
tp78
a(I11
I44
I3
tp79
a(I11
I46
I2
tp80
a(I11
I47
I1
tp81
a(I12
I43
I3
tp82
a(I12
I45
I2
tp83
a(I12
I46
I1
tp84
a(I13
I42
I3
tp85
a(I13
I44
I2
tp86
a(I13
I45
I1
tp87
a(I14
I41
I3
tp88
a(I14
I43
I2
tp89
a(I14
I44
I1
tp90
a(I15
I42
I2
tp91
a(I15
I43
I1
tp92
a(I16
I41
I2
tp93
a(I16
I42
I1
tp94
a(I17
I41
I1
tp95
asS'witness'
p96
(dp97
g11
((idivisor
TwoPDivisor
p98
(dp100
S'Q'
p101
I4
sS'P'
p102
I-3
sb(idivisor
TwoPDivisor
p103
(dp104
g101
I-5
sg102
I56
sbtp105
sg17
((idivisor
TwoPDivisor
p106
(dp107
g101
I3
sg102
I6
sb(idivisor
TwoPDivisor
p108
(dp109
g101
I-5
sg102
I47
sbtp110
sg47
((idivisor
TwoPDivisor
p111
(dp112
g101
I1
sg102
I0
sb(idivisor
TwoPDivisor
p113
(dp114
g101
I-5
sg102
I52
sbtp115
sg23
((idivisor
TwoPDivisor
p116
(dp117
g101
I3
sg102
I-3
sb(idivisor
TwoPDivisor
p118
(dp119
g101
I-5
sg102
I56
sbtp120
sg87
((idivisor
TwoPDivisor
p121
(dp122
g101
I4
sg102
I-12
sb(idivisor
TwoPDivisor
p123
(dp124
g101
I-5
sg102
I50
sbtp125
sg3
((idivisor
TwoPDivisor
p126
(dp127
g101
I4
sg102
I-14
sb(idivisor
TwoPDivisor
p128
(dp129
g101
I-5
sg102
I67
sbtp130
sg63
(g121
(idivisor
TwoPDivisor
p131
(dp132
g101
I-5
sg102
I56
sbtp133
sg42
((idivisor
TwoPDivisor
p134
(dp135
g101
I3
sg102
I-8
sb(idivisor
TwoPDivisor
p136
(dp137
g101
I-5
sg102
I59
sbtp138
sg85
((idivisor
TwoPDivisor
p139
(dp140
g101
I2
sg102
I-4
sb(idivisor
TwoPDivisor
p141
(dp142
g101
I-5
sg102
I47
sbtp143
sg56
(g134
(idivisor
TwoPDivisor
p144
(dp145
g101
I-5
sg102
I56
sbtp146
sg50
(g121
(idivisor
TwoPDivisor
p147
(dp148
g101
I-5
sg102
I59
sbtp149
sg78
(g111
(idivisor
TwoPDivisor
p150
(dp151
g101
I-5
sg102
I46
sbtp152
sg15
(g126
(idivisor
TwoPDivisor
p153
(dp154
g101
I-1
sg102
I63
sbtp155
sg25
((idivisor
TwoPDivisor
p156
(dp157
g101
I3
sg102
I-10
sb(idivisor
TwoPDivisor
p158
(dp159
g101
I-1
sg102
I59
sbtp160
sg20
((idivisor
TwoPDivisor
p161
(dp162
g101
I4
sg102
I1
sb(idivisor
TwoPDivisor
p163
(dp164
g101
I-5
sg102
I51
sbtp165
sg72
(g134
(idivisor
TwoPDivisor
p166
(dp167
g101
I-5
sg102
I53
sbtp168
sg91
(g134
(idivisor
TwoPDivisor
p169
(dp170
g101
I-5
sg102
I47
sbtp171
sg30
(g161
(idivisor
TwoPDivisor
p172
(dp173
g101
I-5
sg102
I50
sbtp174
sg88
(g139
(idivisor
TwoPDivisor
p175
(dp176
g101
I-5
sg102
I46
sbtp177
sg12
((idivisor
TwoPDivisor
p178
(dp179
g101
I3
sg102
I-5
sb(idivisor
TwoPDivisor
p180
(dp181
g101
I-5
sg102
I59
sbtp182
sg60
(g111
(idivisor
TwoPDivisor
p183
(dp184
g101
I-5
sg102
I50
sbtp185
sg84
(g121
(idivisor
TwoPDivisor
p186
(dp187
g101
I-5
sg102
I51
sbtp188
sg58
(g161
(idivisor
TwoPDivisor
p189
(dp190
g101
I-5
sg102
I46
sbtp191
sg90
(g121
(idivisor
TwoPDivisor
p192
(dp193
g101
I-5
sg102
I49
sbtp194
sg71
(g139
(idivisor
TwoPDivisor
p195
(dp196
g101
I-5
sg102
I51
sbtp197
sg55
(g139
(idivisor
TwoPDivisor
p198
(dp199
g101
I-5
sg102
I54
sbtp200
sg28
((idivisor
TwoPDivisor
p201
(dp202
g101
I2
sg102
I6
sb(idivisor
TwoPDivisor
p203
(dp204
g101
I-5
sg102
I47
sbtp205
sg18
(g201
(idivisor
TwoPDivisor
p206
(dp207
g101
I-5
sg102
I48
sbtp208
sg95
(g121
(idivisor
TwoPDivisor
p209
(dp210
g101
I-5
sg102
I46
sbtp211
sg36
(g201
(idivisor
TwoPDivisor
p212
(dp213
g101
I-5
sg102
I46
sbtp214
sg76
(g134
(idivisor
TwoPDivisor
p215
(dp216
g101
I-5
sg102
I52
sbtp217
sg74
(g111
(idivisor
TwoPDivisor
p218
(dp219
g101
I-5
sg102
I47
sbtp220
sg31
((idivisor
TwoPDivisor
p221
(dp222
g101
I2
sg102
I1
sb(idivisor
TwoPDivisor
p223
(dp224
g101
I-5
sg102
I52
sbtp225
sg33
((idivisor
TwoPDivisor
p226
(dp227
g101
I2
sg102
I-5
sb(idivisor
TwoPDivisor
p228
(dp229
g101
I-1
sg102
I54
sbtp230
sg92
(g121
(idivisor
TwoPDivisor
p231
(dp232
g101
I-5
sg102
I48
sbtp233
sg22
(g98
(idivisor
TwoPDivisor
p234
(dp235
g101
I-5
sg102
I55
sbtp236
sg7
((idivisor
TwoPDivisor
p237
(dp238
g101
I2
sg102
I5
sb(idivisor
TwoPDivisor
p239
(dp240
g101
I-4
sg102
I49
sbtp241
sg73
(g121
(idivisor
TwoPDivisor
p242
(dp243
g101
I-5
sg102
I54
sbtp244
sg79
(g139
(idivisor
TwoPDivisor
p245
(dp246
g101
I-5
sg102
I49
sbtp247
sg13
((idivisor
TwoPDivisor
p248
(dp249
g101
I4
sg102
I-7
sb(idivisor
TwoPDivisor
p250
(dp251
g101
I-5
sg102
I60
sbtp252
sg75
(g139
(idivisor
TwoPDivisor
p253
(dp254
g101
I-5
sg102
I50
sbtp255
sg94
(g121
(idivisor
TwoPDivisor
p256
(dp257
g101
I-5
sg102
I47
sbtp258
sg83
(g134
(idivisor
TwoPDivisor
p259
(dp260
g101
I-5
sg102
I50
sbtp261
sg80
(g134
(idivisor
TwoPDivisor
p262
(dp263
g101
I-5
sg102
I51
sbtp264
sg48
(g139
(idivisor
TwoPDivisor
p265
(dp266
g101
I-5
sg102
I55
sbtp267
sg51
((idivisor
TwoPDivisor
p268
(dp269
g101
I1
sg102
I5
sb(idivisor
TwoPDivisor
p270
(dp271
g101
I-5
sg102
I46
sbtp272
sg68
(g121
(idivisor
TwoPDivisor
p273
(dp274
g101
I-5
sg102
I55
sbtp275
sg69
(g221
(idivisor
TwoPDivisor
p276
(dp277
g101
I-5
sg102
I46
sbtp278
sg89
(g134
(idivisor
TwoPDivisor
p279
(dp280
g101
I-5
sg102
I48
sbtp281
sg34
(g134
(idivisor
TwoPDivisor
p282
(dp283
g101
I-5
sg102
I60
sbtp284
sg8
((idivisor
TwoPDivisor
p285
(dp286
g101
I4
sg102
I2
sb(idivisor
TwoPDivisor
p287
(dp288
g101
I-5
sg102
I51
sbtp289
sg65
(g111
(idivisor
TwoPDivisor
p290
(dp291
g101
I-5
sg102
I49
sbtp292
sg16
((idivisor
TwoPDivisor
p293
(dp294
g101
I4
sg102
I6
sb(idivisor
TwoPDivisor
p295
(dp296
g101
I-5
sg102
I46
sbtp297
sg77
(g121
(idivisor
TwoPDivisor
p298
(dp299
g101
I-5
sg102
I53
sbtp300
sg57
(g121
(idivisor
TwoPDivisor
p301
(dp302
g101
I-1
sg102
I54
sbtp303
sg32
(g116
(idivisor
TwoPDivisor
p304
(dp305
g101
I-5
sg102
I55
sbtp306
sg27
(g106
(idivisor
TwoPDivisor
p307
(dp308
g101
I-5
sg102
I46
sbtp309
sg4
((idivisor
TwoPDivisor
p310
(dp311
g101
I1
sg102
I10
sb(idivisor
TwoPDivisor
p312
(dp313
g101
I-3
sg102
I44
sbtp314
sg9
(g161
(idivisor
TwoPDivisor
p315
(dp316
g101
I-5
sg102
I52
sbtp317
sg93
(g134
(idivisor
TwoPDivisor
p318
(dp319
g101
I-5
sg102
I46
sbtp320
sg44
(g268
(idivisor
TwoPDivisor
p321
(dp322
g101
I-5
sg102
I47
sbtp323
sg53
(g221
(idivisor
TwoPDivisor
p324
(dp325
g101
I-5
sg102
I49
sbtp326
sg81
(g121
(idivisor
TwoPDivisor
p327
(dp328
g101
I-5
sg102
I52
sbtp329
sg35
(g121
(idivisor
TwoPDivisor
p330
(dp331
g101
I-1
sg102
I59
sbtp332
sg38
(g161
(idivisor
TwoPDivisor
p333
(dp334
g101
I-5
sg102
I49
sbtp335
sg10
((idivisor
TwoPDivisor
p336
(dp337
g101
I2
sg102
I0
sb(idivisor
TwoPDivisor
p338
(dp339
g101
I-4
sg102
I54
sbtp340
sg67
(g134
(idivisor
TwoPDivisor
p341
(dp342
g101
I-5
sg102
I54
sbtp343
sg54
(g111
(idivisor
TwoPDivisor
p344
(dp345
g101
I-5
sg102
I51
sbtp346
sg19
(g268
(idivisor
TwoPDivisor
p347
(dp348
g101
I-4
sg102
I49
sbtp349
sg5
(g293
(idivisor
TwoPDivisor
p350
(dp351
g101
I-5
sg102
I47
sbtp352
sg40
(g111
(idivisor
TwoPDivisor
p353
(dp354
g101
I-5
sg102
I53
sbtp355
sg52
(g161
(idivisor
TwoPDivisor
p356
(dp357
g101
I-5
sg102
I47
sbtp358
sg61
(g139
(idivisor
TwoPDivisor
p359
(dp360
g101
I-5
sg102
I53
sbtp361
sg46
(g221
(idivisor
TwoPDivisor
p362
(dp363
g101
I-5
sg102
I50
sbtp364
sg37
(g268
(idivisor
TwoPDivisor
p365
(dp366
g101
I-5
sg102
I48
sbtp367
sg82
(g139
(idivisor
TwoPDivisor
p368
(dp369
g101
I-5
sg102
I48
sbtp370
sg41
(g139
(idivisor
TwoPDivisor
p371
(dp372
g101
I-5
sg102
I56
sbtp373
sg59
(g221
(idivisor
TwoPDivisor
p374
(dp375
g101
I-5
sg102
I48
sbtp376
sg29
(g268
(idivisor
TwoPDivisor
p377
(dp378
g101
I-5
sg102
I49
sbtp379
sg86
(g134
(idivisor
TwoPDivisor
p380
(dp381
g101
I-5
sg102
I49
sbtp382
sg62
(g134
(idivisor
TwoPDivisor
p383
(dp384
g101
I-5
sg102
I55
sbtp385
sg43
(g121
(idivisor
TwoPDivisor
p386
(dp387
g101
I-5
sg102
I60
sbtp388
sg6
(g106
(idivisor
TwoPDivisor
p389
(dp390
g101
I-5
sg102
I48
sbtp391
sg64
(g221
(idivisor
TwoPDivisor
p392
(dp393
g101
I-5
sg102
I47
sbtp394
sg21
(g336
(idivisor
TwoPDivisor
p395
(dp396
g101
I-5
sg102
I54
sbtp397
sg45
(g161
(idivisor
TwoPDivisor
p398
(dp399
g101
I-5
sg102
I48
sbtp400
sg66
(g139
(idivisor
TwoPDivisor
p401
(dp402
g101
I-5
sg102
I52
sbtp403
sg24
(g226
(idivisor
TwoPDivisor
p404
(dp405
g101
I-5
sg102
I59
sbtp406
sg49
(g134
(idivisor
TwoPDivisor
p407
(dp408
g101
I-1
sg102
I54
sbtp409
sg39
(g221
(idivisor
TwoPDivisor
p410
(dp411
g101
I-5
sg102
I51
sbtp412
sg14
(g156
(idivisor
TwoPDivisor
p413
(dp414
g101
I-5
sg102
I64
sbtp415
sg70
(g111
(idivisor
TwoPDivisor
p416
(dp417
g101
I-5
sg102
I48
sbtp418
sg26
(g121
(idivisor
TwoPDivisor
p419
(dp420
g101
I-5
sg102
I64
sbtp421
ss.