(dp0
S'ind'
p1
(lp2
(I96
I20
tp3
a(I97
I19
tp4
a(I98
I18
tp5
a(I99
I17
tp6
a(I100
I16
tp7
a(I102
I15
tp8
a(I103
I14
tp9
a(I104
I13
tp10
a(I106
I12
tp11
a(I108
I10
tp12
a(I109
I9
tp13
a(I112
I8
tp14
a(I114
I5
tp15
a(I118
I4
tp16
a(I121
I3
tp17
a(I123
I2
tp18
a(I124
I1
tp19
asS'witness'
p20
(dp21
g4
((idivisor
TwoPDivisor
p22
(dp24
S'Q'
p25
I5
sS'P'
p26
I13
sbtp27
sg15
((idivisor
TwoPDivisor
p28
(dp29
g25
I1
sg26
I0
sbtp30
sg11
((idivisor
TwoPDivisor
p31
(dp32
g25
I2
sg26
I7
sbtp33
sg12
((idivisor
TwoPDivisor
p34
(dp35
g25
I1
sg26
I6
sbtp36
sg8
((idivisor
TwoPDivisor
p37
(dp38
g25
I1
sg26
I12
sbtp39
sg9
((idivisor
TwoPDivisor
p40
(dp41
g25
I5
sg26
I7
sbtp42
sg7
((idivisor
TwoPDivisor
p43
(dp44
g25
I2
sg26
I13
sbtp45
sg16
((idivisor
TwoPDivisor
p46
(dp47
g25
I2
sg26
I-5
sbtp48
sg17
((idivisor
TwoPDivisor
p49
(dp50
g25
I3
sg26
I-10
sbtp51
sg14
((idivisor
TwoPDivisor
p52
(dp53
g25
I2
sg26
I1
sbtp54
sg13
((idivisor
TwoPDivisor
p55
(dp56
g25
I5
sg26
I1
sbtp57
sg6
((idivisor
TwoPDivisor
p58
(dp59
g25
I3
sg26
I13
sbtp60
sg10
((idivisor
TwoPDivisor
p61
(dp62
g25
I4
sg26
I7
sbtp63
sg5
((idivisor
TwoPDivisor
p64
(dp65
g25
I4
sg26
I13
sbtp66
sg3
((idivisor
TwoPDivisor
p67
(dp68
g25
I1
sg26
I18
sbtp69
sg19
((idivisor
TwoPDivisor
p70
(dp71
g25
I5
sg26
I-20
sbtp72
sg18
((idivisor
TwoPDivisor
p73
(dp74
g25
I4
sg26
I-15
sbtp75
ss.