(dp0
S'ind'
p1
(lp2
(I429
I56
tp3
a(I430
I54
tp4
a(I431
I53
tp5
a(I432
I52
tp6
a(I433
I51
tp7
a(I434
I50
tp8
a(I435
I49
tp9
a(I438
I48
tp10
a(I439
I45
tp11
a(I440
I44
tp12
a(I441
I43
tp13
a(I442
I42
tp14
a(I443
I41
tp15
a(I447
I40
tp16
a(I448
I36
tp17
a(I449
I35
tp18
a(I450
I34
tp19
a(I451
I33
tp20
a(I456
I32
tp21
a(I457
I27
tp22
a(I458
I26
tp23
a(I459
I25
tp24
a(I465
I24
tp25
a(I466
I18
tp26
a(I467
I17
tp27
a(I474
I16
tp28
a(I475
I9
tp29
a(I483
I8
tp30
a(I490
I7
tp31
a(I496
I6
tp32
a(I501
I5
tp33
a(I505
I4
tp34
a(I508
I3
tp35
a(I510
I2
tp36
a(I511
I1
tp37
asS'witness'
p38
(dp39
g13
((idivisor
TwoPDivisor
p40
(dp42
S'Q'
p43
I0
sS'P'
p44
I43
sbtp45
sg34
((idivisor
TwoPDivisor
p46
(dp47
g43
I0
sg44
I-31
sbtp48
sg31
((idivisor
TwoPDivisor
p49
(dp50
g43
I0
sg44
I-7
sbtp51
sg27
((idivisor
TwoPDivisor
p52
(dp53
g43
I0
sg44
I17
sbtp54
sg10
((idivisor
TwoPDivisor
p55
(dp56
g43
I0
sg44
I46
sbtp57
sg7
((idivisor
TwoPDivisor
p58
(dp59
g43
I0
sg44
I51
sbtp60
sg33
((idivisor
TwoPDivisor
p61
(dp62
g43
I0
sg44
I-23
sbtp63
sg29
((idivisor
TwoPDivisor
p64
(dp65
g43
I0
sg44
I9
sbtp66
sg6
((idivisor
TwoPDivisor
p67
(dp68
g43
I0
sg44
I52
sbtp69
sg5
((idivisor
TwoPDivisor
p70
(dp71
g43
I0
sg44
I53
sbtp72
sg20
((idivisor
TwoPDivisor
p73
(dp74
g43
I0
sg44
I33
sbtp75
sg24
((idivisor
TwoPDivisor
p76
(dp77
g43
I0
sg44
I25
sbtp78
sg35
((idivisor
TwoPDivisor
p79
(dp80
g43
I0
sg44
I-39
sbtp81
sg26
((idivisor
TwoPDivisor
p82
(dp83
g43
I0
sg44
I18
sbtp84
sg14
((idivisor
TwoPDivisor
p85
(dp86
g43
I0
sg44
I42
sbtp87
sg9
((idivisor
TwoPDivisor
p88
(dp89
g43
I0
sg44
I49
sbtp90
sg11
((idivisor
TwoPDivisor
p91
(dp92
g43
I0
sg44
I45
sbtp93
sg18
((idivisor
TwoPDivisor
p94
(dp95
g43
I0
sg44
I35
sbtp96
sg3
((idivisor
TwoPDivisor
p97
(dp98
g43
I0
sg44
I55
sbtp99
sg16
((idivisor
TwoPDivisor
p100
(dp101
g43
I0
sg44
I37
sbtp102
sg36
((idivisor
TwoPDivisor
p103
(dp104
g43
I0
sg44
I-47
sbtp105
sg30
((idivisor
TwoPDivisor
p106
(dp107
g43
I0
sg44
I1
sbtp108
sg22
((idivisor
TwoPDivisor
p109
(dp110
g43
I0
sg44
I27
sbtp111
sg17
((idivisor
TwoPDivisor
p112
(dp113
g43
I0
sg44
I36
sbtp114
sg23
((idivisor
TwoPDivisor
p115
(dp116
g43
I0
sg44
I26
sbtp117
sg28
((idivisor
TwoPDivisor
p118
(dp119
g43
I0
sg44
I10
sbtp120
sg4
((idivisor
TwoPDivisor
p121
(dp122
g43
I0
sg44
I54
sbtp123
sg32
((idivisor
TwoPDivisor
p124
(dp125
g43
I0
sg44
I-15
sbtp126
sg21
((idivisor
TwoPDivisor
p127
(dp128
g43
I0
sg44
I28
sbtp129
sg25
((idivisor
TwoPDivisor
p130
(dp131
g43
I0
sg44
I19
sbtp132
sg8
((idivisor
TwoPDivisor
p133
(dp134
g43
I0
sg44
I50
sbtp135
sg19
((idivisor
TwoPDivisor
p136
(dp137
g43
I0
sg44
I34
sbtp138
sg12
((idivisor
TwoPDivisor
p139
(dp140
g43
I0
sg44
I44
sbtp141
sg15
((idivisor
TwoPDivisor
p142
(dp143
g43
I0
sg44
I41
sbtp144
sg37
((idivisor
TwoPDivisor
p145
(dp146
g43
I0
sg44
I-55
sbtp147
ss.