(dp0
S'ind'
p1
(lp2
(I0
I123
I0
tp3
a(I1
I86
I20
tp4
a(I1
I87
I18
tp5
a(I1
I88
I17
tp6
a(I1
I91
I16
tp7
a(I1
I92
I15
tp8
a(I1
I94
I11
tp9
a(I1
I97
I12
tp10
a(I1
I98
I10
tp11
a(I1
I102
I9
tp12
a(I1
I103
I8
tp13
a(I1
I104
I5
tp14
a(I1
I108
I6
tp15
a(I1
I113
I4
tp16
a(I1
I114
I3
tp17
a(I1
I119
I2
tp18
a(I2
I86
I18
tp19
a(I2
I87
I17
tp20
a(I2
I88
I16
tp21
a(I2
I91
I15
tp22
a(I2
I93
I11
tp23
a(I2
I96
I12
tp24
a(I2
I97
I10
tp25
a(I2
I102
I8
tp26
a(I2
I103
I5
tp27
a(I2
I107
I6
tp28
a(I2
I108
I4
tp29
a(I2
I113
I3
tp30
a(I2
I118
I2
tp31
a(I3
I86
I17
tp32
a(I3
I87
I16
tp33
a(I3
I90
I15
tp34
a(I3
I91
I12
tp35
a(I3
I92
I11
tp36
a(I3
I96
I10
tp37
a(I3
I97
I6
tp38
a(I3
I101
I8
tp39
a(I3
I102
I5
tp40
a(I3
I107
I4
tp41
a(I3
I112
I3
tp42
a(I3
I114
I2
tp43
a(I4
I86
I16
tp44
a(I4
I89
I15
tp45
a(I4
I90
I12
tp46
a(I4
I91
I11
tp47
a(I4
I95
I10
tp48
a(I4
I96
I6
tp49
a(I4
I101
I5
tp50
a(I4
I106
I4
tp51
a(I4
I109
I3
tp52
a(I4
I113
I2
tp53
a(I5
I88
I15
tp54
a(I5
I89
I12
tp55
a(I5
I90
I11
tp56
a(I5
I94
I10
tp57
a(I5
I95
I6
tp58
a(I5
I100
I5
tp59
a(I5
I104
I4
tp60
a(I5
I108
I3
tp61
a(I5
I112
I2
tp62
a(I6
I87
I15
tp63
a(I6
I88
I12
tp64
a(I6
I89
I11
tp65
a(I6
I93
I10
tp66
a(I6
I94
I6
tp67
a(I6
I99
I5
tp68
a(I6
I103
I4
tp69
a(I6
I107
I3
tp70
a(I6
I109
I2
tp71
a(I7
I86
I15
tp72
a(I7
I87
I12
tp73
a(I7
I88
I11
tp74
a(I7
I92
I10
tp75
a(I7
I93
I6
tp76
a(I7
I98
I5
tp77
a(I7
I102
I4
tp78
a(I7
I106
I3
tp79
a(I7
I108
I2
tp80
a(I8
I86
I12
tp81
a(I8
I87
I11
tp82
a(I8
I91
I10
tp83
a(I8
I92
I6
tp84
a(I8
I97
I5
tp85
a(I8
I101
I4
tp86
a(I8
I104
I3
tp87
a(I8
I107
I2
tp88
a(I9
I86
I11
tp89
a(I9
I90
I10
tp90
a(I9
I91
I6
tp91
a(I9
I96
I5
tp92
a(I9
I100
I4
tp93
a(I9
I103
I3
tp94
a(I9
I106
I2
tp95
a(I10
I89
I10
tp96
a(I10
I90
I6
tp97
a(I10
I95
I5
tp98
a(I10
I99
I4
tp99
a(I10
I102
I3
tp100
a(I10
I104
I2
tp101
a(I11
I88
I10
tp102
a(I11
I89
I6
tp103
a(I11
I94
I5
tp104
a(I11
I98
I4
tp105
a(I11
I101
I3
tp106
a(I11
I103
I2
tp107
a(I12
I87
I10
tp108
a(I12
I88
I6
tp109
a(I12
I93
I5
tp110
a(I12
I97
I4
tp111
a(I12
I100
I3
tp112
a(I12
I102
I2
tp113
a(I13
I86
I10
tp114
a(I13
I87
I6
tp115
a(I13
I92
I5
tp116
a(I13
I96
I4
tp117
a(I13
I99
I3
tp118
a(I13
I101
I2
tp119
a(I14
I86
I6
tp120
a(I14
I91
I5
tp121
a(I14
I95
I4
tp122
a(I14
I98
I3
tp123
a(I14
I100
I2
tp124
a(I15
I90
I5
tp125
a(I15
I94
I4
tp126
a(I15
I97
I3
tp127
a(I15
I99
I2
tp128
a(I16
I89
I5
tp129
a(I16
I93
I4
tp130
a(I16
I96
I3
tp131
a(I16
I98
I2
tp132
a(I17
I88
I5
tp133
a(I17
I92
I4
tp134
a(I17
I95
I3
tp135
a(I17
I97
I2
tp136
a(I18
I87
I5
tp137
a(I18
I91
I4
tp138
a(I18
I94
I3
tp139
a(I18
I96
I2
tp140
a(I19
I86
I5
tp141
a(I19
I90
I4
tp142
a(I19
I93
I3
tp143
a(I19
I95
I2
tp144
a(I20
I89
I4
tp145
a(I20
I92
I3
tp146
a(I20
I94
I2
tp147
a(I21
I88
I4
tp148
a(I21
I91
I3
tp149
a(I21
I93
I2
tp150
a(I22
I87
I4
tp151
a(I22
I90
I3
tp152
a(I22
I92
I2
tp153
a(I23
I86
I4
tp154
a(I23
I89
I3
tp155
a(I23
I91
I2
tp156
a(I24
I88
I3
tp157
a(I24
I90
I2
tp158
a(I25
I87
I3
tp159
a(I25
I89
I2
tp160
a(I26
I86
I3
tp161
a(I26
I88
I2
tp162
a(I27
I87
I2
tp163
a(I28
I86
I2
tp164
asS'witness'
p165
(dp166
g94
((idivisor
TwoPDivisor
p167
(dp169
S'Q'
p170
I0
sS'P'
p171
I-9
sb(idivisor
TwoPDivisor
p172
(dp173
g170
I-1
sg171
I104
sbtp174
sg119
((idivisor
TwoPDivisor
p175
(dp176
g170
I0
sg171
I-14
sb(idivisor
TwoPDivisor
p177
(dp178
g170
I-1
sg171
I102
sbtp179
sg122
((idivisor
TwoPDivisor
p180
(dp181
g170
I0
sg171
I-4
sb(idivisor
TwoPDivisor
p182
(dp183
g170
I-1
sg171
I96
sbtp184
sg91
((idivisor
TwoPDivisor
p185
(dp186
g170
I0
sg171
I6
sb(idivisor
TwoPDivisor
p187
(dp188
g170
I-1
sg171
I92
sbtp189
sg53
(g175
(idivisor
TwoPDivisor
p190
(dp191
g170
I-1
sg171
I114
sbtp192
sg144
(g175
(idivisor
TwoPDivisor
p193
(dp194
g170
I-1
sg171
I96
sbtp195
sg3
((idivisor
TwoPDivisor
p196
(dp197
g170
I0
sg171
I-18
sb(idivisor
TwoPDivisor
p198
(dp199
g170
I-1
sg171
I124
sbtp200
sg120
(g185
(idivisor
TwoPDivisor
p201
(dp202
g170
I-1
sg171
I87
sbtp203
sg95
(g175
(idivisor
TwoPDivisor
p204
(dp205
g170
I-1
sg171
I107
sbtp206
sg98
((idivisor
TwoPDivisor
p207
(dp208
g170
I0
sg171
I1
sb(idivisor
TwoPDivisor
p209
(dp210
g170
I-1
sg171
I96
sbtp211
sg65
((idivisor
TwoPDivisor
p212
(dp213
g170
I0
sg171
I11
sb(idivisor
TwoPDivisor
p214
(dp215
g170
I-1
sg171
I90
sbtp216
sg12
((idivisor
TwoPDivisor
p217
(dp218
g170
I0
sg171
I3
sb(idivisor
TwoPDivisor
p219
(dp220
g170
I-1
sg171
I103
sbtp221
sg37
((idivisor
TwoPDivisor
p222
(dp223
g170
I0
sg171
I7
sb(idivisor
TwoPDivisor
p224
(dp225
g170
I-1
sg171
I97
sbtp226
sg70
(g167
(idivisor
TwoPDivisor
p227
(dp228
g170
I-1
sg171
I108
sbtp229
sg111
(g180
(idivisor
TwoPDivisor
p230
(dp231
g170
I-1
sg171
I98
sbtp232
sg62
(g175
(idivisor
TwoPDivisor
p233
(dp234
g170
I-1
sg171
I113
sbtp235
sg29
(g180
(idivisor
TwoPDivisor
p236
(dp237
g170
I-1
sg171
I109
sbtp238
sg26
((idivisor
TwoPDivisor
p239
(dp240
g170
I0
sg171
I2
sb(idivisor
TwoPDivisor
p241
(dp242
g170
I-1
sg171
I103
sbtp243
sg90
(g222
(idivisor
TwoPDivisor
p244
(dp245
g170
I-1
sg171
I91
sbtp246
sg136
(g175
(idivisor
TwoPDivisor
p247
(dp248
g170
I-1
sg171
I98
sbtp249
sg93
(g180
(idivisor
TwoPDivisor
p250
(dp251
g170
I-1
sg171
I101
sbtp252
sg31
(g175
(idivisor
TwoPDivisor
p253
(dp254
g170
I-1
sg171
I119
sbtp255
sg6
((idivisor
TwoPDivisor
p256
(dp257
g170
I0
sg171
I17
sb(idivisor
TwoPDivisor
p258
(dp259
g170
I-1
sg171
I89
sbtp260
sg137
(g207
(idivisor
TwoPDivisor
p261
(dp262
g170
I-1
sg171
I88
sbtp263
sg74
(g212
(idivisor
TwoPDivisor
p264
(dp265
g170
I-1
sg171
I89
sbtp266
sg20
(g256
(idivisor
TwoPDivisor
p267
(dp268
g170
I-1
sg171
I88
sbtp269
sg69
(g180
(idivisor
TwoPDivisor
p270
(dp271
g170
I-1
sg171
I104
sbtp272
sg153
(g175
(idivisor
TwoPDivisor
p273
(dp274
g170
I-1
sg171
I93
sbtp275
sg123
(g167
(idivisor
TwoPDivisor
p276
(dp277
g170
I-1
sg171
I99
sbtp278
sg149
(g167
(idivisor
TwoPDivisor
p279
(dp280
g170
I-1
sg171
I92
sbtp281
sg76
(g185
(idivisor
TwoPDivisor
p282
(dp283
g170
I-1
sg171
I94
sbtp284
sg44
((idivisor
TwoPDivisor
p285
(dp286
g170
I0
sg171
I16
sb(idivisor
TwoPDivisor
p287
(dp288
g170
I-1
sg171
I87
sbtp289
sg32
(g256
(idivisor
TwoPDivisor
p290
(dp291
g170
I-1
sg171
I87
sbtp292
sg109
(g185
(idivisor
TwoPDivisor
p293
(dp294
g170
I-1
sg171
I89
sbtp295
sg100
(g167
(idivisor
TwoPDivisor
p296
(dp297
g170
I-1
sg171
I103
sbtp298
sg82
(g212
(idivisor
TwoPDivisor
p299
(dp300
g170
I-1
sg171
I88
sbtp301
sg34
((idivisor
TwoPDivisor
p302
(dp303
g170
I0
sg171
I13
sb(idivisor
TwoPDivisor
p304
(dp305
g170
I-1
sg171
I91
sbtp306
sg10
((idivisor
TwoPDivisor
p307
(dp308
g170
I0
sg171
I8
sb(idivisor
TwoPDivisor
p309
(dp310
g170
I-1
sg171
I98
sbtp311
sg108
(g222
(idivisor
TwoPDivisor
p312
(dp313
g170
I-1
sg171
I88
sbtp314
sg143
(g167
(idivisor
TwoPDivisor
p315
(dp316
g170
I-1
sg171
I94
sbtp317
sg133
(g207
(idivisor
TwoPDivisor
p318
(dp319
g170
I-1
sg171
I89
sbtp320
sg163
(g175
(idivisor
TwoPDivisor
p321
(dp322
g170
I-1
sg171
I88
sbtp323
sg147
(g175
(idivisor
TwoPDivisor
p324
(dp325
g170
I-1
sg171
I95
sbtp326
sg49
(g185
(idivisor
TwoPDivisor
p327
(dp328
g170
I-1
sg171
I97
sbtp329
sg66
(g222
(idivisor
TwoPDivisor
p330
(dp331
g170
I-1
sg171
I94
sbtp332
sg156
(g175
(idivisor
TwoPDivisor
p333
(dp334
g170
I-1
sg171
I92
sbtp335
sg58
(g185
(idivisor
TwoPDivisor
p336
(dp337
g170
I-1
sg171
I96
sbtp338
sg126
(g180
(idivisor
TwoPDivisor
p339
(dp340
g170
I-1
sg171
I95
sbtp341
sg148
(g180
(idivisor
TwoPDivisor
p342
(dp343
g170
I-1
sg171
I89
sbtp344
sg47
(g212
(idivisor
TwoPDivisor
p345
(dp346
g170
I-1
sg171
I92
sbtp347
sg135
(g167
(idivisor
TwoPDivisor
p348
(dp349
g170
I-1
sg171
I96
sbtp350
sg88
(g175
(idivisor
TwoPDivisor
p351
(dp352
g170
I-1
sg171
I108
sbtp353
sg51
(g180
(idivisor
TwoPDivisor
p354
(dp355
g170
I-1
sg171
I107
sbtp356
sg124
(g175
(idivisor
TwoPDivisor
p357
(dp358
g170
I-1
sg171
I101
sbtp359
sg42
(g167
(idivisor
TwoPDivisor
p360
(dp361
g170
I-1
sg171
I113
sbtp362
sg4
((idivisor
TwoPDivisor
p363
(dp364
g170
I0
sg171
I19
sb(idivisor
TwoPDivisor
p365
(dp366
g170
I-1
sg171
I87
sbtp367
sg103
(g185
(idivisor
TwoPDivisor
p368
(dp369
g170
I-1
sg171
I90
sbtp370
sg17
(g167
(idivisor
TwoPDivisor
p371
(dp372
g170
I-1
sg171
I115
sbtp373
sg40
(g207
(idivisor
TwoPDivisor
p374
(dp375
g170
I-1
sg171
I103
sbtp376
sg142
(g180
(idivisor
TwoPDivisor
p377
(dp378
g170
I-1
sg171
I91
sbtp379
sg110
(g207
(idivisor
TwoPDivisor
p380
(dp381
g170
I-1
sg171
I94
sbtp382
sg57
(g222
(idivisor
TwoPDivisor
p383
(dp384
g170
I-1
sg171
I95
sbtp385
sg80
(g175
(idivisor
TwoPDivisor
p386
(dp387
g170
I-1
sg171
I109
sbtp388
sg83
(g222
(idivisor
TwoPDivisor
p389
(dp390
g170
I-1
sg171
I92
sbtp391
sg25
(g222
(idivisor
TwoPDivisor
p392
(dp393
g170
I-1
sg171
I98
sbtp394
sg38
(g185
(idivisor
TwoPDivisor
p395
(dp396
g170
I-1
sg171
I98
sbtp397
sg139
(g167
(idivisor
TwoPDivisor
p398
(dp399
g170
I-1
sg171
I95
sbtp400
sg85
(g207
(idivisor
TwoPDivisor
p401
(dp402
g170
I-1
sg171
I98
sbtp403
sg50
(g207
(idivisor
TwoPDivisor
p404
(dp405
g170
I-1
sg171
I102
sbtp406
sg107
(g175
(idivisor
TwoPDivisor
p407
(dp408
g170
I-1
sg171
I104
sbtp409
sg134
(g180
(idivisor
TwoPDivisor
p410
(dp411
g170
I-1
sg171
I93
sbtp412
sg78
(g180
(idivisor
TwoPDivisor
p413
(dp414
g170
I-1
sg171
I103
sbtp415
sg146
(g167
(idivisor
TwoPDivisor
p416
(dp417
g170
I-1
sg171
I93
sbtp418
sg158
(g175
(idivisor
TwoPDivisor
p419
(dp420
g170
I-1
sg171
I91
sbtp421
sg102
(g222
(idivisor
TwoPDivisor
p422
(dp423
g170
I-1
sg171
I89
sbtp424
sg155
(g167
(idivisor
TwoPDivisor
p425
(dp426
g170
I-1
sg171
I90
sbtp427
sg79
(g167
(idivisor
TwoPDivisor
p428
(dp429
g170
I-1
sg171
I107
sbtp430
sg41
(g180
(idivisor
TwoPDivisor
p431
(dp432
g170
I-1
sg171
I108
sbtp433
sg72
(g302
(idivisor
TwoPDivisor
p434
(dp435
g170
I-1
sg171
I87
sbtp436
sg5
((idivisor
TwoPDivisor
p437
(dp438
g170
I0
sg171
I18
sb(idivisor
TwoPDivisor
p439
(dp440
g170
I-1
sg171
I88
sbtp441
sg23
(g212
(idivisor
TwoPDivisor
p442
(dp443
g170
I-1
sg171
I94
sbtp444
sg99
(g180
(idivisor
TwoPDivisor
p445
(dp446
g170
I-1
sg171
I100
sbtp447
sg164
(g175
(idivisor
TwoPDivisor
p448
(dp449
g170
I-1
sg171
I87
sbtp450
sg39
(g239
(idivisor
TwoPDivisor
p451
(dp452
g170
I-1
sg171
I102
sbtp453
sg24
(g307
(idivisor
TwoPDivisor
p454
(dp455
g170
I-1
sg171
I97
sbtp456
sg118
(g167
(idivisor
TwoPDivisor
p457
(dp458
g170
I-1
sg171
I100
sbtp459
sg16
((idivisor
TwoPDivisor
p460
(dp461
g170
I0
sg171
I-8
sb(idivisor
TwoPDivisor
p462
(dp463
g170
I-1
sg171
I114
sbtp464
sg129
(g207
(idivisor
TwoPDivisor
p465
(dp466
g170
I-1
sg171
I90
sbtp467
sg86
(g180
(idivisor
TwoPDivisor
p468
(dp469
g170
I-1
sg171
I102
sbtp470
sg87
(g167
(idivisor
TwoPDivisor
p471
(dp472
g170
I-1
sg171
I105
sbtp473
sg46
((idivisor
TwoPDivisor
p474
(dp475
g170
I0
sg171
I12
sb(idivisor
TwoPDivisor
p476
(dp477
g170
I-1
sg171
I91
sbtp478
sg28
((idivisor
TwoPDivisor
p479
(dp480
g170
I0
sg171
I-3
sb(idivisor
TwoPDivisor
p481
(dp482
g170
I-1
sg171
I108
sbtp483
sg132
(g175
(idivisor
TwoPDivisor
p484
(dp485
g170
I-1
sg171
I99
sbtp486
sg48
(g222
(idivisor
TwoPDivisor
p487
(dp488
g170
I-1
sg171
I96
sbtp489
sg106
(g167
(idivisor
TwoPDivisor
p490
(dp491
g170
I-1
sg171
I102
sbtp492
sg113
(g175
(idivisor
TwoPDivisor
p493
(dp494
g170
I-1
sg171
I103
sbtp495
sg64
(g474
(idivisor
TwoPDivisor
p496
(dp497
g170
I-1
sg171
I89
sbtp498
sg73
(g474
(idivisor
TwoPDivisor
p499
(dp500
g170
I-1
sg171
I88
sbtp501
sg9
(g212
(idivisor
TwoPDivisor
p502
(dp503
g170
I-1
sg171
I95
sbtp504
sg157
(g167
(idivisor
TwoPDivisor
p505
(dp506
g170
I-1
sg171
I89
sbtp507
sg54
(g302
(idivisor
TwoPDivisor
p508
(dp509
g170
I-1
sg171
I89
sbtp510
sg150
(g175
(idivisor
TwoPDivisor
p511
(dp512
g170
I-1
sg171
I94
sbtp513
sg138
(g180
(idivisor
TwoPDivisor
p514
(dp515
g170
I-1
sg171
I92
sbtp516
sg151
(g180
(idivisor
TwoPDivisor
p517
(dp518
g170
I-1
sg171
I88
sbtp519
sg104
(g207
(idivisor
TwoPDivisor
p520
(dp521
g170
I-1
sg171
I95
sbtp522
sg19
(g437
(idivisor
TwoPDivisor
p523
(dp524
g170
I-1
sg171
I87
sbtp525
sg75
(g222
(idivisor
TwoPDivisor
p526
(dp527
g170
I-1
sg171
I93
sbtp528
sg15
(g479
(idivisor
TwoPDivisor
p529
(dp530
g170
I-1
sg171
I109
sbtp531
sg128
(g175
(idivisor
TwoPDivisor
p532
(dp533
g170
I-1
sg171
I100
sbtp534
sg162
(g175
(idivisor
TwoPDivisor
p535
(dp536
g170
I-1
sg171
I89
sbtp537
sg125
(g207
(idivisor
TwoPDivisor
p538
(dp539
g170
I-1
sg171
I91
sbtp540
sg130
(g180
(idivisor
TwoPDivisor
p541
(dp542
g170
I-1
sg171
I94
sbtp543
sg145
(g180
(idivisor
TwoPDivisor
p544
(dp545
g170
I-1
sg171
I90
sbtp546
sg152
(g167
(idivisor
TwoPDivisor
p547
(dp548
g170
I-1
sg171
I91
sbtp549
sg81
(g474
(idivisor
TwoPDivisor
p550
(dp551
g170
I-1
sg171
I87
sbtp552
sg35
(g474
(idivisor
TwoPDivisor
p553
(dp554
g170
I-1
sg171
I92
sbtp555
sg8
(g302
(idivisor
TwoPDivisor
p556
(dp557
g170
I-1
sg171
I93
sbtp558
sg21
(g285
(idivisor
TwoPDivisor
p559
(dp560
g170
I-1
sg171
I89
sbtp561
sg131
(g167
(idivisor
TwoPDivisor
p562
(dp563
g170
I-1
sg171
I97
sbtp564
sg14
(g207
(idivisor
TwoPDivisor
p565
(dp566
g170
I-1
sg171
I105
sbtp567
sg60
(g180
(idivisor
TwoPDivisor
p568
(dp569
g170
I-1
sg171
I105
sbtp570
sg52
(g167
(idivisor
TwoPDivisor
p571
(dp572
g170
I-1
sg171
I110
sbtp573
sg112
(g167
(idivisor
TwoPDivisor
p574
(dp575
g170
I-1
sg171
I101
sbtp576
sg56
(g212
(idivisor
TwoPDivisor
p577
(dp578
g170
I-1
sg171
I91
sbtp579
sg27
(g207
(idivisor
TwoPDivisor
p580
(dp581
g170
I-1
sg171
I104
sbtp582
sg63
(g302
(idivisor
TwoPDivisor
p583
(dp584
g170
I-1
sg171
I88
sbtp585
sg43
(g175
(idivisor
TwoPDivisor
p586
(dp587
g170
I-1
sg171
I115
sbtp588
sg141
(g207
(idivisor
TwoPDivisor
p589
(dp590
g170
I-1
sg171
I87
sbtp591
sg30
(g167
(idivisor
TwoPDivisor
p592
(dp593
g170
I-1
sg171
I114
sbtp594
sg96
(g222
(idivisor
TwoPDivisor
p595
(dp596
g170
I-1
sg171
I90
sbtp597
sg121
(g207
(idivisor
TwoPDivisor
p598
(dp599
g170
I-1
sg171
I92
sbtp600
sg61
(g167
(idivisor
TwoPDivisor
p601
(dp602
g170
I-1
sg171
I109
sbtp603
sg159
(g167
(idivisor
TwoPDivisor
p604
(dp605
g170
I-1
sg171
I88
sbtp606
sg13
(g239
(idivisor
TwoPDivisor
p607
(dp608
g170
I-1
sg171
I104
sbtp609
sg140
(g175
(idivisor
TwoPDivisor
p610
(dp611
g170
I-1
sg171
I97
sbtp612
sg77
(g207
(idivisor
TwoPDivisor
p613
(dp614
g170
I-1
sg171
I99
sbtp615
sg11
(g222
(idivisor
TwoPDivisor
p616
(dp617
g170
I-1
sg171
I99
sbtp618
sg36
(g212
(idivisor
TwoPDivisor
p619
(dp620
g170
I-1
sg171
I93
sbtp621
sg7
((idivisor
TwoPDivisor
p622
(dp623
g170
I0
sg171
I14
sb(idivisor
TwoPDivisor
p624
(dp625
g170
I-1
sg171
I92
sbtp626
sg67
(g185
(idivisor
TwoPDivisor
p627
(dp628
g170
I-1
sg171
I95
sbtp629
sg45
(g302
(idivisor
TwoPDivisor
p630
(dp631
g170
I-1
sg171
I90
sbtp632
sg127
(g167
(idivisor
TwoPDivisor
p633
(dp634
g170
I-1
sg171
I98
sbtp635
sg115
(g185
(idivisor
TwoPDivisor
p636
(dp637
g170
I-1
sg171
I88
sbtp638
sg117
(g180
(idivisor
TwoPDivisor
p639
(dp640
g170
I-1
sg171
I97
sbtp641
sg116
(g207
(idivisor
TwoPDivisor
p642
(dp643
g170
I-1
sg171
I93
sbtp644
sg97
(g185
(idivisor
TwoPDivisor
p645
(dp646
g170
I-1
sg171
I91
sbtp647
sg71
(g175
(idivisor
TwoPDivisor
p648
(dp649
g170
I-1
sg171
I110
sbtp650
sg18
(g175
(idivisor
TwoPDivisor
p651
(dp652
g170
I-1
sg171
I120
sbtp653
sg154
(g180
(idivisor
TwoPDivisor
p654
(dp655
g170
I-1
sg171
I87
sbtp656
sg161
(g167
(idivisor
TwoPDivisor
p657
(dp658
g170
I-1
sg171
I87
sbtp659
sg22
(g302
(idivisor
TwoPDivisor
p660
(dp661
g170
I-1
sg171
I92
sbtp662
sg92
(g207
(idivisor
TwoPDivisor
p663
(dp664
g170
I-1
sg171
I97
sbtp665
sg59
(g207
(idivisor
TwoPDivisor
p666
(dp667
g170
I-1
sg171
I101
sbtp668
sg89
(g212
(idivisor
TwoPDivisor
p669
(dp670
g170
I-1
sg171
I87
sbtp671
sg84
(g185
(idivisor
TwoPDivisor
p672
(dp673
g170
I-1
sg171
I93
sbtp674
sg160
(g175
(idivisor
TwoPDivisor
p675
(dp676
g170
I-1
sg171
I90
sbtp677
sg55
(g474
(idivisor
TwoPDivisor
p678
(dp679
g170
I-1
sg171
I90
sbtp680
sg68
(g207
(idivisor
TwoPDivisor
p681
(dp682
g170
I-1
sg171
I100
sbtp683
sg114
(g222
(idivisor
TwoPDivisor
p684
(dp685
g170
I-1
sg171
I87
sbtp686
sg33
(g285
(idivisor
TwoPDivisor
p687
(dp688
g170
I-1
sg171
I88
sbtp689
sg105
(g180
(idivisor
TwoPDivisor
p690
(dp691
g170
I-1
sg171
I99
sbtp692
sg101
(g175
(idivisor
TwoPDivisor
p693
(dp694
g170
I-1
sg171
I105
sbtp695
ss.