(dp0
S'ind'
p1
(lp2
(I19
I6
tp3
a(I20
I4
tp4
a(I23
I3
tp5
a(I25
I2
tp6
a(I26
I1
tp7
asS'witness'
p8
(dp9
g3
((idivisor
TwoPDivisor
p10
(dp12
S'Q'
p13
I0
sS'P'
p14
I5
sbtp15
sg7
((idivisor
TwoPDivisor
p16
(dp17
g13
I0
sg14
I-5
sbtp18
sg5
((idivisor
TwoPDivisor
p19
(dp20
g13
I0
sg14
I1
sbtp21
sg6
((idivisor
TwoPDivisor
p22
(dp23
g13
I0
sg14
I-2
sbtp24
sg4
((idivisor
TwoPDivisor
p25
(dp26
g13
I0
sg14
I4
sbtp27
ss.