(dp0
S'ind'
p1
(lp2
(I0
I510
I0
tp3
a(I1
I401
I56
tp4
a(I1
I402
I54
tp5
a(I1
I403
I53
tp6
a(I1
I404
I52
tp7
a(I1
I405
I51
tp8
a(I1
I406
I50
tp9
a(I1
I409
I49
tp10
a(I1
I410
I48
tp11
a(I1
I411
I45
tp12
a(I1
I412
I44
tp13
a(I1
I413
I43
tp14
a(I1
I415
I41
tp15
a(I1
I418
I42
tp16
a(I1
I419
I40
tp17
a(I1
I422
I34
tp18
a(I1
I423
I33
tp19
a(I1
I426
I36
tp20
a(I1
I427
I35
tp21
a(I1
I428
I32
tp22
a(I1
I429
I27
tp23
a(I1
I430
I26
tp24
a(I1
I435
I30
tp25
a(I1
I436
I28
tp26
a(I1
I439
I17
tp27
a(I1
I443
I25
tp28
a(I1
I444
I24
tp29
a(I1
I445
I21
tp30
a(I1
I452
I20
tp31
a(I1
I453
I18
tp32
a(I1
I454
I14
tp33
a(I1
I460
I16
tp34
a(I1
I461
I15
tp35
a(I1
I463
I7
tp36
a(I1
I469
I12
tp37
a(I1
I470
I10
tp38
a(I1
I477
I9
tp39
a(I1
I478
I8
tp40
a(I1
I479
I5
tp41
a(I1
I486
I6
tp42
a(I1
I494
I4
tp43
a(I1
I495
I3
tp44
a(I1
I503
I2
tp45
a(I2
I401
I54
tp46
a(I2
I402
I53
tp47
a(I2
I403
I52
tp48
a(I2
I404
I51
tp49
a(I2
I405
I50
tp50
a(I2
I406
I49
tp51
a(I2
I409
I48
tp52
a(I2
I410
I45
tp53
a(I2
I411
I44
tp54
a(I2
I412
I43
tp55
a(I2
I414
I41
tp56
a(I2
I417
I42
tp57
a(I2
I418
I40
tp58
a(I2
I419
I36
tp59
a(I2
I421
I34
tp60
a(I2
I422
I33
tp61
a(I2
I426
I35
tp62
a(I2
I427
I32
tp63
a(I2
I428
I27
tp64
a(I2
I429
I26
tp65
a(I2
I430
I25
tp66
a(I2
I434
I30
tp67
a(I2
I435
I28
tp68
a(I2
I438
I17
tp69
a(I2
I443
I24
tp70
a(I2
I444
I21
tp71
a(I2
I445
I16
tp72
a(I2
I446
I9
tp73
a(I2
I451
I20
tp74
a(I2
I452
I18
tp75
a(I2
I453
I14
tp76
a(I2
I460
I15
tp77
a(I2
I462
I7
tp78
a(I2
I468
I12
tp79
a(I2
I469
I10
tp80
a(I2
I477
I8
tp81
a(I2
I478
I5
tp82
a(I2
I485
I6
tp83
a(I2
I486
I4
tp84
a(I2
I494
I3
tp85
a(I2
I502
I2
tp86
a(I3
I401
I53
tp87
a(I3
I402
I52
tp88
a(I3
I403
I51
tp89
a(I3
I404
I50
tp90
a(I3
I405
I49
tp91
a(I3
I408
I48
tp92
a(I3
I409
I45
tp93
a(I3
I410
I44
tp94
a(I3
I411
I43
tp95
a(I3
I412
I42
tp96
a(I3
I413
I41
tp97
a(I3
I417
I40
tp98
a(I3
I418
I36
tp99
a(I3
I420
I34
tp100
a(I3
I421
I33
tp101
a(I3
I425
I35
tp102
a(I3
I426
I32
tp103
a(I3
I427
I27
tp104
a(I3
I428
I26
tp105
a(I3
I429
I25
tp106
a(I3
I434
I28
tp107
a(I3
I437
I17
tp108
a(I3
I442
I24
tp109
a(I3
I443
I21
tp110
a(I3
I444
I16
tp111
a(I3
I445
I9
tp112
a(I3
I451
I18
tp113
a(I3
I452
I14
tp114
a(I3
I459
I15
tp115
a(I3
I460
I12
tp116
a(I3
I461
I7
tp117
a(I3
I468
I10
tp118
a(I3
I469
I6
tp119
a(I3
I476
I8
tp120
a(I3
I477
I5
tp121
a(I3
I485
I4
tp122
a(I3
I493
I3
tp123
a(I3
I495
I2
tp124
a(I4
I401
I52
tp125
a(I4
I402
I51
tp126
a(I4
I403
I50
tp127
a(I4
I404
I49
tp128
a(I4
I407
I48
tp129
a(I4
I408
I45
tp130
a(I4
I409
I44
tp131
a(I4
I410
I43
tp132
a(I4
I411
I42
tp133
a(I4
I412
I41
tp134
a(I4
I416
I40
tp135
a(I4
I417
I36
tp136
a(I4
I418
I35
tp137
a(I4
I419
I34
tp138
a(I4
I420
I33
tp139
a(I4
I425
I32
tp140
a(I4
I426
I27
tp141
a(I4
I427
I26
tp142
a(I4
I428
I25
tp143
a(I4
I433
I28
tp144
a(I4
I434
I24
tp145
a(I4
I436
I17
tp146
a(I4
I442
I21
tp147
a(I4
I443
I16
tp148
a(I4
I444
I9
tp149
a(I4
I450
I18
tp150
a(I4
I451
I14
tp151
a(I4
I452
I8
tp152
a(I4
I459
I12
tp153
a(I4
I460
I7
tp154
a(I4
I467
I10
tp155
a(I4
I468
I6
tp156
a(I4
I476
I5
tp157
a(I4
I484
I4
tp158
a(I4
I487
I3
tp159
a(I4
I494
I2
tp160
a(I5
I401
I51
tp161
a(I5
I402
I50
tp162
a(I5
I403
I49
tp163
a(I5
I406
I48
tp164
a(I5
I407
I45
tp165
a(I5
I408
I44
tp166
a(I5
I409
I43
tp167
a(I5
I410
I42
tp168
a(I5
I411
I41
tp169
a(I5
I415
I40
tp170
a(I5
I416
I36
tp171
a(I5
I417
I35
tp172
a(I5
I418
I34
tp173
a(I5
I419
I33
tp174
a(I5
I424
I32
tp175
a(I5
I425
I27
tp176
a(I5
I426
I26
tp177
a(I5
I427
I25
tp178
a(I5
I433
I24
tp179
a(I5
I434
I18
tp180
a(I5
I435
I17
tp181
a(I5
I441
I21
tp182
a(I5
I442
I16
tp183
a(I5
I443
I9
tp184
a(I5
I450
I14
tp185
a(I5
I451
I8
tp186
a(I5
I458
I12
tp187
a(I5
I459
I7
tp188
a(I5
I467
I6
tp189
a(I5
I475
I5
tp190
a(I5
I479
I4
tp191
a(I5
I486
I3
tp192
a(I5
I493
I2
tp193
a(I6
I401
I50
tp194
a(I6
I402
I49
tp195
a(I6
I405
I48
tp196
a(I6
I406
I45
tp197
a(I6
I407
I44
tp198
a(I6
I408
I43
tp199
a(I6
I409
I42
tp200
a(I6
I410
I41
tp201
a(I6
I414
I40
tp202
a(I6
I415
I36
tp203
a(I6
I416
I35
tp204
a(I6
I417
I34
tp205
a(I6
I418
I33
tp206
a(I6
I423
I32
tp207
a(I6
I424
I27
tp208
a(I6
I425
I26
tp209
a(I6
I426
I25
tp210
a(I6
I432
I24
tp211
a(I6
I433
I18
tp212
a(I6
I434
I17
tp213
a(I6
I441
I16
tp214
a(I6
I442
I9
tp215
a(I6
I449
I14
tp216
a(I6
I450
I8
tp217
a(I6
I458
I7
tp218
a(I6
I466
I6
tp219
a(I6
I471
I5
tp220
a(I6
I478
I4
tp221
a(I6
I485
I3
tp222
a(I6
I487
I2
tp223
a(I7
I401
I49
tp224
a(I7
I404
I48
tp225
a(I7
I405
I45
tp226
a(I7
I406
I44
tp227
a(I7
I407
I43
tp228
a(I7
I408
I42
tp229
a(I7
I409
I41
tp230
a(I7
I413
I40
tp231
a(I7
I414
I36
tp232
a(I7
I415
I35
tp233
a(I7
I416
I34
tp234
a(I7
I417
I33
tp235
a(I7
I422
I32
tp236
a(I7
I423
I27
tp237
a(I7
I424
I26
tp238
a(I7
I425
I25
tp239
a(I7
I431
I24
tp240
a(I7
I432
I18
tp241
a(I7
I433
I17
tp242
a(I7
I440
I16
tp243
a(I7
I441
I9
tp244
a(I7
I449
I8
tp245
a(I7
I457
I7
tp246
a(I7
I463
I6
tp247
a(I7
I470
I5
tp248
a(I7
I477
I4
tp249
a(I7
I484
I3
tp250
a(I7
I486
I2
tp251
a(I8
I403
I48
tp252
a(I8
I404
I45
tp253
a(I8
I405
I44
tp254
a(I8
I406
I43
tp255
a(I8
I407
I42
tp256
a(I8
I408
I41
tp257
a(I8
I412
I40
tp258
a(I8
I413
I36
tp259
a(I8
I414
I35
tp260
a(I8
I415
I34
tp261
a(I8
I416
I33
tp262
a(I8
I421
I32
tp263
a(I8
I422
I27
tp264
a(I8
I423
I26
tp265
a(I8
I424
I25
tp266
a(I8
I430
I24
tp267
a(I8
I431
I18
tp268
a(I8
I432
I17
tp269
a(I8
I439
I16
tp270
a(I8
I440
I9
tp271
a(I8
I448
I8
tp272
a(I8
I455
I7
tp273
a(I8
I462
I6
tp274
a(I8
I469
I5
tp275
a(I8
I476
I4
tp276
a(I8
I479
I3
tp277
a(I8
I485
I2
tp278
a(I9
I402
I48
tp279
a(I9
I403
I45
tp280
a(I9
I404
I44
tp281
a(I9
I405
I43
tp282
a(I9
I406
I42
tp283
a(I9
I407
I41
tp284
a(I9
I411
I40
tp285
a(I9
I412
I36
tp286
a(I9
I413
I35
tp287
a(I9
I414
I34
tp288
a(I9
I415
I33
tp289
a(I9
I420
I32
tp290
a(I9
I421
I27
tp291
a(I9
I422
I26
tp292
a(I9
I423
I25
tp293
a(I9
I429
I24
tp294
a(I9
I430
I18
tp295
a(I9
I431
I17
tp296
a(I9
I438
I16
tp297
a(I9
I439
I9
tp298
a(I9
I447
I8
tp299
a(I9
I454
I7
tp300
a(I9
I461
I6
tp301
a(I9
I468
I5
tp302
a(I9
I475
I4
tp303
a(I9
I478
I3
tp304
a(I9
I484
I2
tp305
a(I10
I401
I48
tp306
a(I10
I402
I45
tp307
a(I10
I403
I44
tp308
a(I10
I404
I43
tp309
a(I10
I405
I42
tp310
a(I10
I406
I41
tp311
a(I10
I410
I40
tp312
a(I10
I411
I36
tp313
a(I10
I412
I35
tp314
a(I10
I413
I34
tp315
a(I10
I414
I33
tp316
a(I10
I419
I32
tp317
a(I10
I420
I27
tp318
a(I10
I421
I26
tp319
a(I10
I422
I25
tp320
a(I10
I428
I24
tp321
a(I10
I429
I18
tp322
a(I10
I430
I17
tp323
a(I10
I437
I16
tp324
a(I10
I438
I9
tp325
a(I10
I446
I8
tp326
a(I10
I453
I7
tp327
a(I10
I460
I6
tp328
a(I10
I467
I5
tp329
a(I10
I471
I4
tp330
a(I10
I477
I3
tp331
a(I10
I479
I2
tp332
a(I11
I401
I45
tp333
a(I11
I402
I44
tp334
a(I11
I403
I43
tp335
a(I11
I404
I42
tp336
a(I11
I405
I41
tp337
a(I11
I409
I40
tp338
a(I11
I410
I36
tp339
a(I11
I411
I35
tp340
a(I11
I412
I34
tp341
a(I11
I413
I33
tp342
a(I11
I418
I32
tp343
a(I11
I419
I27
tp344
a(I11
I420
I26
tp345
a(I11
I421
I25
tp346
a(I11
I427
I24
tp347
a(I11
I428
I18
tp348
a(I11
I429
I17
tp349
a(I11
I436
I16
tp350
a(I11
I437
I9
tp351
a(I11
I445
I8
tp352
a(I11
I452
I7
tp353
a(I11
I459
I6
tp354
a(I11
I466
I5
tp355
a(I11
I470
I4
tp356
a(I11
I476
I3
tp357
a(I11
I478
I2
tp358
a(I12
I401
I44
tp359
a(I12
I402
I43
tp360
a(I12
I403
I42
tp361
a(I12
I404
I41
tp362
a(I12
I408
I40
tp363
a(I12
I409
I36
tp364
a(I12
I410
I35
tp365
a(I12
I411
I34
tp366
a(I12
I412
I33
tp367
a(I12
I417
I32
tp368
a(I12
I418
I27
tp369
a(I12
I419
I26
tp370
a(I12
I420
I25
tp371
a(I12
I426
I24
tp372
a(I12
I427
I18
tp373
a(I12
I428
I17
tp374
a(I12
I435
I16
tp375
a(I12
I436
I9
tp376
a(I12
I444
I8
tp377
a(I12
I451
I7
tp378
a(I12
I458
I6
tp379
a(I12
I463
I5
tp380
a(I12
I469
I4
tp381
a(I12
I475
I3
tp382
a(I12
I477
I2
tp383
a(I13
I401
I43
tp384
a(I13
I402
I42
tp385
a(I13
I403
I41
tp386
a(I13
I407
I40
tp387
a(I13
I408
I36
tp388
a(I13
I409
I35
tp389
a(I13
I410
I34
tp390
a(I13
I411
I33
tp391
a(I13
I416
I32
tp392
a(I13
I417
I27
tp393
a(I13
I418
I26
tp394
a(I13
I419
I25
tp395
a(I13
I425
I24
tp396
a(I13
I426
I18
tp397
a(I13
I427
I17
tp398
a(I13
I434
I16
tp399
a(I13
I435
I9
tp400
a(I13
I443
I8
tp401
a(I13
I450
I7
tp402
a(I13
I457
I6
tp403
a(I13
I462
I5
tp404
a(I13
I468
I4
tp405
a(I13
I471
I3
tp406
a(I13
I476
I2
tp407
a(I14
I401
I42
tp408
a(I14
I402
I41
tp409
a(I14
I406
I40
tp410
a(I14
I407
I36
tp411
a(I14
I408
I35
tp412
a(I14
I409
I34
tp413
a(I14
I410
I33
tp414
a(I14
I415
I32
tp415
a(I14
I416
I27
tp416
a(I14
I417
I26
tp417
a(I14
I418
I25
tp418
a(I14
I424
I24
tp419
a(I14
I425
I18
tp420
a(I14
I426
I17
tp421
a(I14
I433
I16
tp422
a(I14
I434
I9
tp423
a(I14
I442
I8
tp424
a(I14
I449
I7
tp425
a(I14
I455
I6
tp426
a(I14
I461
I5
tp427
a(I14
I467
I4
tp428
a(I14
I470
I3
tp429
a(I14
I475
I2
tp430
a(I15
I401
I41
tp431
a(I15
I405
I40
tp432
a(I15
I406
I36
tp433
a(I15
I407
I35
tp434
a(I15
I408
I34
tp435
a(I15
I409
I33
tp436
a(I15
I414
I32
tp437
a(I15
I415
I27
tp438
a(I15
I416
I26
tp439
a(I15
I417
I25
tp440
a(I15
I423
I24
tp441
a(I15
I424
I18
tp442
a(I15
I425
I17
tp443
a(I15
I432
I16
tp444
a(I15
I433
I9
tp445
a(I15
I441
I8
tp446
a(I15
I448
I7
tp447
a(I15
I454
I6
tp448
a(I15
I460
I5
tp449
a(I15
I466
I4
tp450
a(I15
I469
I3
tp451
a(I15
I471
I2
tp452
a(I16
I404
I40
tp453
a(I16
I405
I36
tp454
a(I16
I406
I35
tp455
a(I16
I407
I34
tp456
a(I16
I408
I33
tp457
a(I16
I413
I32
tp458
a(I16
I414
I27
tp459
a(I16
I415
I26
tp460
a(I16
I416
I25
tp461
a(I16
I422
I24
tp462
a(I16
I423
I18
tp463
a(I16
I424
I17
tp464
a(I16
I431
I16
tp465
a(I16
I432
I9
tp466
a(I16
I440
I8
tp467
a(I16
I447
I7
tp468
a(I16
I453
I6
tp469
a(I16
I459
I5
tp470
a(I16
I463
I4
tp471
a(I16
I468
I3
tp472
a(I16
I470
I2
tp473
a(I17
I403
I40
tp474
a(I17
I404
I36
tp475
a(I17
I405
I35
tp476
a(I17
I406
I34
tp477
a(I17
I407
I33
tp478
a(I17
I412
I32
tp479
a(I17
I413
I27
tp480
a(I17
I414
I26
tp481
a(I17
I415
I25
tp482
a(I17
I421
I24
tp483
a(I17
I422
I18
tp484
a(I17
I423
I17
tp485
a(I17
I430
I16
tp486
a(I17
I431
I9
tp487
a(I17
I439
I8
tp488
a(I17
I446
I7
tp489
a(I17
I452
I6
tp490
a(I17
I458
I5
tp491
a(I17
I462
I4
tp492
a(I17
I467
I3
tp493
a(I17
I469
I2
tp494
a(I18
I402
I40
tp495
a(I18
I403
I36
tp496
a(I18
I404
I35
tp497
a(I18
I405
I34
tp498
a(I18
I406
I33
tp499
a(I18
I411
I32
tp500
a(I18
I412
I27
tp501
a(I18
I413
I26
tp502
a(I18
I414
I25
tp503
a(I18
I420
I24
tp504
a(I18
I421
I18
tp505
a(I18
I422
I17
tp506
a(I18
I429
I16
tp507
a(I18
I430
I9
tp508
a(I18
I438
I8
tp509
a(I18
I445
I7
tp510
a(I18
I451
I6
tp511
a(I18
I457
I5
tp512
a(I18
I461
I4
tp513
a(I18
I466
I3
tp514
a(I18
I468
I2
tp515
a(I19
I401
I40
tp516
a(I19
I402
I36
tp517
a(I19
I403
I35
tp518
a(I19
I404
I34
tp519
a(I19
I405
I33
tp520
a(I19
I410
I32
tp521
a(I19
I411
I27
tp522
a(I19
I412
I26
tp523
a(I19
I413
I25
tp524
a(I19
I419
I24
tp525
a(I19
I420
I18
tp526
a(I19
I421
I17
tp527
a(I19
I428
I16
tp528
a(I19
I429
I9
tp529
a(I19
I437
I8
tp530
a(I19
I444
I7
tp531
a(I19
I450
I6
tp532
a(I19
I455
I5
tp533
a(I19
I460
I4
tp534
a(I19
I463
I3
tp535
a(I19
I467
I2
tp536
a(I20
I401
I36
tp537
a(I20
I402
I35
tp538
a(I20
I403
I34
tp539
a(I20
I404
I33
tp540
a(I20
I409
I32
tp541
a(I20
I410
I27
tp542
a(I20
I411
I26
tp543
a(I20
I412
I25
tp544
a(I20
I418
I24
tp545
a(I20
I419
I18
tp546
a(I20
I420
I17
tp547
a(I20
I427
I16
tp548
a(I20
I428
I9
tp549
a(I20
I436
I8
tp550
a(I20
I443
I7
tp551
a(I20
I449
I6
tp552
a(I20
I454
I5
tp553
a(I20
I459
I4
tp554
a(I20
I462
I3
tp555
a(I20
I466
I2
tp556
a(I21
I401
I35
tp557
a(I21
I402
I34
tp558
a(I21
I403
I33
tp559
a(I21
I408
I32
tp560
a(I21
I409
I27
tp561
a(I21
I410
I26
tp562
a(I21
I411
I25
tp563
a(I21
I417
I24
tp564
a(I21
I418
I18
tp565
a(I21
I419
I17
tp566
a(I21
I426
I16
tp567
a(I21
I427
I9
tp568
a(I21
I435
I8
tp569
a(I21
I442
I7
tp570
a(I21
I448
I6
tp571
a(I21
I453
I5
tp572
a(I21
I458
I4
tp573
a(I21
I461
I3
tp574
a(I21
I463
I2
tp575
a(I22
I401
I34
tp576
a(I22
I402
I33
tp577
a(I22
I407
I32
tp578
a(I22
I408
I27
tp579
a(I22
I409
I26
tp580
a(I22
I410
I25
tp581
a(I22
I416
I24
tp582
a(I22
I417
I18
tp583
a(I22
I418
I17
tp584
a(I22
I425
I16
tp585
a(I22
I426
I9
tp586
a(I22
I434
I8
tp587
a(I22
I441
I7
tp588
a(I22
I447
I6
tp589
a(I22
I452
I5
tp590
a(I22
I457
I4
tp591
a(I22
I460
I3
tp592
a(I22
I462
I2
tp593
a(I23
I401
I33
tp594
a(I23
I406
I32
tp595
a(I23
I407
I27
tp596
a(I23
I408
I26
tp597
a(I23
I409
I25
tp598
a(I23
I415
I24
tp599
a(I23
I416
I18
tp600
a(I23
I417
I17
tp601
a(I23
I424
I16
tp602
a(I23
I425
I9
tp603
a(I23
I433
I8
tp604
a(I23
I440
I7
tp605
a(I23
I446
I6
tp606
a(I23
I451
I5
tp607
a(I23
I455
I4
tp608
a(I23
I459
I3
tp609
a(I23
I461
I2
tp610
a(I24
I405
I32
tp611
a(I24
I406
I27
tp612
a(I24
I407
I26
tp613
a(I24
I408
I25
tp614
a(I24
I414
I24
tp615
a(I24
I415
I18
tp616
a(I24
I416
I17
tp617
a(I24
I423
I16
tp618
a(I24
I424
I9
tp619
a(I24
I432
I8
tp620
a(I24
I439
I7
tp621
a(I24
I445
I6
tp622
a(I24
I450
I5
tp623
a(I24
I454
I4
tp624
a(I24
I458
I3
tp625
a(I24
I460
I2
tp626
a(I25
I404
I32
tp627
a(I25
I405
I27
tp628
a(I25
I406
I26
tp629
a(I25
I407
I25
tp630
a(I25
I413
I24
tp631
a(I25
I414
I18
tp632
a(I25
I415
I17
tp633
a(I25
I422
I16
tp634
a(I25
I423
I9
tp635
a(I25
I431
I8
tp636
a(I25
I438
I7
tp637
a(I25
I444
I6
tp638
a(I25
I449
I5
tp639
a(I25
I453
I4
tp640
a(I25
I457
I3
tp641
a(I25
I459
I2
tp642
a(I26
I403
I32
tp643
a(I26
I404
I27
tp644
a(I26
I405
I26
tp645
a(I26
I406
I25
tp646
a(I26
I412
I24
tp647
a(I26
I413
I18
tp648
a(I26
I414
I17
tp649
a(I26
I421
I16
tp650
a(I26
I422
I9
tp651
a(I26
I430
I8
tp652
a(I26
I437
I7
tp653
a(I26
I443
I6
tp654
a(I26
I448
I5
tp655
a(I26
I452
I4
tp656
a(I26
I455
I3
tp657
a(I26
I458
I2
tp658
a(I27
I402
I32
tp659
a(I27
I403
I27
tp660
a(I27
I404
I26
tp661
a(I27
I405
I25
tp662
a(I27
I411
I24
tp663
a(I27
I412
I18
tp664
a(I27
I413
I17
tp665
a(I27
I420
I16
tp666
a(I27
I421
I9
tp667
a(I27
I429
I8
tp668
a(I27
I436
I7
tp669
a(I27
I442
I6
tp670
a(I27
I447
I5
tp671
a(I27
I451
I4
tp672
a(I27
I454
I3
tp673
a(I27
I457
I2
tp674
a(I28
I401
I32
tp675
a(I28
I402
I27
tp676
a(I28
I403
I26
tp677
a(I28
I404
I25
tp678
a(I28
I410
I24
tp679
a(I28
I411
I18
tp680
a(I28
I412
I17
tp681
a(I28
I419
I16
tp682
a(I28
I420
I9
tp683
a(I28
I428
I8
tp684
a(I28
I435
I7
tp685
a(I28
I441
I6
tp686
a(I28
I446
I5
tp687
a(I28
I450
I4
tp688
a(I28
I453
I3
tp689
a(I28
I455
I2
tp690
a(I29
I401
I27
tp691
a(I29
I402
I26
tp692
a(I29
I403
I25
tp693
a(I29
I409
I24
tp694
a(I29
I410
I18
tp695
a(I29
I411
I17
tp696
a(I29
I418
I16
tp697
a(I29
I419
I9
tp698
a(I29
I427
I8
tp699
a(I29
I434
I7
tp700
a(I29
I440
I6
tp701
a(I29
I445
I5
tp702
a(I29
I449
I4
tp703
a(I29
I452
I3
tp704
a(I29
I454
I2
tp705
a(I30
I401
I26
tp706
a(I30
I402
I25
tp707
a(I30
I408
I24
tp708
a(I30
I409
I18
tp709
a(I30
I410
I17
tp710
a(I30
I417
I16
tp711
a(I30
I418
I9
tp712
a(I30
I426
I8
tp713
a(I30
I433
I7
tp714
a(I30
I439
I6
tp715
a(I30
I444
I5
tp716
a(I30
I448
I4
tp717
a(I30
I451
I3
tp718
a(I30
I453
I2
tp719
a(I31
I401
I25
tp720
a(I31
I407
I24
tp721
a(I31
I408
I18
tp722
a(I31
I409
I17
tp723
a(I31
I416
I16
tp724
a(I31
I417
I9
tp725
a(I31
I425
I8
tp726
a(I31
I432
I7
tp727
a(I31
I438
I6
tp728
a(I31
I443
I5
tp729
a(I31
I447
I4
tp730
a(I31
I450
I3
tp731
a(I31
I452
I2
tp732
a(I32
I406
I24
tp733
a(I32
I407
I18
tp734
a(I32
I408
I17
tp735
a(I32
I415
I16
tp736
a(I32
I416
I9
tp737
a(I32
I424
I8
tp738
a(I32
I431
I7
tp739
a(I32
I437
I6
tp740
a(I32
I442
I5
tp741
a(I32
I446
I4
tp742
a(I32
I449
I3
tp743
a(I32
I451
I2
tp744
a(I33
I405
I24
tp745
a(I33
I406
I18
tp746
a(I33
I407
I17
tp747
a(I33
I414
I16
tp748
a(I33
I415
I9
tp749
a(I33
I423
I8
tp750
a(I33
I430
I7
tp751
a(I33
I436
I6
tp752
a(I33
I441
I5
tp753
a(I33
I445
I4
tp754
a(I33
I448
I3
tp755
a(I33
I450
I2
tp756
a(I34
I404
I24
tp757
a(I34
I405
I18
tp758
a(I34
I406
I17
tp759
a(I34
I413
I16
tp760
a(I34
I414
I9
tp761
a(I34
I422
I8
tp762
a(I34
I429
I7
tp763
a(I34
I435
I6
tp764
a(I34
I440
I5
tp765
a(I34
I444
I4
tp766
a(I34
I447
I3
tp767
a(I34
I449
I2
tp768
a(I35
I403
I24
tp769
a(I35
I404
I18
tp770
a(I35
I405
I17
tp771
a(I35
I412
I16
tp772
a(I35
I413
I9
tp773
a(I35
I421
I8
tp774
a(I35
I428
I7
tp775
a(I35
I434
I6
tp776
a(I35
I439
I5
tp777
a(I35
I443
I4
tp778
a(I35
I446
I3
tp779
a(I35
I448
I2
tp780
a(I36
I402
I24
tp781
a(I36
I403
I18
tp782
a(I36
I404
I17
tp783
a(I36
I411
I16
tp784
a(I36
I412
I9
tp785
a(I36
I420
I8
tp786
a(I36
I427
I7
tp787
a(I36
I433
I6
tp788
a(I36
I438
I5
tp789
a(I36
I442
I4
tp790
a(I36
I445
I3
tp791
a(I36
I447
I2
tp792
a(I37
I401
I24
tp793
a(I37
I402
I18
tp794
a(I37
I403
I17
tp795
a(I37
I410
I16
tp796
a(I37
I411
I9
tp797
a(I37
I419
I8
tp798
a(I37
I426
I7
tp799
a(I37
I432
I6
tp800
a(I37
I437
I5
tp801
a(I37
I441
I4
tp802
a(I37
I444
I3
tp803
a(I37
I446
I2
tp804
a(I38
I401
I18
tp805
a(I38
I402
I17
tp806
a(I38
I409
I16
tp807
a(I38
I410
I9
tp808
a(I38
I418
I8
tp809
a(I38
I425
I7
tp810
a(I38
I431
I6
tp811
a(I38
I436
I5
tp812
a(I38
I440
I4
tp813
a(I38
I443
I3
tp814
a(I38
I445
I2
tp815
a(I39
I401
I17
tp816
a(I39
I408
I16
tp817
a(I39
I409
I9
tp818
a(I39
I417
I8
tp819
a(I39
I424
I7
tp820
a(I39
I430
I6
tp821
a(I39
I435
I5
tp822
a(I39
I439
I4
tp823
a(I39
I442
I3
tp824
a(I39
I444
I2
tp825
a(I40
I407
I16
tp826
a(I40
I408
I9
tp827
a(I40
I416
I8
tp828
a(I40
I423
I7
tp829
a(I40
I429
I6
tp830
a(I40
I434
I5
tp831
a(I40
I438
I4
tp832
a(I40
I441
I3
tp833
a(I40
I443
I2
tp834
a(I41
I406
I16
tp835
a(I41
I407
I9
tp836
a(I41
I415
I8
tp837
a(I41
I422
I7
tp838
a(I41
I428
I6
tp839
a(I41
I433
I5
tp840
a(I41
I437
I4
tp841
a(I41
I440
I3
tp842
a(I41
I442
I2
tp843
a(I42
I405
I16
tp844
a(I42
I406
I9
tp845
a(I42
I414
I8
tp846
a(I42
I421
I7
tp847
a(I42
I427
I6
tp848
a(I42
I432
I5
tp849
a(I42
I436
I4
tp850
a(I42
I439
I3
tp851
a(I42
I441
I2
tp852
a(I43
I404
I16
tp853
a(I43
I405
I9
tp854
a(I43
I413
I8
tp855
a(I43
I420
I7
tp856
a(I43
I426
I6
tp857
a(I43
I431
I5
tp858
a(I43
I435
I4
tp859
a(I43
I438
I3
tp860
a(I43
I440
I2
tp861
a(I44
I403
I16
tp862
a(I44
I404
I9
tp863
a(I44
I412
I8
tp864
a(I44
I419
I7
tp865
a(I44
I425
I6
tp866
a(I44
I430
I5
tp867
a(I44
I434
I4
tp868
a(I44
I437
I3
tp869
a(I44
I439
I2
tp870
a(I45
I402
I16
tp871
a(I45
I403
I9
tp872
a(I45
I411
I8
tp873
a(I45
I418
I7
tp874
a(I45
I424
I6
tp875
a(I45
I429
I5
tp876
a(I45
I433
I4
tp877
a(I45
I436
I3
tp878
a(I45
I438
I2
tp879
a(I46
I401
I16
tp880
a(I46
I402
I9
tp881
a(I46
I410
I8
tp882
a(I46
I417
I7
tp883
a(I46
I423
I6
tp884
a(I46
I428
I5
tp885
a(I46
I432
I4
tp886
a(I46
I435
I3
tp887
a(I46
I437
I2
tp888
a(I47
I401
I9
tp889
a(I47
I409
I8
tp890
a(I47
I416
I7
tp891
a(I47
I422
I6
tp892
a(I47
I427
I5
tp893
a(I47
I431
I4
tp894
a(I47
I434
I3
tp895
a(I47
I436
I2
tp896
a(I48
I408
I8
tp897
a(I48
I415
I7
tp898
a(I48
I421
I6
tp899
a(I48
I426
I5
tp900
a(I48
I430
I4
tp901
a(I48
I433
I3
tp902
a(I48
I435
I2
tp903
a(I49
I407
I8
tp904
a(I49
I414
I7
tp905
a(I49
I420
I6
tp906
a(I49
I425
I5
tp907
a(I49
I429
I4
tp908
a(I49
I432
I3
tp909
a(I49
I434
I2
tp910
a(I50
I406
I8
tp911
a(I50
I413
I7
tp912
a(I50
I419
I6
tp913
a(I50
I424
I5
tp914
a(I50
I428
I4
tp915
a(I50
I431
I3
tp916
a(I50
I433
I2
tp917
a(I51
I405
I8
tp918
a(I51
I412
I7
tp919
a(I51
I418
I6
tp920
a(I51
I423
I5
tp921
a(I51
I427
I4
tp922
a(I51
I430
I3
tp923
a(I51
I432
I2
tp924
a(I52
I404
I8
tp925
a(I52
I411
I7
tp926
a(I52
I417
I6
tp927
a(I52
I422
I5
tp928
a(I52
I426
I4
tp929
a(I52
I429
I3
tp930
a(I52
I431
I2
tp931
a(I53
I403
I8
tp932
a(I53
I410
I7
tp933
a(I53
I416
I6
tp934
a(I53
I421
I5
tp935
a(I53
I425
I4
tp936
a(I53
I428
I3
tp937
a(I53
I430
I2
tp938
a(I54
I402
I8
tp939
a(I54
I409
I7
tp940
a(I54
I415
I6
tp941
a(I54
I420
I5
tp942
a(I54
I424
I4
tp943
a(I54
I427
I3
tp944
a(I54
I429
I2
tp945
a(I55
I401
I8
tp946
a(I55
I408
I7
tp947
a(I55
I414
I6
tp948
a(I55
I419
I5
tp949
a(I55
I423
I4
tp950
a(I55
I426
I3
tp951
a(I55
I428
I2
tp952
a(I56
I407
I7
tp953
a(I56
I413
I6
tp954
a(I56
I418
I5
tp955
a(I56
I422
I4
tp956
a(I56
I425
I3
tp957
a(I56
I427
I2
tp958
a(I57
I406
I7
tp959
a(I57
I412
I6
tp960
a(I57
I417
I5
tp961
a(I57
I421
I4
tp962
a(I57
I424
I3
tp963
a(I57
I426
I2
tp964
a(I58
I405
I7
tp965
a(I58
I411
I6
tp966
a(I58
I416
I5
tp967
a(I58
I420
I4
tp968
a(I58
I423
I3
tp969
a(I58
I425
I2
tp970
a(I59
I404
I7
tp971
a(I59
I410
I6
tp972
a(I59
I415
I5
tp973
a(I59
I419
I4
tp974
a(I59
I422
I3
tp975
a(I59
I424
I2
tp976
a(I60
I403
I7
tp977
a(I60
I409
I6
tp978
a(I60
I414
I5
tp979
a(I60
I418
I4
tp980
a(I60
I421
I3
tp981
a(I60
I423
I2
tp982
a(I61
I402
I7
tp983
a(I61
I408
I6
tp984
a(I61
I413
I5
tp985
a(I61
I417
I4
tp986
a(I61
I420
I3
tp987
a(I61
I422
I2
tp988
a(I62
I401
I7
tp989
a(I62
I407
I6
tp990
a(I62
I412
I5
tp991
a(I62
I416
I4
tp992
a(I62
I419
I3
tp993
a(I62
I421
I2
tp994
a(I63
I406
I6
tp995
a(I63
I411
I5
tp996
a(I63
I415
I4
tp997
a(I63
I418
I3
tp998
a(I63
I420
I2
tp999
a(I64
I405
I6
tp1000
a(I64
I410
I5
tp1001
a(I64
I414
I4
tp1002
a(I64
I417
I3
tp1003
a(I64
I419
I2
tp1004
a(I65
I404
I6
tp1005
a(I65
I409
I5
tp1006
a(I65
I413
I4
tp1007
a(I65
I416
I3
tp1008
a(I65
I418
I2
tp1009
a(I66
I403
I6
tp1010
a(I66
I408
I5
tp1011
a(I66
I412
I4
tp1012
a(I66
I415
I3
tp1013
a(I66
I417
I2
tp1014
a(I67
I402
I6
tp1015
a(I67
I407
I5
tp1016
a(I67
I411
I4
tp1017
a(I67
I414
I3
tp1018
a(I67
I416
I2
tp1019
a(I68
I401
I6
tp1020
a(I68
I406
I5
tp1021
a(I68
I410
I4
tp1022
a(I68
I413
I3
tp1023
a(I68
I415
I2
tp1024
a(I69
I405
I5
tp1025
a(I69
I409
I4
tp1026
a(I69
I412
I3
tp1027
a(I69
I414
I2
tp1028
a(I70
I404
I5
tp1029
a(I70
I408
I4
tp1030
a(I70
I411
I3
tp1031
a(I70
I413
I2
tp1032
a(I71
I403
I5
tp1033
a(I71
I407
I4
tp1034
a(I71
I410
I3
tp1035
a(I71
I412
I2
tp1036
a(I72
I402
I5
tp1037
a(I72
I406
I4
tp1038
a(I72
I409
I3
tp1039
a(I72
I411
I2
tp1040
a(I73
I401
I5
tp1041
a(I73
I405
I4
tp1042
a(I73
I408
I3
tp1043
a(I73
I410
I2
tp1044
a(I74
I404
I4
tp1045
a(I74
I407
I3
tp1046
a(I74
I409
I2
tp1047
a(I75
I403
I4
tp1048
a(I75
I406
I3
tp1049
a(I75
I408
I2
tp1050
a(I76
I402
I4
tp1051
a(I76
I405
I3
tp1052
a(I76
I407
I2
tp1053
a(I77
I401
I4
tp1054
a(I77
I404
I3
tp1055
a(I77
I406
I2
tp1056
a(I78
I403
I3
tp1057
a(I78
I405
I2
tp1058
a(I79
I402
I3
tp1059
a(I79
I404
I2
tp1060
a(I80
I401
I3
tp1061
a(I80
I403
I2
tp1062
a(I81
I402
I2
tp1063
a(I82
I401
I2
tp1064
asS'witness'
p1065
(dp1066
g403
((idivisor
TwoPDivisor
p1067
(dp1069
S'Q'
p1070
I0
sS'P'
p1071
I-15
sb(idivisor
TwoPDivisor
p1072
(dp1073
g1070
I-1
sg1071
I458
sbtp1074
sg106
((idivisor
TwoPDivisor
p1075
(dp1076
g1070
I0
sg1071
I25
sb(idivisor
TwoPDivisor
p1077
(dp1078
g1070
I-1
sg1071
I430
sbtp1079
sg318
((idivisor
TwoPDivisor
p1080
(dp1081
g1070
I0
sg1071
I27
sb(idivisor
TwoPDivisor
p1082
(dp1083
g1070
I-1
sg1071
I421
sbtp1084
sg552
(g1067
(idivisor
TwoPDivisor
p1085
(dp1086
g1070
I-1
sg1071
I450
sbtp1087
sg172
((idivisor
TwoPDivisor
p1088
(dp1089
g1070
I0
sg1071
I35
sb(idivisor
TwoPDivisor
p1090
(dp1091
g1070
I-1
sg1071
I418
sbtp1092
sg220
((idivisor
TwoPDivisor
p1093
(dp1094
g1070
I0
sg1071
I-23
sb(idivisor
TwoPDivisor
p1095
(dp1096
g1070
I-1
sg1071
I472
sbtp1097
sg598
(g1075
(idivisor
TwoPDivisor
p1098
(dp1099
g1070
I-1
sg1071
I410
sbtp1100
sg94
((idivisor
TwoPDivisor
p1101
(dp1102
g1070
I0
sg1071
I44
sb(idivisor
TwoPDivisor
p1103
(dp1104
g1070
I-1
sg1071
I411
sbtp1105
sg621
((idivisor
TwoPDivisor
p1106
(dp1107
g1070
I0
sg1071
I-7
sb(idivisor
TwoPDivisor
p1108
(dp1109
g1070
I-1
sg1071
I440
sbtp1110
sg254
(g1101
(idivisor
TwoPDivisor
p1111
(dp1112
g1070
I-1
sg1071
I406
sbtp1113
sg437
((idivisor
TwoPDivisor
p1114
(dp1115
g1070
I0
sg1071
I28
sb(idivisor
TwoPDivisor
p1116
(dp1117
g1070
I-1
sg1071
I415
sbtp1118
sg419
((idivisor
TwoPDivisor
p1119
(dp1120
g1070
I0
sg1071
I19
sb(idivisor
TwoPDivisor
p1121
(dp1122
g1070
I-1
sg1071
I425
sbtp1123
sg160
((idivisor
TwoPDivisor
p1124
(dp1125
g1070
I0
sg1071
I-47
sb(idivisor
TwoPDivisor
p1126
(dp1127
g1070
I-1
sg1071
I495
sbtp1128
sg305
(g1124
(idivisor
TwoPDivisor
p1129
(dp1130
g1070
I-1
sg1071
I485
sbtp1131
sg830
(g1067
(idivisor
TwoPDivisor
p1132
(dp1133
g1070
I-1
sg1071
I430
sbtp1134
sg855
((idivisor
TwoPDivisor
p1135
(dp1136
g1070
I0
sg1071
I1
sb(idivisor
TwoPDivisor
p1137
(dp1138
g1070
I-1
sg1071
I414
sbtp1139
sg693
(g1075
(idivisor
TwoPDivisor
p1140
(dp1141
g1070
I-1
sg1071
I404
sbtp1142
sg322
((idivisor
TwoPDivisor
p1143
(dp1144
g1070
I0
sg1071
I18
sb(idivisor
TwoPDivisor
p1145
(dp1146
g1070
I-1
sg1071
I430
sbtp1147
sg433
((idivisor
TwoPDivisor
p1148
(dp1149
g1070
I0
sg1071
I36
sb(idivisor
TwoPDivisor
p1150
(dp1151
g1070
I-1
sg1071
I407
sbtp1152
sg1034
((idivisor
TwoPDivisor
p1153
(dp1154
g1070
I0
sg1071
I-31
sb(idivisor
TwoPDivisor
p1155
(dp1156
g1070
I-1
sg1071
I408
sbtp1157
sg173
((idivisor
TwoPDivisor
p1158
(dp1159
g1070
I0
sg1071
I34
sb(idivisor
TwoPDivisor
p1160
(dp1161
g1070
I-1
sg1071
I419
sbtp1162
sg104
(g1080
(idivisor
TwoPDivisor
p1163
(dp1164
g1070
I-1
sg1071
I428
sbtp1165
sg1048
(g1153
(idivisor
TwoPDivisor
p1166
(dp1167
g1070
I-1
sg1071
I404
sbtp1168
sg52
((idivisor
TwoPDivisor
p1169
(dp1170
g1070
I0
sg1071
I46
sb(idivisor
TwoPDivisor
p1171
(dp1172
g1070
I-1
sg1071
I410
sbtp1173
sg748
((idivisor
TwoPDivisor
p1174
(dp1175
g1070
I0
sg1071
I10
sb(idivisor
TwoPDivisor
p1176
(dp1177
g1070
I-1
sg1071
I415
sbtp1178
sg380
(g1093
(idivisor
TwoPDivisor
p1179
(dp1180
g1070
I-1
sg1071
I464
sbtp1181
sg291
(g1080
(idivisor
TwoPDivisor
p1182
(dp1183
g1070
I-1
sg1071
I422
sbtp1184
sg555
((idivisor
TwoPDivisor
p1185
(dp1186
g1070
I0
sg1071
I-39
sb(idivisor
TwoPDivisor
p1187
(dp1188
g1070
I-1
sg1071
I463
sbtp1189
sg503
(g1075
(idivisor
TwoPDivisor
p1190
(dp1191
g1070
I-1
sg1071
I415
sbtp1192
sg317
(g1114
(idivisor
TwoPDivisor
p1193
(dp1194
g1070
I-1
sg1071
I420
sbtp1195
sg1004
(g1124
(idivisor
TwoPDivisor
p1196
(dp1197
g1070
I-1
sg1071
I420
sbtp1198
sg331
(g1185
(idivisor
TwoPDivisor
p1199
(dp1200
g1070
I-1
sg1071
I478
sbtp1201
sg352
(g1135
(idivisor
TwoPDivisor
p1202
(dp1203
g1070
I-1
sg1071
I446
sbtp1204
sg457
((idivisor
TwoPDivisor
p1205
(dp1206
g1070
I0
sg1071
I33
sb(idivisor
TwoPDivisor
p1207
(dp1208
g1070
I-1
sg1071
I409
sbtp1209
sg1012
(g1153
(idivisor
TwoPDivisor
p1210
(dp1211
g1070
I-1
sg1071
I413
sbtp1212
sg10
((idivisor
TwoPDivisor
p1213
(dp1214
g1070
I0
sg1071
I47
sb(idivisor
TwoPDivisor
p1215
(dp1216
g1070
I-1
sg1071
I410
sbtp1217
sg140
(g1114
(idivisor
TwoPDivisor
p1218
(dp1219
g1070
I-1
sg1071
I426
sbtp1220
sg964
(g1124
(idivisor
TwoPDivisor
p1221
(dp1222
g1070
I-1
sg1071
I427
sbtp1223
sg763
(g1106
(idivisor
TwoPDivisor
p1224
(dp1225
g1070
I-1
sg1071
I430
sbtp1226
sg817
(g1174
(idivisor
TwoPDivisor
p1227
(dp1228
g1070
I-1
sg1071
I409
sbtp1229
sg623
(g1093
(idivisor
TwoPDivisor
p1230
(dp1231
g1070
I-1
sg1071
I451
sbtp1232
sg257
((idivisor
TwoPDivisor
p1233
(dp1234
g1070
I0
sg1071
I41
sb(idivisor
TwoPDivisor
p1235
(dp1236
g1070
I-1
sg1071
I409
sbtp1237
sg869
(g1185
(idivisor
TwoPDivisor
p1238
(dp1239
g1070
I-1
sg1071
I438
sbtp1240
sg49
((idivisor
TwoPDivisor
p1241
(dp1242
g1070
I0
sg1071
I51
sb(idivisor
TwoPDivisor
p1243
(dp1244
g1070
I-1
sg1071
I405
sbtp1245
sg896
(g1124
(idivisor
TwoPDivisor
p1246
(dp1247
g1070
I-1
sg1071
I437
sbtp1248
sg890
(g1135
(idivisor
TwoPDivisor
p1249
(dp1250
g1070
I-1
sg1071
I410
sbtp1251
sg251
(g1124
(idivisor
TwoPDivisor
p1252
(dp1253
g1070
I-1
sg1071
I487
sbtp1254
sg316
(g1205
(idivisor
TwoPDivisor
p1255
(dp1256
g1070
I-1
sg1071
I415
sbtp1257
sg16
((idivisor
TwoPDivisor
p1258
(dp1259
g1070
I0
sg1071
I38
sb(idivisor
TwoPDivisor
p1260
(dp1261
g1070
I-1
sg1071
I419
sbtp1262
sg477
(g1158
(idivisor
TwoPDivisor
p1263
(dp1264
g1070
I-1
sg1071
I407
sbtp1265
sg648
(g1143
(idivisor
TwoPDivisor
p1266
(dp1267
g1070
I-1
sg1071
I414
sbtp1268
sg556
(g1124
(idivisor
TwoPDivisor
p1269
(dp1270
g1070
I-1
sg1071
I467
sbtp1271
sg99
(g1148
(idivisor
TwoPDivisor
p1272
(dp1273
g1070
I-1
sg1071
I419
sbtp1274
sg425
(g1106
(idivisor
TwoPDivisor
p1275
(dp1276
g1070
I-1
sg1071
I450
sbtp1277
sg627
(g1114
(idivisor
TwoPDivisor
p1278
(dp1279
g1070
I-1
sg1071
I405
sbtp1280
sg611
(g1114
(idivisor
TwoPDivisor
p1281
(dp1282
g1070
I-1
sg1071
I406
sbtp1283
sg410
((idivisor
TwoPDivisor
p1284
(dp1285
g1070
I0
sg1071
I37
sb(idivisor
TwoPDivisor
p1286
(dp1287
g1070
I-1
sg1071
I407
sbtp1288
sg181
((idivisor
TwoPDivisor
p1289
(dp1290
g1070
I0
sg1071
I17
sb(idivisor
TwoPDivisor
p1291
(dp1292
g1070
I-1
sg1071
I436
sbtp1293
sg510
(g1106
(idivisor
TwoPDivisor
p1294
(dp1295
g1070
I-1
sg1071
I446
sbtp1296
sg524
(g1075
(idivisor
TwoPDivisor
p1297
(dp1298
g1070
I-1
sg1071
I414
sbtp1299
sg408
((idivisor
TwoPDivisor
p1300
(dp1301
g1070
I0
sg1071
I42
sb(idivisor
TwoPDivisor
p1302
(dp1303
g1070
I-1
sg1071
I402
sbtp1304
sg93
((idivisor
TwoPDivisor
p1305
(dp1306
g1070
I0
sg1071
I45
sb(idivisor
TwoPDivisor
p1307
(dp1308
g1070
I-1
sg1071
I410
sbtp1309
sg781
(g1119
(idivisor
TwoPDivisor
p1310
(dp1311
g1070
I-1
sg1071
I403
sbtp1312
sg1033
(g1093
(idivisor
TwoPDivisor
p1313
(dp1314
g1070
I-1
sg1071
I404
sbtp1315
sg328
(g1067
(idivisor
TwoPDivisor
p1316
(dp1317
g1070
I-1
sg1071
I461
sbtp1318
sg195
((idivisor
TwoPDivisor
p1319
(dp1320
g1070
I0
sg1071
I49
sb(idivisor
TwoPDivisor
p1321
(dp1322
g1070
I-1
sg1071
I403
sbtp1323
sg546
(g1143
(idivisor
TwoPDivisor
p1324
(dp1325
g1070
I-1
sg1071
I420
sbtp1326
sg858
(g1093
(idivisor
TwoPDivisor
p1327
(dp1328
g1070
I-1
sg1071
I432
sbtp1329
sg734
(g1143
(idivisor
TwoPDivisor
p1330
(dp1331
g1070
I-1
sg1071
I408
sbtp1332
sg279
(g1169
(idivisor
TwoPDivisor
p1333
(dp1334
g1070
I-1
sg1071
I403
sbtp1335
sg628
(g1080
(idivisor
TwoPDivisor
p1336
(dp1337
g1070
I-1
sg1071
I406
sbtp1338
sg244
((idivisor
TwoPDivisor
p1339
(dp1340
g1070
I0
sg1071
I9
sb(idivisor
TwoPDivisor
p1341
(dp1342
g1070
I-1
sg1071
I442
sbtp1343
sg194
((idivisor
TwoPDivisor
p1344
(dp1345
g1070
I0
sg1071
I50
sb(idivisor
TwoPDivisor
p1346
(dp1347
g1070
I-1
sg1071
I402
sbtp1348
sg525
(g1119
(idivisor
TwoPDivisor
p1349
(dp1350
g1070
I-1
sg1071
I420
sbtp1351
sg1064
(g1124
(idivisor
TwoPDivisor
p1352
(dp1353
g1070
I-1
sg1071
I402
sbtp1354
sg1037
(g1093
(idivisor
TwoPDivisor
p1355
(dp1356
g1070
I-1
sg1071
I403
sbtp1357
sg415
(g1114
(idivisor
TwoPDivisor
p1358
(dp1359
g1070
I-1
sg1071
I416
sbtp1360
sg180
(g1143
(idivisor
TwoPDivisor
p1361
(dp1362
g1070
I-1
sg1071
I435
sbtp1363
sg398
(g1289
(idivisor
TwoPDivisor
p1364
(dp1365
g1070
I-1
sg1071
I428
sbtp1366
sg644
(g1080
(idivisor
TwoPDivisor
p1367
(dp1368
g1070
I-1
sg1071
I405
sbtp1369
sg639
(g1093
(idivisor
TwoPDivisor
p1370
(dp1371
g1070
I-1
sg1071
I450
sbtp1372
sg185
((idivisor
TwoPDivisor
p1373
(dp1374
g1070
I0
sg1071
I2
sb(idivisor
TwoPDivisor
p1375
(dp1376
g1070
I-1
sg1071
I451
sbtp1377
sg960
(g1067
(idivisor
TwoPDivisor
p1378
(dp1379
g1070
I-1
sg1071
I413
sbtp1380
sg169
(g1233
(idivisor
TwoPDivisor
p1381
(dp1382
g1070
I-1
sg1071
I412
sbtp1383
sg1011
(g1093
(idivisor
TwoPDivisor
p1384
(dp1385
g1070
I-1
sg1071
I409
sbtp1386
sg98
(g1284
(idivisor
TwoPDivisor
p1387
(dp1388
g1070
I-1
sg1071
I418
sbtp1389
sg373
(g1143
(idivisor
TwoPDivisor
p1390
(dp1391
g1070
I-1
sg1071
I428
sbtp1392
sg629
((idivisor
TwoPDivisor
p1393
(dp1394
g1070
I0
sg1071
I26
sb(idivisor
TwoPDivisor
p1395
(dp1396
g1070
I-1
sg1071
I407
sbtp1397
sg163
(g1319
(idivisor
TwoPDivisor
p1398
(dp1399
g1070
I-1
sg1071
I404
sbtp1400
sg431
(g1233
(idivisor
TwoPDivisor
p1401
(dp1402
g1070
I-1
sg1071
I402
sbtp1403
sg62
((idivisor
TwoPDivisor
p1404
(dp1405
g1070
I0
sg1071
I29
sb(idivisor
TwoPDivisor
p1406
(dp1407
g1070
I-1
sg1071
I427
sbtp1408
sg154
(g1106
(idivisor
TwoPDivisor
p1409
(dp1410
g1070
I-1
sg1071
I461
sbtp1411
sg558
(g1158
(idivisor
TwoPDivisor
p1412
(dp1413
g1070
I-1
sg1071
I403
sbtp1414
sg587
(g1135
(idivisor
TwoPDivisor
p1415
(dp1416
g1070
I-1
sg1071
I435
sbtp1417
sg664
(g1143
(idivisor
TwoPDivisor
p1418
(dp1419
g1070
I-1
sg1071
I413
sbtp1420
sg944
(g1185
(idivisor
TwoPDivisor
p1421
(dp1422
g1070
I-1
sg1071
I428
sbtp1423
sg253
(g1305
(idivisor
TwoPDivisor
p1424
(dp1425
g1070
I-1
sg1071
I405
sbtp1426
sg656
(g1153
(idivisor
TwoPDivisor
p1427
(dp1428
g1070
I-1
sg1071
I453
sbtp1429
sg887
(g1185
(idivisor
TwoPDivisor
p1430
(dp1431
g1070
I-1
sg1071
I436
sbtp1432
sg1061
(g1185
(idivisor
TwoPDivisor
p1433
(dp1434
g1070
I-1
sg1071
I402
sbtp1435
sg1040
(g1124
(idivisor
TwoPDivisor
p1436
(dp1437
g1070
I-1
sg1071
I412
sbtp1438
sg394
(g1393
(idivisor
TwoPDivisor
p1439
(dp1440
g1070
I-1
sg1071
I419
sbtp1441
sg65
(g1393
(idivisor
TwoPDivisor
p1442
(dp1443
g1070
I-1
sg1071
I430
sbtp1444
sg15
(g1233
(idivisor
TwoPDivisor
p1445
(dp1446
g1070
I-1
sg1071
I416
sbtp1447
sg377
(g1135
(idivisor
TwoPDivisor
p1448
(dp1449
g1070
I-1
sg1071
I445
sbtp1450
sg175
(g1114
(idivisor
TwoPDivisor
p1451
(dp1452
g1070
I-1
sg1071
I425
sbtp1453
sg658
(g1124
(idivisor
TwoPDivisor
p1454
(dp1455
g1070
I-1
sg1071
I459
sbtp1456
sg11
(g1169
(idivisor
TwoPDivisor
p1457
(dp1458
g1070
I-1
sg1071
I411
sbtp1459
sg709
(g1143
(idivisor
TwoPDivisor
p1460
(dp1461
g1070
I-1
sg1071
I410
sbtp1462
sg23
(g1080
(idivisor
TwoPDivisor
p1463
(dp1464
g1070
I-1
sg1071
I430
sbtp1465
sg618
(g1174
(idivisor
TwoPDivisor
p1466
(dp1467
g1070
I-1
sg1071
I424
sbtp1468
sg434
(g1088
(idivisor
TwoPDivisor
p1469
(dp1470
g1070
I-1
sg1071
I408
sbtp1471
sg128
(g1319
(idivisor
TwoPDivisor
p1472
(dp1473
g1070
I-1
sg1071
I405
sbtp1474
sg951
(g1185
(idivisor
TwoPDivisor
p1475
(dp1476
g1070
I-1
sg1071
I427
sbtp1477
sg92
(g1169
(idivisor
TwoPDivisor
p1478
(dp1479
g1070
I-1
sg1071
I409
sbtp1480
sg495
(g1284
(idivisor
TwoPDivisor
p1481
(dp1482
g1070
I-1
sg1071
I403
sbtp1483
sg979
(g1093
(idivisor
TwoPDivisor
p1484
(dp1485
g1070
I-1
sg1071
I415
sbtp1486
sg189
(g1067
(idivisor
TwoPDivisor
p1487
(dp1488
g1070
I-1
sg1071
I468
sbtp1489
sg871
(g1174
(idivisor
TwoPDivisor
p1490
(dp1491
g1070
I-1
sg1071
I403
sbtp1492
sg298
(g1339
(idivisor
TwoPDivisor
p1493
(dp1494
g1070
I-1
sg1071
I440
sbtp1495
sg930
(g1185
(idivisor
TwoPDivisor
p1496
(dp1497
g1070
I-1
sg1071
I430
sbtp1498
sg696
(g1289
(idivisor
TwoPDivisor
p1499
(dp1500
g1070
I-1
sg1071
I412
sbtp1501
sg319
(g1393
(idivisor
TwoPDivisor
p1502
(dp1503
g1070
I-1
sg1071
I422
sbtp1504
sg1054
(g1153
(idivisor
TwoPDivisor
p1505
(dp1506
g1070
I-1
sg1071
I402
sbtp1507
sg285
(g1284
(idivisor
TwoPDivisor
p1508
(dp1509
g1070
I-1
sg1071
I412
sbtp1510
sg1030
(g1153
(idivisor
TwoPDivisor
p1511
(dp1512
g1070
I-1
sg1071
I409
sbtp1513
sg506
(g1289
(idivisor
TwoPDivisor
p1514
(dp1515
g1070
I-1
sg1071
I423
sbtp1516
sg27
(g1289
(idivisor
TwoPDivisor
p1517
(dp1518
g1070
I-1
sg1071
I440
sbtp1519
sg145
(g1119
(idivisor
TwoPDivisor
p1520
(dp1521
g1070
I-1
sg1071
I435
sbtp1522
sg935
(g1093
(idivisor
TwoPDivisor
p1523
(dp1524
g1070
I-1
sg1071
I422
sbtp1525
sg1045
(g1153
(idivisor
TwoPDivisor
p1526
(dp1527
g1070
I-1
sg1071
I405
sbtp1528
sg927
(g1067
(idivisor
TwoPDivisor
p1529
(dp1530
g1070
I-1
sg1071
I418
sbtp1531
sg450
(g1153
(idivisor
TwoPDivisor
p1532
(dp1533
g1070
I-1
sg1071
I467
sbtp1534
sg240
(g1119
(idivisor
TwoPDivisor
p1535
(dp1536
g1070
I-1
sg1071
I432
sbtp1537
sg533
(g1093
(idivisor
TwoPDivisor
p1538
(dp1539
g1070
I-1
sg1071
I456
sbtp1540
sg505
(g1143
(idivisor
TwoPDivisor
p1541
(dp1542
g1070
I-1
sg1071
I422
sbtp1543
sg513
(g1153
(idivisor
TwoPDivisor
p1544
(dp1545
g1070
I-1
sg1071
I462
sbtp1546
sg831
(g1093
(idivisor
TwoPDivisor
p1547
(dp1548
g1070
I-1
sg1071
I435
sbtp1549
sg741
(g1093
(idivisor
TwoPDivisor
p1550
(dp1551
g1070
I-1
sg1071
I443
sbtp1552
sg372
(g1119
(idivisor
TwoPDivisor
p1553
(dp1554
g1070
I-1
sg1071
I427
sbtp1555
sg993
(g1185
(idivisor
TwoPDivisor
p1556
(dp1557
g1070
I-1
sg1071
I420
sbtp1558
sg638
(g1067
(idivisor
TwoPDivisor
p1559
(dp1560
g1070
I-1
sg1071
I445
sbtp1561
sg655
(g1093
(idivisor
TwoPDivisor
p1562
(dp1563
g1070
I-1
sg1071
I449
sbtp1564
sg692
(g1393
(idivisor
TwoPDivisor
p1565
(dp1566
g1070
I-1
sg1071
I403
sbtp1567
sg511
(g1067
(idivisor
TwoPDivisor
p1568
(dp1569
g1070
I-1
sg1071
I452
sbtp1570
sg990
(g1067
(idivisor
TwoPDivisor
p1571
(dp1572
g1070
I-1
sg1071
I408
sbtp1573
sg549
(g1339
(idivisor
TwoPDivisor
p1574
(dp1575
g1070
I-1
sg1071
I429
sbtp1576
sg339
(g1148
(idivisor
TwoPDivisor
p1577
(dp1578
g1070
I-1
sg1071
I411
sbtp1579
sg976
(g1124
(idivisor
TwoPDivisor
p1580
(dp1581
g1070
I-1
sg1071
I425
sbtp1582
sg954
(g1067
(idivisor
TwoPDivisor
p1583
(dp1584
g1070
I-1
sg1071
I414
sbtp1585
sg166
(g1101
(idivisor
TwoPDivisor
p1586
(dp1587
g1070
I-1
sg1071
I409
sbtp1588
sg272
(g1135
(idivisor
TwoPDivisor
p1589
(dp1590
g1070
I-1
sg1071
I449
sbtp1591
sg416
(g1080
(idivisor
TwoPDivisor
p1592
(dp1593
g1070
I-1
sg1071
I417
sbtp1594
sg193
(g1124
(idivisor
TwoPDivisor
p1595
(dp1596
g1070
I-1
sg1071
I494
sbtp1597
sg113
((idivisor
TwoPDivisor
p1598
(dp1599
g1070
I0
sg1071
I3
sb(idivisor
TwoPDivisor
p1600
(dp1601
g1070
I-1
sg1071
I452
sbtp1602
sg522
(g1080
(idivisor
TwoPDivisor
p1603
(dp1604
g1070
I-1
sg1071
I412
sbtp1605
sg998
(g1185
(idivisor
TwoPDivisor
p1606
(dp1607
g1070
I-1
sg1071
I419
sbtp1608
sg501
(g1080
(idivisor
TwoPDivisor
p1609
(dp1610
g1070
I-1
sg1071
I413
sbtp1611
sg834
(g1124
(idivisor
TwoPDivisor
p1612
(dp1613
g1070
I-1
sg1071
I444
sbtp1614
sg47
((idivisor
TwoPDivisor
p1615
(dp1616
g1070
I0
sg1071
I53
sb(idivisor
TwoPDivisor
p1617
(dp1618
g1070
I-1
sg1071
I403
sbtp1619
sg1055
(g1185
(idivisor
TwoPDivisor
p1620
(dp1621
g1070
I-1
sg1071
I405
sbtp1622
sg61
(g1205
(idivisor
TwoPDivisor
p1623
(dp1624
g1070
I-1
sg1071
I423
sbtp1625
sg102
(g1404
(idivisor
TwoPDivisor
p1626
(dp1627
g1070
I-1
sg1071
I426
sbtp1628
sg45
(g1124
(idivisor
TwoPDivisor
p1629
(dp1630
g1070
I-1
sg1071
I504
sbtp1631
sg485
(g1289
(idivisor
TwoPDivisor
p1632
(dp1633
g1070
I-1
sg1071
I424
sbtp1634
sg397
(g1143
(idivisor
TwoPDivisor
p1635
(dp1636
g1070
I-1
sg1071
I427
sbtp1637
sg155
((idivisor
TwoPDivisor
p1638
(dp1639
g1070
I0
sg1071
I-14
sb(idivisor
TwoPDivisor
p1640
(dp1641
g1070
I-1
sg1071
I468
sbtp1642
sg314
(g1088
(idivisor
TwoPDivisor
p1643
(dp1644
g1070
I-1
sg1071
I413
sbtp1645
sg712
(g1339
(idivisor
TwoPDivisor
p1646
(dp1647
g1070
I-1
sg1071
I419
sbtp1648
sg873
(g1135
(idivisor
TwoPDivisor
p1649
(dp1650
g1070
I-1
sg1071
I412
sbtp1651
sg715
(g1067
(idivisor
TwoPDivisor
p1652
(dp1653
g1070
I-1
sg1071
I440
sbtp1654
sg187
((idivisor
TwoPDivisor
p1655
(dp1656
g1070
I0
sg1071
I-6
sb(idivisor
TwoPDivisor
p1657
(dp1658
g1070
I-1
sg1071
I459
sbtp1659
sg823
(g1153
(idivisor
TwoPDivisor
p1660
(dp1661
g1070
I-1
sg1071
I440
sbtp1662
sg559
(g1205
(idivisor
TwoPDivisor
p1663
(dp1664
g1070
I-1
sg1071
I404
sbtp1665
sg574
(g1185
(idivisor
TwoPDivisor
p1666
(dp1667
g1070
I-1
sg1071
I462
sbtp1668
sg864
(g1135
(idivisor
TwoPDivisor
p1669
(dp1670
g1070
I-1
sg1071
I413
sbtp1671
sg900
(g1093
(idivisor
TwoPDivisor
p1672
(dp1673
g1070
I-1
sg1071
I427
sbtp1674
sg400
(g1339
(idivisor
TwoPDivisor
p1675
(dp1676
g1070
I-1
sg1071
I436
sbtp1677
sg722
(g1143
(idivisor
TwoPDivisor
p1678
(dp1679
g1070
I-1
sg1071
I409
sbtp1680
sg909
(g1185
(idivisor
TwoPDivisor
p1681
(dp1682
g1070
I-1
sg1071
I433
sbtp1683
sg953
(g1106
(idivisor
TwoPDivisor
p1684
(dp1685
g1070
I-1
sg1071
I408
sbtp1686
sg402
(g1106
(idivisor
TwoPDivisor
p1687
(dp1688
g1070
I-1
sg1071
I451
sbtp1689
sg143
(g1075
(idivisor
TwoPDivisor
p1690
(dp1691
g1070
I-1
sg1071
I429
sbtp1692
sg850
(g1153
(idivisor
TwoPDivisor
p1693
(dp1694
g1070
I-1
sg1071
I437
sbtp1695
sg422
(g1174
(idivisor
TwoPDivisor
p1696
(dp1697
g1070
I-1
sg1071
I434
sbtp1698
sg705
(g1124
(idivisor
TwoPDivisor
p1699
(dp1700
g1070
I-1
sg1071
I455
sbtp1701
sg766
(g1153
(idivisor
TwoPDivisor
p1702
(dp1703
g1070
I-1
sg1071
I445
sbtp1704
sg358
(g1124
(idivisor
TwoPDivisor
p1705
(dp1706
g1070
I-1
sg1071
I479
sbtp1707
sg252
(g1169
(idivisor
TwoPDivisor
p1708
(dp1709
g1070
I-1
sg1071
I404
sbtp1710
sg167
((idivisor
TwoPDivisor
p1711
(dp1712
g1070
I0
sg1071
I43
sb(idivisor
TwoPDivisor
p1713
(dp1714
g1070
I-1
sg1071
I410
sbtp1715
sg112
(g1339
(idivisor
TwoPDivisor
p1716
(dp1717
g1070
I-1
sg1071
I446
sbtp1718
sg247
(g1067
(idivisor
TwoPDivisor
p1719
(dp1720
g1070
I-1
sg1071
I464
sbtp1721
sg1059
(g1185
(idivisor
TwoPDivisor
p1722
(dp1723
g1070
I-1
sg1071
I403
sbtp1724
sg827
(g1339
(idivisor
TwoPDivisor
p1725
(dp1726
g1070
I-1
sg1071
I409
sbtp1727
sg218
(g1106
(idivisor
TwoPDivisor
p1728
(dp1729
g1070
I-1
sg1071
I459
sbtp1730
sg583
(g1143
(idivisor
TwoPDivisor
p1731
(dp1732
g1070
I-1
sg1071
I418
sbtp1733
sg973
(g1093
(idivisor
TwoPDivisor
p1734
(dp1735
g1070
I-1
sg1071
I416
sbtp1736
sg1021
(g1093
(idivisor
TwoPDivisor
p1737
(dp1738
g1070
I-1
sg1071
I407
sbtp1739
sg615
(g1119
(idivisor
TwoPDivisor
p1740
(dp1741
g1070
I-1
sg1071
I415
sbtp1742
sg875
(g1067
(idivisor
TwoPDivisor
p1743
(dp1744
g1070
I-1
sg1071
I425
sbtp1745
sg464
(g1289
(idivisor
TwoPDivisor
p1746
(dp1747
g1070
I-1
sg1071
I425
sbtp1748
sg462
(g1119
(idivisor
TwoPDivisor
p1749
(dp1750
g1070
I-1
sg1071
I423
sbtp1751
sg756
(g1124
(idivisor
TwoPDivisor
p1752
(dp1753
g1070
I-1
sg1071
I451
sbtp1754
sg144
((idivisor
TwoPDivisor
p1755
(dp1756
g1070
I0
sg1071
I20
sb(idivisor
TwoPDivisor
p1757
(dp1758
g1070
I-1
sg1071
I434
sbtp1759
sg770
(g1143
(idivisor
TwoPDivisor
p1760
(dp1761
g1070
I-1
sg1071
I405
sbtp1762
sg205
(g1158
(idivisor
TwoPDivisor
p1763
(dp1764
g1070
I-1
sg1071
I418
sbtp1765
sg811
(g1067
(idivisor
TwoPDivisor
p1766
(dp1767
g1070
I-1
sg1071
I432
sbtp1768
sg516
(g1284
(idivisor
TwoPDivisor
p1769
(dp1770
g1070
I-1
sg1071
I402
sbtp1771
sg86
(g1124
(idivisor
TwoPDivisor
p1772
(dp1773
g1070
I-1
sg1071
I503
sbtp1774
sg822
(g1093
(idivisor
TwoPDivisor
p1775
(dp1776
g1070
I-1
sg1071
I436
sbtp1777
sg980
(g1153
(idivisor
TwoPDivisor
p1778
(dp1779
g1070
I-1
sg1071
I419
sbtp1780
sg22
(g1114
(idivisor
TwoPDivisor
p1781
(dp1782
g1070
I-1
sg1071
I429
sbtp1783
sg456
(g1158
(idivisor
TwoPDivisor
p1784
(dp1785
g1070
I-1
sg1071
I408
sbtp1786
sg259
(g1148
(idivisor
TwoPDivisor
p1787
(dp1788
g1070
I-1
sg1071
I414
sbtp1789
sg789
(g1093
(idivisor
TwoPDivisor
p1790
(dp1791
g1070
I-1
sg1071
I439
sbtp1792
sg853
(g1174
(idivisor
TwoPDivisor
p1793
(dp1794
g1070
I-1
sg1071
I405
sbtp1795
sg164
(g1169
(idivisor
TwoPDivisor
p1796
(dp1797
g1070
I-1
sg1071
I407
sbtp1798
sg917
(g1124
(idivisor
TwoPDivisor
p1799
(dp1800
g1070
I-1
sg1071
I434
sbtp1801
sg977
(g1106
(idivisor
TwoPDivisor
p1802
(dp1803
g1070
I-1
sg1071
I404
sbtp1804
sg592
(g1185
(idivisor
TwoPDivisor
p1805
(dp1806
g1070
I-1
sg1071
I461
sbtp1807
sg915
(g1153
(idivisor
TwoPDivisor
p1808
(dp1809
g1070
I-1
sg1071
I429
sbtp1810
sg962
(g1153
(idivisor
TwoPDivisor
p1811
(dp1812
g1070
I-1
sg1071
I422
sbtp1813
sg1024
(g1124
(idivisor
TwoPDivisor
p1814
(dp1815
g1070
I-1
sg1071
I416
sbtp1816
sg849
(g1093
(idivisor
TwoPDivisor
p1817
(dp1818
g1070
I-1
sg1071
I433
sbtp1819
sg13
(g1101
(idivisor
TwoPDivisor
p1820
(dp1821
g1070
I-1
sg1071
I413
sbtp1822
sg765
(g1093
(idivisor
TwoPDivisor
p1823
(dp1824
g1070
I-1
sg1071
I441
sbtp1825
sg596
(g1080
(idivisor
TwoPDivisor
p1826
(dp1827
g1070
I-1
sg1071
I408
sbtp1828
sg686
(g1067
(idivisor
TwoPDivisor
p1829
(dp1830
g1070
I-1
sg1071
I442
sbtp1831
sg688
(g1153
(idivisor
TwoPDivisor
p1832
(dp1833
g1070
I-1
sg1071
I451
sbtp1834
sg483
(g1119
(idivisor
TwoPDivisor
p1835
(dp1836
g1070
I-1
sg1071
I422
sbtp1837
sg39
((idivisor
TwoPDivisor
p1838
(dp1839
g1070
I0
sg1071
I-21
sb(idivisor
TwoPDivisor
p1840
(dp1841
g1070
I-1
sg1071
I478
sbtp1842
sg430
(g1124
(idivisor
TwoPDivisor
p1843
(dp1844
g1070
I-1
sg1071
I476
sbtp1845
sg894
(g1153
(idivisor
TwoPDivisor
p1846
(dp1847
g1070
I-1
sg1071
I432
sbtp1848
sg795
(g1289
(idivisor
TwoPDivisor
p1849
(dp1850
g1070
I-1
sg1071
I404
sbtp1851
sg560
(g1114
(idivisor
TwoPDivisor
p1852
(dp1853
g1070
I-1
sg1071
I409
sbtp1854
sg129
(g1169
(idivisor
TwoPDivisor
p1855
(dp1856
g1070
I-1
sg1071
I408
sbtp1857
sg695
(g1143
(idivisor
TwoPDivisor
p1858
(dp1859
g1070
I-1
sg1071
I411
sbtp1860
sg857
(g1067
(idivisor
TwoPDivisor
p1861
(dp1862
g1070
I-1
sg1071
I427
sbtp1863
sg568
(g1339
(idivisor
TwoPDivisor
p1864
(dp1865
g1070
I-1
sg1071
I428
sbtp1866
sg458
(g1114
(idivisor
TwoPDivisor
p1867
(dp1868
g1070
I-1
sg1071
I414
sbtp1869
sg792
(g1124
(idivisor
TwoPDivisor
p1870
(dp1871
g1070
I-1
sg1071
I448
sbtp1872
sg963
(g1185
(idivisor
TwoPDivisor
p1873
(dp1874
g1070
I-1
sg1071
I425
sbtp1875
sg40
((idivisor
TwoPDivisor
p1876
(dp1877
g1070
I0
sg1071
I-22
sb(idivisor
TwoPDivisor
p1878
(dp1879
g1070
I-1
sg1071
I479
sbtp1880
sg818
(g1339
(idivisor
TwoPDivisor
p1881
(dp1882
g1070
I-1
sg1071
I410
sbtp1883
sg902
(g1185
(idivisor
TwoPDivisor
p1884
(dp1885
g1070
I-1
sg1071
I434
sbtp1886
sg491
(g1093
(idivisor
TwoPDivisor
p1887
(dp1888
g1070
I-1
sg1071
I459
sbtp1889
sg263
(g1114
(idivisor
TwoPDivisor
p1890
(dp1891
g1070
I-1
sg1071
I422
sbtp1892
sg191
(g1153
(idivisor
TwoPDivisor
p1893
(dp1894
g1070
I-1
sg1071
I480
sbtp1895
sg330
(g1153
(idivisor
TwoPDivisor
p1896
(dp1897
g1070
I-1
sg1071
I472
sbtp1898
sg941
(g1067
(idivisor
TwoPDivisor
p1899
(dp1900
g1070
I-1
sg1071
I416
sbtp1901
sg303
(g1153
(idivisor
TwoPDivisor
p1902
(dp1903
g1070
I-1
sg1071
I476
sbtp1904
sg654
(g1067
(idivisor
TwoPDivisor
p1905
(dp1906
g1070
I-1
sg1071
I444
sbtp1907
sg547
(g1289
(idivisor
TwoPDivisor
p1908
(dp1909
g1070
I-1
sg1071
I421
sbtp1910
sg683
(g1339
(idivisor
TwoPDivisor
p1911
(dp1912
g1070
I-1
sg1071
I421
sbtp1913
sg671
(g1093
(idivisor
TwoPDivisor
p1914
(dp1915
g1070
I-1
sg1071
I448
sbtp1916
sg599
(g1119
(idivisor
TwoPDivisor
p1917
(dp1918
g1070
I-1
sg1071
I416
sbtp1919
sg591
(g1153
(idivisor
TwoPDivisor
p1920
(dp1921
g1070
I-1
sg1071
I458
sbtp1922
sg758
(g1143
(idivisor
TwoPDivisor
p1923
(dp1924
g1070
I-1
sg1071
I406
sbtp1925
sg309
(g1711
(idivisor
TwoPDivisor
p1926
(dp1927
g1070
I-1
sg1071
I405
sbtp1928
sg302
(g1093
(idivisor
TwoPDivisor
p1929
(dp1930
g1070
I-1
sg1071
I469
sbtp1931
sg813
(g1153
(idivisor
TwoPDivisor
p1932
(dp1933
g1070
I-1
sg1071
I441
sbtp1934
sg841
(g1153
(idivisor
TwoPDivisor
p1935
(dp1936
g1070
I-1
sg1071
I438
sbtp1937
sg914
(g1093
(idivisor
TwoPDivisor
p1938
(dp1939
g1070
I-1
sg1071
I425
sbtp1940
sg292
(g1393
(idivisor
TwoPDivisor
p1941
(dp1942
g1070
I-1
sg1071
I423
sbtp1943
sg514
(g1185
(idivisor
TwoPDivisor
p1944
(dp1945
g1070
I-1
sg1071
I467
sbtp1946
sg843
(g1124
(idivisor
TwoPDivisor
p1947
(dp1948
g1070
I-1
sg1071
I443
sbtp1949
sg66
(g1075
(idivisor
TwoPDivisor
p1950
(dp1951
g1070
I-1
sg1071
I431
sbtp1952
sg706
(g1393
(idivisor
TwoPDivisor
p1953
(dp1954
g1070
I-1
sg1071
I402
sbtp1955
sg178
(g1075
(idivisor
TwoPDivisor
p1956
(dp1957
g1070
I-1
sg1071
I428
sbtp1958
sg125
((idivisor
TwoPDivisor
p1959
(dp1960
g1070
I0
sg1071
I52
sb(idivisor
TwoPDivisor
p1961
(dp1962
g1070
I-1
sg1071
I402
sbtp1963
sg893
(g1093
(idivisor
TwoPDivisor
p1964
(dp1965
g1070
I-1
sg1071
I428
sbtp1966
sg126
(g1241
(idivisor
TwoPDivisor
p1967
(dp1968
g1070
I-1
sg1071
I403
sbtp1969
sg892
(g1067
(idivisor
TwoPDivisor
p1970
(dp1971
g1070
I-1
sg1071
I423
sbtp1972
sg359
(g1101
(idivisor
TwoPDivisor
p1973
(dp1974
g1070
I-1
sg1071
I402
sbtp1975
sg438
(g1080
(idivisor
TwoPDivisor
p1976
(dp1977
g1070
I-1
sg1071
I416
sbtp1978
sg142
(g1393
(idivisor
TwoPDivisor
p1979
(dp1980
g1070
I-1
sg1071
I428
sbtp1981
sg484
(g1143
(idivisor
TwoPDivisor
p1982
(dp1983
g1070
I-1
sg1071
I423
sbtp1984
sg718
(g1185
(idivisor
TwoPDivisor
p1985
(dp1986
g1070
I-1
sg1071
I452
sbtp1987
sg667
(g1339
(idivisor
TwoPDivisor
p1988
(dp1989
g1070
I-1
sg1071
I422
sbtp1990
sg970
(g1124
(idivisor
TwoPDivisor
p1991
(dp1992
g1070
I-1
sg1071
I426
sbtp1993
sg159
(g1185
(idivisor
TwoPDivisor
p1994
(dp1995
g1070
I-1
sg1071
I488
sbtp1996
sg1032
(g1124
(idivisor
TwoPDivisor
p1997
(dp1998
g1070
I-1
sg1071
I414
sbtp1999
sg575
(g1124
(idivisor
TwoPDivisor
p2000
(dp2001
g1070
I-1
sg1071
I464
sbtp2002
sg492
(g1153
(idivisor
TwoPDivisor
p2003
(dp2004
g1070
I-1
sg1071
I463
sbtp2005
sg493
(g1185
(idivisor
TwoPDivisor
p2006
(dp2007
g1070
I-1
sg1071
I468
sbtp2008
sg747
(g1289
(idivisor
TwoPDivisor
p2009
(dp2010
g1070
I-1
sg1071
I408
sbtp2011
sg520
(g1205
(idivisor
TwoPDivisor
p2012
(dp2013
g1070
I-1
sg1071
I406
sbtp2014
sg897
(g1135
(idivisor
TwoPDivisor
p2015
(dp2016
g1070
I-1
sg1071
I409
sbtp2017
sg848
(g1067
(idivisor
TwoPDivisor
p2018
(dp2019
g1070
I-1
sg1071
I428
sbtp2020
sg71
((idivisor
TwoPDivisor
p2021
(dp2022
g1070
I0
sg1071
I11
sb(idivisor
TwoPDivisor
p2023
(dp2024
g1070
I-1
sg1071
I445
sbtp2025
sg959
(g1106
(idivisor
TwoPDivisor
p2026
(dp2027
g1070
I-1
sg1071
I407
sbtp2028
sg881
(g1339
(idivisor
TwoPDivisor
p2029
(dp2030
g1070
I-1
sg1071
I403
sbtp2031
sg20
((idivisor
TwoPDivisor
p2032
(dp2033
g1070
I0
sg1071
I30
sb(idivisor
TwoPDivisor
p2034
(dp2035
g1070
I-1
sg1071
I427
sbtp2036
sg236
(g1114
(idivisor
TwoPDivisor
p2037
(dp2038
g1070
I-1
sg1071
I423
sbtp2039
sg75
(g1598
(idivisor
TwoPDivisor
p2040
(dp2041
g1070
I-1
sg1071
I453
sbtp2042
sg532
(g1067
(idivisor
TwoPDivisor
p2043
(dp2044
g1070
I-1
sg1071
I451
sbtp2045
sg528
(g1174
(idivisor
TwoPDivisor
p2046
(dp2047
g1070
I-1
sg1071
I429
sbtp2048
sg57
(g1258
(idivisor
TwoPDivisor
p2049
(dp2050
g1070
I-1
sg1071
I418
sbtp2051
sg650
(g1174
(idivisor
TwoPDivisor
p2052
(dp2053
g1070
I-1
sg1071
I422
sbtp2054
sg388
(g1148
(idivisor
TwoPDivisor
p2055
(dp2056
g1070
I-1
sg1071
I409
sbtp2057
sg117
(g1106
(idivisor
TwoPDivisor
p2058
(dp2059
g1070
I-1
sg1071
I462
sbtp2060
sg170
(g1284
(idivisor
TwoPDivisor
p2061
(dp2062
g1070
I-1
sg1071
I416
sbtp2063
sg787
(g1106
(idivisor
TwoPDivisor
p2064
(dp2065
g1070
I-1
sg1071
I428
sbtp2066
sg357
(g1185
(idivisor
TwoPDivisor
p2067
(dp2068
g1070
I-1
sg1071
I477
sbtp2069
sg139
(g1205
(idivisor
TwoPDivisor
p2070
(dp2071
g1070
I-1
sg1071
I421
sbtp2072
sg44
(g1185
(idivisor
TwoPDivisor
p2073
(dp2074
g1070
I-1
sg1071
I496
sbtp2075
sg957
(g1185
(idivisor
TwoPDivisor
p2076
(dp2077
g1070
I-1
sg1071
I426
sbtp2078
sg829
(g1106
(idivisor
TwoPDivisor
p2079
(dp2080
g1070
I-1
sg1071
I424
sbtp2081
sg908
(g1153
(idivisor
TwoPDivisor
p2082
(dp2083
g1070
I-1
sg1071
I430
sbtp2084
sg534
(g1153
(idivisor
TwoPDivisor
p2085
(dp2086
g1070
I-1
sg1071
I461
sbtp2087
sg346
(g1075
(idivisor
TwoPDivisor
p2088
(dp2089
g1070
I-1
sg1071
I422
sbtp2090
sg198
(g1101
(idivisor
TwoPDivisor
p2091
(dp2092
g1070
I-1
sg1071
I408
sbtp2093
sg544
(g1075
(idivisor
TwoPDivisor
p2094
(dp2095
g1070
I-1
sg1071
I413
sbtp2096
sg335
(g1711
(idivisor
TwoPDivisor
p2097
(dp2098
g1070
I-1
sg1071
I404
sbtp2099
sg932
(g1135
(idivisor
TwoPDivisor
p2100
(dp2101
g1070
I-1
sg1071
I404
sbtp2102
sg290
(g1114
(idivisor
TwoPDivisor
p2103
(dp2104
g1070
I-1
sg1071
I421
sbtp2105
sg919
(g1106
(idivisor
TwoPDivisor
p2106
(dp2107
g1070
I-1
sg1071
I413
sbtp2108
sg29
((idivisor
TwoPDivisor
p2109
(dp2110
g1070
I0
sg1071
I12
sb(idivisor
TwoPDivisor
p2111
(dp2112
g1070
I-1
sg1071
I445
sbtp2113
sg207
(g1114
(idivisor
TwoPDivisor
p2114
(dp2115
g1070
I-1
sg1071
I424
sbtp2116
sg286
(g1148
(idivisor
TwoPDivisor
p2117
(dp2118
g1070
I-1
sg1071
I413
sbtp2119
sg676
(g1080
(idivisor
TwoPDivisor
p2120
(dp2121
g1070
I-1
sg1071
I403
sbtp2122
sg283
(g1300
(idivisor
TwoPDivisor
p2123
(dp2124
g1070
I-1
sg1071
I407
sbtp2125
sg347
(g1119
(idivisor
TwoPDivisor
p2126
(dp2127
g1070
I-1
sg1071
I428
sbtp2128
sg785
(g1339
(idivisor
TwoPDivisor
p2129
(dp2130
g1070
I-1
sg1071
I413
sbtp2131
sg883
(g1106
(idivisor
TwoPDivisor
p2132
(dp2133
g1070
I-1
sg1071
I418
sbtp2134
sg828
(g1135
(idivisor
TwoPDivisor
p2135
(dp2136
g1070
I-1
sg1071
I417
sbtp2137
sg649
(g1289
(idivisor
TwoPDivisor
p2138
(dp2139
g1070
I-1
sg1071
I415
sbtp2140
sg84
(g1153
(idivisor
TwoPDivisor
p2141
(dp2142
g1070
I-1
sg1071
I487
sbtp2143
sg405
(g1153
(idivisor
TwoPDivisor
p2144
(dp2145
g1070
I-1
sg1071
I469
sbtp2146
sg320
(g1075
(idivisor
TwoPDivisor
p2147
(dp2148
g1070
I-1
sg1071
I423
sbtp2149
sg83
((idivisor
TwoPDivisor
p2150
(dp2151
g1070
I0
sg1071
I-30
sb(idivisor
TwoPDivisor
p2152
(dp2153
g1070
I-1
sg1071
I486
sbtp2154
sg531
(g1106
(idivisor
TwoPDivisor
p2155
(dp2156
g1070
I-1
sg1071
I445
sbtp2157
sg365
(g1088
(idivisor
TwoPDivisor
p2158
(dp2159
g1070
I-1
sg1071
I411
sbtp2160
sg984
(g1067
(idivisor
TwoPDivisor
p2161
(dp2162
g1070
I-1
sg1071
I409
sbtp2163
sg735
(g1289
(idivisor
TwoPDivisor
p2164
(dp2165
g1070
I-1
sg1071
I409
sbtp2166
sg1029
(g1093
(idivisor
TwoPDivisor
p2167
(dp2168
g1070
I-1
sg1071
I405
sbtp2169
sg576
(g1158
(idivisor
TwoPDivisor
p2170
(dp2171
g1070
I-1
sg1071
I402
sbtp2172
sg643
(g1114
(idivisor
TwoPDivisor
p2173
(dp2174
g1070
I-1
sg1071
I404
sbtp2175
sg53
(g1305
(idivisor
TwoPDivisor
p2176
(dp2177
g1070
I-1
sg1071
I411
sbtp2178
sg593
(g1124
(idivisor
TwoPDivisor
p2179
(dp2180
g1070
I-1
sg1071
I463
sbtp2181
sg895
(g1185
(idivisor
TwoPDivisor
p2182
(dp2183
g1070
I-1
sg1071
I435
sbtp2184
sg950
(g1153
(idivisor
TwoPDivisor
p2185
(dp2186
g1070
I-1
sg1071
I424
sbtp2187
sg854
(g1339
(idivisor
TwoPDivisor
p2188
(dp2189
g1070
I-1
sg1071
I406
sbtp2190
sg455
(g1088
(idivisor
TwoPDivisor
p2191
(dp2192
g1070
I-1
sg1071
I407
sbtp2193
sg74
((idivisor
TwoPDivisor
p2194
(dp2195
g1070
I0
sg1071
I4
sb(idivisor
TwoPDivisor
p2196
(dp2197
g1070
I-1
sg1071
I452
sbtp2198
sg809
(g1135
(idivisor
TwoPDivisor
p2199
(dp2200
g1070
I-1
sg1071
I419
sbtp2201
sg48
(g1959
(idivisor
TwoPDivisor
p2202
(dp2203
g1070
I-1
sg1071
I404
sbtp2204
sg720
(g1075
(idivisor
TwoPDivisor
p2205
(dp2206
g1070
I-1
sg1071
I402
sbtp2207
sg1007
(g1153
(idivisor
TwoPDivisor
p2208
(dp2209
g1070
I-1
sg1071
I414
sbtp2210
sg12
(g1305
(idivisor
TwoPDivisor
p2211
(dp2212
g1070
I-1
sg1071
I412
sbtp2213
sg698
(g1339
(idivisor
TwoPDivisor
p2214
(dp2215
g1070
I-1
sg1071
I420
sbtp2216
sg637
(g1106
(idivisor
TwoPDivisor
p2217
(dp2218
g1070
I-1
sg1071
I439
sbtp2219
sg423
(g1339
(idivisor
TwoPDivisor
p2220
(dp2221
g1070
I-1
sg1071
I435
sbtp2222
sg237
(g1080
(idivisor
TwoPDivisor
p2223
(dp2224
g1070
I-1
sg1071
I424
sbtp2225
sg794
(g1143
(idivisor
TwoPDivisor
p2226
(dp2227
g1070
I-1
sg1071
I403
sbtp2228
sg249
(g1153
(idivisor
TwoPDivisor
p2229
(dp2230
g1070
I-1
sg1071
I478
sbtp2231
sg936
(g1153
(idivisor
TwoPDivisor
p2232
(dp2233
g1070
I-1
sg1071
I426
sbtp2234
sg165
(g1305
(idivisor
TwoPDivisor
p2235
(dp2236
g1070
I-1
sg1071
I408
sbtp2237
sg465
(g1174
(idivisor
TwoPDivisor
p2238
(dp2239
g1070
I-1
sg1071
I432
sbtp2240
sg261
(g1158
(idivisor
TwoPDivisor
p2241
(dp2242
g1070
I-1
sg1071
I416
sbtp2243
sg745
(g1119
(idivisor
TwoPDivisor
p2244
(dp2245
g1070
I-1
sg1071
I406
sbtp2246
sg82
(g1093
(idivisor
TwoPDivisor
p2247
(dp2248
g1070
I-1
sg1071
I479
sbtp2249
sg609
(g1185
(idivisor
TwoPDivisor
p2250
(dp2251
g1070
I-1
sg1071
I460
sbtp2252
sg545
(g1119
(idivisor
TwoPDivisor
p2253
(dp2254
g1070
I-1
sg1071
I419
sbtp2255
sg684
(g1135
(idivisor
TwoPDivisor
p2256
(dp2257
g1070
I-1
sg1071
I429
sbtp2258
sg948
(g1067
(idivisor
TwoPDivisor
p2259
(dp2260
g1070
I-1
sg1071
I415
sbtp2261
sg703
(g1153
(idivisor
TwoPDivisor
p2262
(dp2263
g1070
I-1
sg1071
I450
sbtp2264
sg188
(g1106
(idivisor
TwoPDivisor
p2265
(dp2266
g1070
I-1
sg1071
I460
sbtp2267
sg151
(g1373
(idivisor
TwoPDivisor
p2268
(dp2269
g1070
I-1
sg1071
I452
sbtp2270
sg972
(g1067
(idivisor
TwoPDivisor
p2271
(dp2272
g1070
I-1
sg1071
I411
sbtp2273
sg786
(g1135
(idivisor
TwoPDivisor
p2274
(dp2275
g1070
I-1
sg1071
I421
sbtp2276
sg307
(g1305
(idivisor
TwoPDivisor
p2277
(dp2278
g1070
I-1
sg1071
I403
sbtp2279
sg805
(g1143
(idivisor
TwoPDivisor
p2280
(dp2281
g1070
I-1
sg1071
I402
sbtp2282
sg912
(g1106
(idivisor
TwoPDivisor
p2283
(dp2284
g1070
I-1
sg1071
I414
sbtp2285
sg407
(g1124
(idivisor
TwoPDivisor
p2286
(dp2287
g1070
I-1
sg1071
I477
sbtp2288
sg149
(g1339
(idivisor
TwoPDivisor
p2289
(dp2290
g1070
I-1
sg1071
I445
sbtp2291
sg350
(g1174
(idivisor
TwoPDivisor
p2292
(dp2293
g1070
I-1
sg1071
I437
sbtp2294
sg1009
(g1124
(idivisor
TwoPDivisor
p2295
(dp2296
g1070
I-1
sg1071
I419
sbtp2297
sg820
(g1106
(idivisor
TwoPDivisor
p2298
(dp2299
g1070
I-1
sg1071
I425
sbtp2300
sg334
(g1101
(idivisor
TwoPDivisor
p2301
(dp2302
g1070
I-1
sg1071
I403
sbtp2303
sg861
(g1124
(idivisor
TwoPDivisor
p2304
(dp2305
g1070
I-1
sg1071
I441
sbtp2306
sg30
(g2021
(idivisor
TwoPDivisor
p2307
(dp2308
g1070
I-1
sg1071
I446
sbtp2309
sg228
(g1711
(idivisor
TwoPDivisor
p2310
(dp2311
g1070
I-1
sg1071
I408
sbtp2312
sg367
(g1205
(idivisor
TwoPDivisor
p2313
(dp2314
g1070
I-1
sg1071
I413
sbtp2315
sg176
(g1080
(idivisor
TwoPDivisor
p2316
(dp2317
g1070
I-1
sg1071
I426
sbtp2318
sg342
(g1205
(idivisor
TwoPDivisor
p2319
(dp2320
g1070
I-1
sg1071
I414
sbtp2321
sg949
(g1093
(idivisor
TwoPDivisor
p2322
(dp2323
g1070
I-1
sg1071
I420
sbtp2324
sg939
(g1135
(idivisor
TwoPDivisor
p2325
(dp2326
g1070
I-1
sg1071
I403
sbtp2327
sg1051
(g1153
(idivisor
TwoPDivisor
p2328
(dp2329
g1070
I-1
sg1071
I403
sbtp2330
sg783
(g1289
(idivisor
TwoPDivisor
p2331
(dp2332
g1070
I-1
sg1071
I405
sbtp2333
sg267
(g1119
(idivisor
TwoPDivisor
p2334
(dp2335
g1070
I-1
sg1071
I431
sbtp2336
sg131
(g1101
(idivisor
TwoPDivisor
p2337
(dp2338
g1070
I-1
sg1071
I410
sbtp2339
sg701
(g1067
(idivisor
TwoPDivisor
p2340
(dp2341
g1070
I-1
sg1071
I441
sbtp2342
sg582
(g1119
(idivisor
TwoPDivisor
p2343
(dp2344
g1070
I-1
sg1071
I417
sbtp2345
sg863
(g1339
(idivisor
TwoPDivisor
p2346
(dp2347
g1070
I-1
sg1071
I405
sbtp2348
sg449
(g1093
(idivisor
TwoPDivisor
p2349
(dp2350
g1070
I-1
sg1071
I461
sbtp2351
sg571
(g1067
(idivisor
TwoPDivisor
p2352
(dp2353
g1070
I-1
sg1071
I449
sbtp2354
sg636
(g1135
(idivisor
TwoPDivisor
p2355
(dp2356
g1070
I-1
sg1071
I432
sbtp2357
sg647
(g1119
(idivisor
TwoPDivisor
p2358
(dp2359
g1070
I-1
sg1071
I413
sbtp2360
sg610
(g1124
(idivisor
TwoPDivisor
p2361
(dp2362
g1070
I-1
sg1071
I462
sbtp2363
sg156
(g1067
(idivisor
TwoPDivisor
p2364
(dp2365
g1070
I-1
sg1071
I469
sbtp2366
sg1014
(g1124
(idivisor
TwoPDivisor
p2367
(dp2368
g1070
I-1
sg1071
I418
sbtp2369
sg589
(g1067
(idivisor
TwoPDivisor
p2370
(dp2371
g1070
I-1
sg1071
I448
sbtp2372
sg25
((idivisor
TwoPDivisor
p2373
(dp2374
g1070
I0
sg1071
I21
sb(idivisor
TwoPDivisor
p2375
(dp2376
g1070
I-1
sg1071
I436
sbtp2377
sg208
(g1080
(idivisor
TwoPDivisor
p2378
(dp2379
g1070
I-1
sg1071
I425
sbtp2380
sg177
(g1393
(idivisor
TwoPDivisor
p2381
(dp2382
g1070
I-1
sg1071
I427
sbtp2383
sg876
(g1093
(idivisor
TwoPDivisor
p2384
(dp2385
g1070
I-1
sg1071
I430
sbtp2386
sg600
(g1143
(idivisor
TwoPDivisor
p2387
(dp2388
g1070
I-1
sg1071
I417
sbtp2389
sg414
(g1205
(idivisor
TwoPDivisor
p2390
(dp2391
g1070
I-1
sg1071
I411
sbtp2392
sg866
(g1067
(idivisor
TwoPDivisor
p2393
(dp2394
g1070
I-1
sg1071
I426
sbtp2395
sg363
(g1284
(idivisor
TwoPDivisor
p2396
(dp2397
g1070
I-1
sg1071
I409
sbtp2398
sg672
(g1153
(idivisor
TwoPDivisor
p2399
(dp2400
g1070
I-1
sg1071
I452
sbtp2401
sg238
(g1393
(idivisor
TwoPDivisor
p2402
(dp2403
g1070
I-1
sg1071
I425
sbtp2404
sg704
(g1185
(idivisor
TwoPDivisor
p2405
(dp2406
g1070
I-1
sg1071
I453
sbtp2407
sg563
(g1075
(idivisor
TwoPDivisor
p2408
(dp2409
g1070
I-1
sg1071
I412
sbtp2410
sg234
(g1158
(idivisor
TwoPDivisor
p2411
(dp2412
g1070
I-1
sg1071
I417
sbtp2413
sg997
(g1153
(idivisor
TwoPDivisor
p2414
(dp2415
g1070
I-1
sg1071
I416
sbtp2416
sg755
(g1185
(idivisor
TwoPDivisor
p2417
(dp2418
g1070
I-1
sg1071
I449
sbtp2419
sg203
(g1148
(idivisor
TwoPDivisor
p2420
(dp2421
g1070
I-1
sg1071
I416
sbtp2422
sg18
(g1158
(idivisor
TwoPDivisor
p2423
(dp2424
g1070
I-1
sg1071
I423
sbtp2425
sg289
(g1205
(idivisor
TwoPDivisor
p2426
(dp2427
g1070
I-1
sg1071
I416
sbtp2428
sg340
(g1088
(idivisor
TwoPDivisor
p2429
(dp2430
g1070
I-1
sg1071
I412
sbtp2431
sg543
(g1393
(idivisor
TwoPDivisor
p2432
(dp2433
g1070
I-1
sg1071
I412
sbtp2434
sg746
(g1143
(idivisor
TwoPDivisor
p2435
(dp2436
g1070
I-1
sg1071
I407
sbtp2437
sg281
(g1101
(idivisor
TwoPDivisor
p2438
(dp2439
g1070
I-1
sg1071
I405
sbtp2440
sg739
(g1106
(idivisor
TwoPDivisor
p2441
(dp2442
g1070
I-1
sg1071
I432
sbtp2443
sg969
(g1185
(idivisor
TwoPDivisor
p2444
(dp2445
g1070
I-1
sg1071
I424
sbtp2446
sg1003
(g1185
(idivisor
TwoPDivisor
p2447
(dp2448
g1070
I-1
sg1071
I418
sbtp2449
sg837
(g1135
(idivisor
TwoPDivisor
p2450
(dp2451
g1070
I-1
sg1071
I416
sbtp2452
sg966
(g1067
(idivisor
TwoPDivisor
p2453
(dp2454
g1070
I-1
sg1071
I412
sbtp2455
sg448
(g1067
(idivisor
TwoPDivisor
p2456
(dp2457
g1070
I-1
sg1071
I455
sbtp2458
sg918
(g1135
(idivisor
TwoPDivisor
p2459
(dp2460
g1070
I-1
sg1071
I406
sbtp2461
sg670
(g1067
(idivisor
TwoPDivisor
p2462
(dp2463
g1070
I-1
sg1071
I443
sbtp2464
sg355
(g1093
(idivisor
TwoPDivisor
p2465
(dp2466
g1070
I-1
sg1071
I467
sbtp2467
sg212
(g1143
(idivisor
TwoPDivisor
p2468
(dp2469
g1070
I-1
sg1071
I434
sbtp2470
sg1046
(g1185
(idivisor
TwoPDivisor
p2471
(dp2472
g1070
I-1
sg1071
I408
sbtp2473
sg815
(g1124
(idivisor
TwoPDivisor
p2474
(dp2475
g1070
I-1
sg1071
I446
sbtp2476
sg135
(g1284
(idivisor
TwoPDivisor
p2477
(dp2478
g1070
I-1
sg1071
I417
sbtp2479
sg490
(g1067
(idivisor
TwoPDivisor
p2480
(dp2481
g1070
I-1
sg1071
I453
sbtp2482
sg564
(g1119
(idivisor
TwoPDivisor
p2483
(dp2484
g1070
I-1
sg1071
I418
sbtp2485
sg199
(g1711
(idivisor
TwoPDivisor
p2486
(dp2487
g1070
I-1
sg1071
I409
sbtp2488
sg91
(g1319
(idivisor
TwoPDivisor
p2489
(dp2490
g1070
I-1
sg1071
I406
sbtp2491
sg540
(g1205
(idivisor
TwoPDivisor
p2492
(dp2493
g1070
I-1
sg1071
I405
sbtp2494
sg1042
(g1153
(idivisor
TwoPDivisor
p2495
(dp2496
g1070
I-1
sg1071
I406
sbtp2497
sg255
(g1711
(idivisor
TwoPDivisor
p2498
(dp2499
g1070
I-1
sg1071
I407
sbtp2500
sg250
(g1185
(idivisor
TwoPDivisor
p2501
(dp2502
g1070
I-1
sg1071
I485
sbtp2503
sg351
(g1339
(idivisor
TwoPDivisor
p2504
(dp2505
g1070
I-1
sg1071
I438
sbtp2506
sg1044
(g1124
(idivisor
TwoPDivisor
p2507
(dp2508
g1070
I-1
sg1071
I411
sbtp2509
sg651
(g1339
(idivisor
TwoPDivisor
p2510
(dp2511
g1070
I-1
sg1071
I423
sbtp2512
sg54
(g1101
(idivisor
TwoPDivisor
p2513
(dp2514
g1070
I-1
sg1071
I412
sbtp2515
sg961
(g1093
(idivisor
TwoPDivisor
p2516
(dp2517
g1070
I-1
sg1071
I418
sbtp2518
sg868
(g1153
(idivisor
TwoPDivisor
p2519
(dp2520
g1070
I-1
sg1071
I435
sbtp2521
sg146
(g1289
(idivisor
TwoPDivisor
p2522
(dp2523
g1070
I-1
sg1071
I437
sbtp2524
sg553
(g1093
(idivisor
TwoPDivisor
p2525
(dp2526
g1070
I-1
sg1071
I455
sbtp2527
sg577
(g1205
(idivisor
TwoPDivisor
p2528
(dp2529
g1070
I-1
sg1071
I403
sbtp2530
sg341
(g1158
(idivisor
TwoPDivisor
p2531
(dp2532
g1070
I-1
sg1071
I413
sbtp2533
sg418
(g1075
(idivisor
TwoPDivisor
p2534
(dp2535
g1070
I-1
sg1071
I419
sbtp2536
sg87
(g1615
(idivisor
TwoPDivisor
p2537
(dp2538
g1070
I-1
sg1071
I402
sbtp2539
sg150
(g1598
(idivisor
TwoPDivisor
p2540
(dp2541
g1070
I-1
sg1071
I451
sbtp2542
sg996
(g1093
(idivisor
TwoPDivisor
p2543
(dp2544
g1070
I-1
sg1071
I412
sbtp2545
sg995
(g1067
(idivisor
TwoPDivisor
p2546
(dp2547
g1070
I-1
sg1071
I407
sbtp2548
sg58
(g1284
(idivisor
TwoPDivisor
p2549
(dp2550
g1070
I-1
sg1071
I419
sbtp2551
sg256
(g1300
(idivisor
TwoPDivisor
p2552
(dp2553
g1070
I-1
sg1071
I408
sbtp2554
sg1047
(g1124
(idivisor
TwoPDivisor
p2555
(dp2556
g1070
I-1
sg1071
I410
sbtp2557
sg59
(g1148
(idivisor
TwoPDivisor
p2558
(dp2559
g1070
I-1
sg1071
I420
sbtp2560
sg933
(g1106
(idivisor
TwoPDivisor
p2561
(dp2562
g1070
I-1
sg1071
I411
sbtp2563
sg89
(g1241
(idivisor
TwoPDivisor
p2564
(dp2565
g1070
I-1
sg1071
I404
sbtp2566
sg988
(g1124
(idivisor
TwoPDivisor
p2567
(dp2568
g1070
I-1
sg1071
I423
sbtp2569
sg473
(g1124
(idivisor
TwoPDivisor
p2570
(dp2571
g1070
I-1
sg1071
I471
sbtp2572
sg216
(g1373
(idivisor
TwoPDivisor
p2573
(dp2574
g1070
I-1
sg1071
I450
sbtp2575
sg38
(g1638
(idivisor
TwoPDivisor
p2576
(dp2577
g1070
I-1
sg1071
I471
sbtp2578
sg730
(g1153
(idivisor
TwoPDivisor
p2579
(dp2580
g1070
I-1
sg1071
I448
sbtp2581
sg276
(g1153
(idivisor
TwoPDivisor
p2582
(dp2583
g1070
I-1
sg1071
I477
sbtp2584
sg653
(g1106
(idivisor
TwoPDivisor
p2585
(dp2586
g1070
I-1
sg1071
I438
sbtp2587
sg1027
(g1185
(idivisor
TwoPDivisor
p2588
(dp2589
g1070
I-1
sg1071
I413
sbtp2590
sg184
(g1339
(idivisor
TwoPDivisor
p2591
(dp2592
g1070
I-1
sg1071
I444
sbtp2593
sg378
(g1106
(idivisor
TwoPDivisor
p2594
(dp2595
g1070
I-1
sg1071
I452
sbtp2596
sg594
(g1205
(idivisor
TwoPDivisor
p2597
(dp2598
g1070
I-1
sg1071
I402
sbtp2599
sg842
(g1185
(idivisor
TwoPDivisor
p2600
(dp2601
g1070
I-1
sg1071
I441
sbtp2602
sg288
(g1158
(idivisor
TwoPDivisor
p2603
(dp2604
g1070
I-1
sg1071
I415
sbtp2605
sg78
(g1106
(idivisor
TwoPDivisor
p2606
(dp2607
g1070
I-1
sg1071
I463
sbtp2608
sg926
(g1106
(idivisor
TwoPDivisor
p2609
(dp2610
g1070
I-1
sg1071
I412
sbtp2611
sg63
(g1114
(idivisor
TwoPDivisor
p2612
(dp2613
g1070
I-1
sg1071
I428
sbtp2614
sg445
(g1339
(idivisor
TwoPDivisor
p2615
(dp2616
g1070
I-1
sg1071
I434
sbtp2617
sg982
(g1124
(idivisor
TwoPDivisor
p2618
(dp2619
g1070
I-1
sg1071
I424
sbtp2620
sg353
(g1106
(idivisor
TwoPDivisor
p2621
(dp2622
g1070
I-1
sg1071
I453
sbtp2623
sg523
(g1393
(idivisor
TwoPDivisor
p2624
(dp2625
g1070
I-1
sg1071
I413
sbtp2626
sg233
(g1088
(idivisor
TwoPDivisor
p2627
(dp2628
g1070
I-1
sg1071
I416
sbtp2629
sg429
(g1185
(idivisor
TwoPDivisor
p2630
(dp2631
g1070
I-1
sg1071
I471
sbtp2632
sg891
(g1106
(idivisor
TwoPDivisor
p2633
(dp2634
g1070
I-1
sg1071
I417
sbtp2635
sg812
(g1093
(idivisor
TwoPDivisor
p2636
(dp2637
g1070
I-1
sg1071
I437
sbtp2638
sg946
(g1135
(idivisor
TwoPDivisor
p2639
(dp2640
g1070
I-1
sg1071
I402
sbtp2641
sg845
(g1339
(idivisor
TwoPDivisor
p2642
(dp2643
g1070
I-1
sg1071
I407
sbtp2644
sg1039
(g1185
(idivisor
TwoPDivisor
p2645
(dp2646
g1070
I-1
sg1071
I410
sbtp2647
sg60
(g1158
(idivisor
TwoPDivisor
p2648
(dp2649
g1070
I-1
sg1071
I422
sbtp2650
sg21
(g1404
(idivisor
TwoPDivisor
p2651
(dp2652
g1070
I-1
sg1071
I428
sbtp2653
sg153
(g1655
(idivisor
TwoPDivisor
p2654
(dp2655
g1070
I-1
sg1071
I460
sbtp2656
sg376
(g1339
(idivisor
TwoPDivisor
p2657
(dp2658
g1070
I-1
sg1071
I437
sbtp2659
sg278
(g1124
(idivisor
TwoPDivisor
p2660
(dp2661
g1070
I-1
sg1071
I486
sbtp2662
sg663
(g1119
(idivisor
TwoPDivisor
p2663
(dp2664
g1070
I-1
sg1071
I412
sbtp2665
sg420
(g1143
(idivisor
TwoPDivisor
p2666
(dp2667
g1070
I-1
sg1071
I426
sbtp2668
sg171
(g1148
(idivisor
TwoPDivisor
p2669
(dp2670
g1070
I-1
sg1071
I417
sbtp2671
sg773
(g1339
(idivisor
TwoPDivisor
p2672
(dp2673
g1070
I-1
sg1071
I414
sbtp2674
sg595
(g1114
(idivisor
TwoPDivisor
p2675
(dp2676
g1070
I-1
sg1071
I407
sbtp2677
sg754
(g1153
(idivisor
TwoPDivisor
p2678
(dp2679
g1070
I-1
sg1071
I446
sbtp2680
sg744
(g1124
(idivisor
TwoPDivisor
p2681
(dp2682
g1070
I-1
sg1071
I452
sbtp2683
sg721
(g1119
(idivisor
TwoPDivisor
p2684
(dp2685
g1070
I-1
sg1071
I408
sbtp2686
sg681
(g1289
(idivisor
TwoPDivisor
p2687
(dp2688
g1070
I-1
sg1071
I413
sbtp2689
sg137
(g1088
(idivisor
TwoPDivisor
p2690
(dp2691
g1070
I-1
sg1071
I419
sbtp2692
sg775
(g1106
(idivisor
TwoPDivisor
p2693
(dp2694
g1070
I-1
sg1071
I429
sbtp2695
sg364
(g1148
(idivisor
TwoPDivisor
p2696
(dp2697
g1070
I-1
sg1071
I410
sbtp2698
sg266
(g1075
(idivisor
TwoPDivisor
p2699
(dp2700
g1070
I-1
sg1071
I425
sbtp2701
sg1013
(g1185
(idivisor
TwoPDivisor
p2702
(dp2703
g1070
I-1
sg1071
I416
sbtp2704
sg499
(g1205
(idivisor
TwoPDivisor
p2705
(dp2706
g1070
I-1
sg1071
I407
sbtp2707
sg708
(g1119
(idivisor
TwoPDivisor
p2708
(dp2709
g1070
I-1
sg1071
I409
sbtp2710
sg311
(g1233
(idivisor
TwoPDivisor
p2711
(dp2712
g1070
I-1
sg1071
I407
sbtp2713
sg242
(g1289
(idivisor
TwoPDivisor
p2714
(dp2715
g1070
I-1
sg1071
I434
sbtp2716
sg729
(g1093
(idivisor
TwoPDivisor
p2717
(dp2718
g1070
I-1
sg1071
I444
sbtp2719
sg728
(g1067
(idivisor
TwoPDivisor
p2720
(dp2721
g1070
I-1
sg1071
I439
sbtp2722
sg929
(g1153
(idivisor
TwoPDivisor
p2723
(dp2724
g1070
I-1
sg1071
I427
sbtp2725
sg399
(g1174
(idivisor
TwoPDivisor
p2726
(dp2727
g1070
I-1
sg1071
I435
sbtp2728
sg606
(g1067
(idivisor
TwoPDivisor
p2729
(dp2730
g1070
I-1
sg1071
I447
sbtp2731
sg862
(g1174
(idivisor
TwoPDivisor
p2732
(dp2733
g1070
I-1
sg1071
I404
sbtp2734
sg361
(g1300
(idivisor
TwoPDivisor
p2735
(dp2736
g1070
I-1
sg1071
I404
sbtp2737
sg1016
(g1093
(idivisor
TwoPDivisor
p2738
(dp2739
g1070
I-1
sg1071
I408
sbtp2740
sg561
(g1080
(idivisor
TwoPDivisor
p2741
(dp2742
g1070
I-1
sg1071
I410
sbtp2743
sg333
(g1305
(idivisor
TwoPDivisor
p2744
(dp2745
g1070
I-1
sg1071
I402
sbtp2746
sg374
(g1289
(idivisor
TwoPDivisor
p2747
(dp2748
g1070
I-1
sg1071
I429
sbtp2749
sg852
(g1124
(idivisor
TwoPDivisor
p2750
(dp2751
g1070
I-1
sg1071
I442
sbtp2752
sg287
(g1088
(idivisor
TwoPDivisor
p2753
(dp2754
g1070
I-1
sg1071
I414
sbtp2755
sg635
(g1339
(idivisor
TwoPDivisor
p2756
(dp2757
g1070
I-1
sg1071
I424
sbtp2758
sg313
(g1148
(idivisor
TwoPDivisor
p2759
(dp2760
g1070
I-1
sg1071
I412
sbtp2761
sg264
(g1080
(idivisor
TwoPDivisor
p2762
(dp2763
g1070
I-1
sg1071
I423
sbtp2764
sg579
(g1080
(idivisor
TwoPDivisor
p2765
(dp2766
g1070
I-1
sg1071
I409
sbtp2767
sg985
(g1093
(idivisor
TwoPDivisor
p2768
(dp2769
g1070
I-1
sg1071
I414
sbtp2770
sg375
(g1174
(idivisor
TwoPDivisor
p2771
(dp2772
g1070
I-1
sg1071
I436
sbtp2773
sg661
(g1393
(idivisor
TwoPDivisor
p2774
(dp2775
g1070
I-1
sg1071
I405
sbtp2776
sg487
(g1339
(idivisor
TwoPDivisor
p2777
(dp2778
g1070
I-1
sg1071
I432
sbtp2779
sg978
(g1067
(idivisor
TwoPDivisor
p2780
(dp2781
g1070
I-1
sg1071
I410
sbtp2782
sg217
(g1135
(idivisor
TwoPDivisor
p2783
(dp2784
g1070
I-1
sg1071
I451
sbtp2785
sg111
(g1174
(idivisor
TwoPDivisor
p2786
(dp2787
g1070
I-1
sg1071
I445
sbtp2788
sg956
(g1153
(idivisor
TwoPDivisor
p2789
(dp2790
g1070
I-1
sg1071
I423
sbtp2791
sg123
(g1185
(idivisor
TwoPDivisor
p2792
(dp2793
g1070
I-1
sg1071
I494
sbtp2794
sg451
(g1185
(idivisor
TwoPDivisor
p2795
(dp2796
g1070
I-1
sg1071
I470
sbtp2797
sg570
(g1106
(idivisor
TwoPDivisor
p2798
(dp2799
g1070
I-1
sg1071
I443
sbtp2800
sg771
(g1289
(idivisor
TwoPDivisor
p2801
(dp2802
g1070
I-1
sg1071
I406
sbtp2803
sg497
(g1088
(idivisor
TwoPDivisor
p2804
(dp2805
g1070
I-1
sg1071
I405
sbtp2806
sg578
(g1114
(idivisor
TwoPDivisor
p2807
(dp2808
g1070
I-1
sg1071
I408
sbtp2809
sg833
(g1185
(idivisor
TwoPDivisor
p2810
(dp2811
g1070
I-1
sg1071
I442
sbtp2812
sg1036
(g1124
(idivisor
TwoPDivisor
p2813
(dp2814
g1070
I-1
sg1071
I413
sbtp2815
sg343
(g1114
(idivisor
TwoPDivisor
p2816
(dp2817
g1070
I-1
sg1071
I419
sbtp2818
sg37
((idivisor
TwoPDivisor
p2819
(dp2820
g1070
I0
sg1071
I-13
sb(idivisor
TwoPDivisor
p2821
(dp2822
g1070
I-1
sg1071
I470
sbtp2823
sg885
(g1093
(idivisor
TwoPDivisor
p2824
(dp2825
g1070
I-1
sg1071
I429
sbtp2826
sg70
(g2109
(idivisor
TwoPDivisor
p2827
(dp2828
g1070
I-1
sg1071
I444
sbtp2829
sg306
(g1169
(idivisor
TwoPDivisor
p2830
(dp2831
g1070
I-1
sg1071
I402
sbtp2832
sg710
(g1289
(idivisor
TwoPDivisor
p2833
(dp2834
g1070
I-1
sg1071
I411
sbtp2835
sg1050
(g1124
(idivisor
TwoPDivisor
p2836
(dp2837
g1070
I-1
sg1071
I409
sbtp2838
sg315
(g1158
(idivisor
TwoPDivisor
p2839
(dp2840
g1070
I-1
sg1071
I414
sbtp2841
sg121
(g1093
(idivisor
TwoPDivisor
p2842
(dp2843
g1070
I-1
sg1071
I478
sbtp2844
sg714
(g1106
(idivisor
TwoPDivisor
p2845
(dp2846
g1070
I-1
sg1071
I434
sbtp2847
sg821
(g1067
(idivisor
TwoPDivisor
p2848
(dp2849
g1070
I-1
sg1071
I431
sbtp2850
sg6
(g1615
(idivisor
TwoPDivisor
p2851
(dp2852
g1070
I-1
sg1071
I404
sbtp2853
sg443
(g1289
(idivisor
TwoPDivisor
p2854
(dp2855
g1070
I-1
sg1071
I426
sbtp2856
sg366
(g1158
(idivisor
TwoPDivisor
p2857
(dp2858
g1070
I-1
sg1071
I412
sbtp2859
sg774
(g1135
(idivisor
TwoPDivisor
p2860
(dp2861
g1070
I-1
sg1071
I422
sbtp2862
sg227
(g1101
(idivisor
TwoPDivisor
p2863
(dp2864
g1070
I-1
sg1071
I407
sbtp2865
sg657
(g1185
(idivisor
TwoPDivisor
p2866
(dp2867
g1070
I-1
sg1071
I456
sbtp2868
sg336
(g1300
(idivisor
TwoPDivisor
p2869
(dp2870
g1070
I-1
sg1071
I405
sbtp2871
sg386
(g1233
(idivisor
TwoPDivisor
p2872
(dp2873
g1070
I-1
sg1071
I404
sbtp2874
sg660
(g1080
(idivisor
TwoPDivisor
p2875
(dp2876
g1070
I-1
sg1071
I404
sbtp2877
sg381
(g1153
(idivisor
TwoPDivisor
p2878
(dp2879
g1070
I-1
sg1071
I470
sbtp2880
sg299
(g1135
(idivisor
TwoPDivisor
p2881
(dp2882
g1070
I-1
sg1071
I448
sbtp2883
sg486
(g1174
(idivisor
TwoPDivisor
p2884
(dp2885
g1070
I-1
sg1071
I431
sbtp2886
sg110
(g2021
(idivisor
TwoPDivisor
p2887
(dp2888
g1070
I-1
sg1071
I444
sbtp2889
sg799
(g1106
(idivisor
TwoPDivisor
p2890
(dp2891
g1070
I-1
sg1071
I427
sbtp2892
sg1028
(g1124
(idivisor
TwoPDivisor
p2893
(dp2894
g1070
I-1
sg1071
I415
sbtp2895
sg691
(g1080
(idivisor
TwoPDivisor
p2896
(dp2897
g1070
I-1
sg1071
I402
sbtp2898
sg221
(g1153
(idivisor
TwoPDivisor
p2899
(dp2900
g1070
I-1
sg1071
I479
sbtp2901
sg262
(g1205
(idivisor
TwoPDivisor
p2902
(dp2903
g1070
I-1
sg1071
I417
sbtp2904
sg204
(g1088
(idivisor
TwoPDivisor
p2905
(dp2906
g1070
I-1
sg1071
I417
sbtp2907
sg604
(g1135
(idivisor
TwoPDivisor
p2908
(dp2909
g1070
I-1
sg1071
I434
sbtp2910
sg1000
(g1067
(idivisor
TwoPDivisor
p2911
(dp2912
g1070
I-1
sg1071
I406
sbtp2913
sg530
(g1135
(idivisor
TwoPDivisor
p2914
(dp2915
g1070
I-1
sg1071
I438
sbtp2916
sg41
(g1093
(idivisor
TwoPDivisor
p2917
(dp2918
g1070
I-1
sg1071
I480
sbtp2919
sg387
(g1284
(idivisor
TwoPDivisor
p2920
(dp2921
g1070
I-1
sg1071
I408
sbtp2922
sg737
(g1339
(idivisor
TwoPDivisor
p2923
(dp2924
g1070
I-1
sg1071
I417
sbtp2925
sg567
(g1174
(idivisor
TwoPDivisor
p2926
(dp2927
g1070
I-1
sg1071
I427
sbtp2928
sg937
(g1185
(idivisor
TwoPDivisor
p2929
(dp2930
g1070
I-1
sg1071
I429
sbtp2931
sg476
(g1088
(idivisor
TwoPDivisor
p2932
(dp2933
g1070
I-1
sg1071
I406
sbtp2934
sg925
(g1135
(idivisor
TwoPDivisor
p2935
(dp2936
g1070
I-1
sg1071
I405
sbtp2937
sg1018
(g1185
(idivisor
TwoPDivisor
p2938
(dp2939
g1070
I-1
sg1071
I415
sbtp2940
sg1008
(g1185
(idivisor
TwoPDivisor
p2941
(dp2942
g1070
I-1
sg1071
I417
sbtp2943
sg321
(g1119
(idivisor
TwoPDivisor
p2944
(dp2945
g1070
I-1
sg1071
I429
sbtp2946
sg804
(g1124
(idivisor
TwoPDivisor
p2947
(dp2948
g1070
I-1
sg1071
I447
sbtp2949
sg369
(g1080
(idivisor
TwoPDivisor
p2950
(dp2951
g1070
I-1
sg1071
I419
sbtp2952
sg702
(g1093
(idivisor
TwoPDivisor
p2953
(dp2954
g1070
I-1
sg1071
I446
sbtp2955
sg724
(g1174
(idivisor
TwoPDivisor
p2956
(dp2957
g1070
I-1
sg1071
I417
sbtp2958
sg1031
(g1185
(idivisor
TwoPDivisor
p2959
(dp2960
g1070
I-1
sg1071
I412
sbtp2961
sg573
(g1153
(idivisor
TwoPDivisor
p2962
(dp2963
g1070
I-1
sg1071
I459
sbtp2964
sg432
(g1284
(idivisor
TwoPDivisor
p2965
(dp2966
g1070
I-1
sg1071
I406
sbtp2967
sg572
(g1093
(idivisor
TwoPDivisor
p2968
(dp2969
g1070
I-1
sg1071
I454
sbtp2970
sg382
(g1185
(idivisor
TwoPDivisor
p2971
(dp2972
g1070
I-1
sg1071
I476
sbtp2973
sg325
(g1339
(idivisor
TwoPDivisor
p2974
(dp2975
g1070
I-1
sg1071
I439
sbtp2976
sg870
(g1124
(idivisor
TwoPDivisor
p2977
(dp2978
g1070
I-1
sg1071
I440
sbtp2979
sg807
(g1174
(idivisor
TwoPDivisor
p2980
(dp2981
g1070
I-1
sg1071
I410
sbtp2982
sg417
(g1393
(idivisor
TwoPDivisor
p2983
(dp2984
g1070
I-1
sg1071
I418
sbtp2985
sg304
(g1185
(idivisor
TwoPDivisor
p2986
(dp2987
g1070
I-1
sg1071
I479
sbtp2988
sg550
(g1135
(idivisor
TwoPDivisor
p2989
(dp2990
g1070
I-1
sg1071
I437
sbtp2991
sg548
(g1174
(idivisor
TwoPDivisor
p2992
(dp2993
g1070
I-1
sg1071
I428
sbtp2994
sg810
(g1106
(idivisor
TwoPDivisor
p2995
(dp2996
g1070
I-1
sg1071
I426
sbtp2997
sg958
(g1124
(idivisor
TwoPDivisor
p2998
(dp2999
g1070
I-1
sg1071
I428
sbtp3000
sg527
(g1289
(idivisor
TwoPDivisor
p3001
(dp3002
g1070
I-1
sg1071
I422
sbtp3003
sg502
(g1393
(idivisor
TwoPDivisor
p3004
(dp3005
g1070
I-1
sg1071
I414
sbtp3006
sg7
(g1959
(idivisor
TwoPDivisor
p3007
(dp3008
g1070
I-1
sg1071
I405
sbtp3009
sg260
(g1088
(idivisor
TwoPDivisor
p3010
(dp3011
g1070
I-1
sg1071
I415
sbtp3012
sg494
(g1124
(idivisor
TwoPDivisor
p3013
(dp3014
g1070
I-1
sg1071
I470
sbtp3015
sg685
(g1106
(idivisor
TwoPDivisor
p3016
(dp3017
g1070
I-1
sg1071
I436
sbtp3018
sg975
(g1185
(idivisor
TwoPDivisor
p3019
(dp3020
g1070
I-1
sg1071
I423
sbtp3021
sg500
(g1114
(idivisor
TwoPDivisor
p3022
(dp3023
g1070
I-1
sg1071
I412
sbtp3024
sg275
(g1093
(idivisor
TwoPDivisor
p3025
(dp3026
g1070
I-1
sg1071
I470
sbtp3027
sg168
(g1300
(idivisor
TwoPDivisor
p3028
(dp3029
g1070
I-1
sg1071
I411
sbtp3030
sg769
(g1119
(idivisor
TwoPDivisor
p3031
(dp3032
g1070
I-1
sg1071
I404
sbtp3033
sg130
(g1305
(idivisor
TwoPDivisor
p3034
(dp3035
g1070
I-1
sg1071
I409
sbtp3036
sg847
(g1106
(idivisor
TwoPDivisor
p3037
(dp3038
g1070
I-1
sg1071
I422
sbtp3039
sg119
(g1067
(idivisor
TwoPDivisor
p3040
(dp3041
g1070
I-1
sg1071
I470
sbtp3042
sg1023
(g1185
(idivisor
TwoPDivisor
p3043
(dp3044
g1070
I-1
sg1071
I414
sbtp3045
sg856
(g1106
(idivisor
TwoPDivisor
p3046
(dp3047
g1070
I-1
sg1071
I421
sbtp3048
sg461
(g1075
(idivisor
TwoPDivisor
p3049
(dp3050
g1070
I-1
sg1071
I417
sbtp3051
sg42
(g2150
(idivisor
TwoPDivisor
p3052
(dp3053
g1070
I-1
sg1071
I487
sbtp3054
sg223
(g1124
(idivisor
TwoPDivisor
p3055
(dp3056
g1070
I-1
sg1071
I488
sbtp3057
sg90
(g1344
(idivisor
TwoPDivisor
p3058
(dp3059
g1070
I-1
sg1071
I405
sbtp3060
sg585
(g1174
(idivisor
TwoPDivisor
p3061
(dp3062
g1070
I-1
sg1071
I426
sbtp3063
sg282
(g1711
(idivisor
TwoPDivisor
p3064
(dp3065
g1070
I-1
sg1071
I406
sbtp3066
sg265
(g1393
(idivisor
TwoPDivisor
p3067
(dp3068
g1070
I-1
sg1071
I424
sbtp3069
sg1020
(g1067
(idivisor
TwoPDivisor
p3070
(dp3071
g1070
I-1
sg1071
I402
sbtp3072
sg1002
(g1153
(idivisor
TwoPDivisor
p3073
(dp3074
g1070
I-1
sg1071
I415
sbtp3075
sg406
(g1185
(idivisor
TwoPDivisor
p3076
(dp3077
g1070
I-1
sg1071
I472
sbtp3078
sg666
(g1174
(idivisor
TwoPDivisor
p3079
(dp3080
g1070
I-1
sg1071
I421
sbtp3081
sg308
(g1101
(idivisor
TwoPDivisor
p3082
(dp3083
g1070
I-1
sg1071
I404
sbtp3084
sg762
(g1135
(idivisor
TwoPDivisor
p3085
(dp3086
g1070
I-1
sg1071
I423
sbtp3087
sg791
(g1185
(idivisor
TwoPDivisor
p3088
(dp3089
g1070
I-1
sg1071
I446
sbtp3090
sg447
(g1106
(idivisor
TwoPDivisor
p3091
(dp3092
g1070
I-1
sg1071
I449
sbtp3093
sg482
(g1075
(idivisor
TwoPDivisor
p3094
(dp3095
g1070
I-1
sg1071
I416
sbtp3096
sg986
(g1153
(idivisor
TwoPDivisor
p3097
(dp3098
g1070
I-1
sg1071
I418
sbtp3099
sg541
(g1114
(idivisor
TwoPDivisor
p3100
(dp3101
g1070
I-1
sg1071
I410
sbtp3102
sg733
(g1119
(idivisor
TwoPDivisor
p3103
(dp3104
g1070
I-1
sg1071
I407
sbtp3105
sg300
(g1106
(idivisor
TwoPDivisor
p3106
(dp3107
g1070
I-1
sg1071
I455
sbtp3108
sg385
(g1300
(idivisor
TwoPDivisor
p3109
(dp3110
g1070
I-1
sg1071
I403
sbtp3111
sg241
(g1143
(idivisor
TwoPDivisor
p3112
(dp3113
g1070
I-1
sg1071
I433
sbtp3114
sg538
(g1088
(idivisor
TwoPDivisor
p3115
(dp3116
g1070
I-1
sg1071
I403
sbtp3117
sg427
(g1093
(idivisor
TwoPDivisor
p3118
(dp3119
g1070
I-1
sg1071
I462
sbtp3120
sg788
(g1067
(idivisor
TwoPDivisor
p3121
(dp3122
g1070
I-1
sg1071
I434
sbtp3123
sg601
(g1289
(idivisor
TwoPDivisor
p3124
(dp3125
g1070
I-1
sg1071
I418
sbtp3126
sg940
(g1106
(idivisor
TwoPDivisor
p3127
(dp3128
g1070
I-1
sg1071
I410
sbtp3129
sg118
(g1638
(idivisor
TwoPDivisor
p3130
(dp3131
g1070
I-1
sg1071
I469
sbtp3132
sg669
(g1106
(idivisor
TwoPDivisor
p3133
(dp3134
g1070
I-1
sg1071
I437
sbtp3135
sg88
(g1959
(idivisor
TwoPDivisor
p3136
(dp3137
g1070
I-1
sg1071
I403
sbtp3138
sg1017
(g1153
(idivisor
TwoPDivisor
p3139
(dp3140
g1070
I-1
sg1071
I412
sbtp3141
sg158
(g1153
(idivisor
TwoPDivisor
p3142
(dp3143
g1070
I-1
sg1071
I485
sbtp3144
sg797
(g1339
(idivisor
TwoPDivisor
p3145
(dp3146
g1070
I-1
sg1071
I412
sbtp3147
sg14
(g1711
(idivisor
TwoPDivisor
p3148
(dp3149
g1070
I-1
sg1071
I414
sbtp3150
sg846
(g1135
(idivisor
TwoPDivisor
p3151
(dp3152
g1070
I-1
sg1071
I415
sbtp3153
sg468
(g1106
(idivisor
TwoPDivisor
p3154
(dp3155
g1070
I-1
sg1071
I448
sbtp3156
sg404
(g1093
(idivisor
TwoPDivisor
p3157
(dp3158
g1070
I-1
sg1071
I463
sbtp3159
sg851
(g1185
(idivisor
TwoPDivisor
p3160
(dp3161
g1070
I-1
sg1071
I440
sbtp3162
sg889
(g1339
(idivisor
TwoPDivisor
p3163
(dp3164
g1070
I-1
sg1071
I402
sbtp3165
sg310
(g1300
(idivisor
TwoPDivisor
p3166
(dp3167
g1070
I-1
sg1071
I406
sbtp3168
sg115
((idivisor
TwoPDivisor
p3169
(dp3170
g1070
I0
sg1071
I-5
sb(idivisor
TwoPDivisor
p3171
(dp3172
g1070
I-1
sg1071
I460
sbtp3173
sg274
(g1067
(idivisor
TwoPDivisor
p3174
(dp3175
g1070
I-1
sg1071
I463
sbtp3176
sg732
(g1124
(idivisor
TwoPDivisor
p3177
(dp3178
g1070
I-1
sg1071
I453
sbtp3179
sg393
(g1080
(idivisor
TwoPDivisor
p3180
(dp3181
g1070
I-1
sg1071
I418
sbtp3182
sg767
(g1185
(idivisor
TwoPDivisor
p3183
(dp3184
g1070
I-1
sg1071
I448
sbtp3185
sg428
(g1153
(idivisor
TwoPDivisor
p3186
(dp3187
g1070
I-1
sg1071
I468
sbtp3188
sg231
(g1284
(idivisor
TwoPDivisor
p3189
(dp3190
g1070
I-1
sg1071
I414
sbtp3191
sg1053
(g1124
(idivisor
TwoPDivisor
p3192
(dp3193
g1070
I-1
sg1071
I408
sbtp3194
sg780
(g1124
(idivisor
TwoPDivisor
p3195
(dp3196
g1070
I-1
sg1071
I449
sbtp3197
sg872
(g1339
(idivisor
TwoPDivisor
p3198
(dp3199
g1070
I-1
sg1071
I404
sbtp3200
sg515
(g1124
(idivisor
TwoPDivisor
p3201
(dp3202
g1070
I-1
sg1071
I469
sbtp3203
sg620
(g1135
(idivisor
TwoPDivisor
p3204
(dp3205
g1070
I-1
sg1071
I433
sbtp3206
sg201
(g1233
(idivisor
TwoPDivisor
p3207
(dp3208
g1070
I-1
sg1071
I411
sbtp3209
sg101
(g1205
(idivisor
TwoPDivisor
p3210
(dp3211
g1070
I-1
sg1071
I422
sbtp3212
sg777
(g1093
(idivisor
TwoPDivisor
p3213
(dp3214
g1070
I-1
sg1071
I440
sbtp3215
sg391
(g1205
(idivisor
TwoPDivisor
p3216
(dp3217
g1070
I-1
sg1071
I412
sbtp3218
sg974
(g1153
(idivisor
TwoPDivisor
p3219
(dp3220
g1070
I-1
sg1071
I420
sbtp3221
sg987
(g1185
(idivisor
TwoPDivisor
p3222
(dp3223
g1070
I-1
sg1071
I421
sbtp3224
sg77
(g3169
(idivisor
TwoPDivisor
p3225
(dp3226
g1070
I-1
sg1071
I461
sbtp3227
sg444
(g1174
(idivisor
TwoPDivisor
p3228
(dp3229
g1070
I-1
sg1071
I433
sbtp3230
sg798
(g1135
(idivisor
TwoPDivisor
p3231
(dp3232
g1070
I-1
sg1071
I420
sbtp3233
sg225
(g1169
(idivisor
TwoPDivisor
p3234
(dp3235
g1070
I-1
sg1071
I405
sbtp3236
sg28
((idivisor
TwoPDivisor
p3237
(dp3238
g1070
I0
sg1071
I13
sb(idivisor
TwoPDivisor
p3239
(dp3240
g1070
I-1
sg1071
I444
sbtp3241
sg470
(g1093
(idivisor
TwoPDivisor
p3242
(dp3243
g1070
I-1
sg1071
I460
sbtp3244
sg943
(g1153
(idivisor
TwoPDivisor
p3245
(dp3246
g1070
I-1
sg1071
I425
sbtp3247
sg819
(g1135
(idivisor
TwoPDivisor
p3248
(dp3249
g1070
I-1
sg1071
I418
sbtp3250
sg625
(g1185
(idivisor
TwoPDivisor
p3251
(dp3252
g1070
I-1
sg1071
I459
sbtp3253
sg270
(g1174
(idivisor
TwoPDivisor
p3254
(dp3255
g1070
I-1
sg1071
I440
sbtp3256
sg886
(g1153
(idivisor
TwoPDivisor
p3257
(dp3258
g1070
I-1
sg1071
I433
sbtp3259
sg750
(g1135
(idivisor
TwoPDivisor
p3260
(dp3261
g1070
I-1
sg1071
I424
sbtp3262
sg440
(g1075
(idivisor
TwoPDivisor
p3263
(dp3264
g1070
I-1
sg1071
I418
sbtp3265
sg226
(g1305
(idivisor
TwoPDivisor
p3266
(dp3267
g1070
I-1
sg1071
I406
sbtp3268
sg384
(g1711
(idivisor
TwoPDivisor
p3269
(dp3270
g1070
I-1
sg1071
I402
sbtp3271
sg796
(g1174
(idivisor
TwoPDivisor
p3272
(dp3273
g1070
I-1
sg1071
I411
sbtp3274
sg624
(g1153
(idivisor
TwoPDivisor
p3275
(dp3276
g1070
I-1
sg1071
I455
sbtp3277
sg26
(g1755
(idivisor
TwoPDivisor
p3278
(dp3279
g1070
I-1
sg1071
I437
sbtp3280
sg51
(g1319
(idivisor
TwoPDivisor
p3281
(dp3282
g1070
I-1
sg1071
I407
sbtp3283
sg616
(g1143
(idivisor
TwoPDivisor
p3284
(dp3285
g1070
I-1
sg1071
I416
sbtp3286
sg1015
(g1067
(idivisor
TwoPDivisor
p3287
(dp3288
g1070
I-1
sg1071
I403
sbtp3289
sg738
(g1135
(idivisor
TwoPDivisor
p3290
(dp3291
g1070
I-1
sg1071
I425
sbtp3292
sg246
(g1106
(idivisor
TwoPDivisor
p3293
(dp3294
g1070
I-1
sg1071
I458
sbtp3295
sg312
(g1284
(idivisor
TwoPDivisor
p3296
(dp3297
g1070
I-1
sg1071
I411
sbtp3298
sg96
(g1300
(idivisor
TwoPDivisor
p3299
(dp3300
g1070
I-1
sg1071
I413
sbtp3301
sg32
(g1598
(idivisor
TwoPDivisor
p3302
(dp3303
g1070
I-1
sg1071
I454
sbtp3304
sg916
(g1185
(idivisor
TwoPDivisor
p3305
(dp3306
g1070
I-1
sg1071
I432
sbtp3307
sg1058
(g1124
(idivisor
TwoPDivisor
p3308
(dp3309
g1070
I-1
sg1071
I406
sbtp3310
sg825
(g1124
(idivisor
TwoPDivisor
p3311
(dp3312
g1070
I-1
sg1071
I445
sbtp3313
sg466
(g1339
(idivisor
TwoPDivisor
p3314
(dp3315
g1070
I-1
sg1071
I433
sbtp3316
sg879
(g1124
(idivisor
TwoPDivisor
p3317
(dp3318
g1070
I-1
sg1071
I439
sbtp3319
sg906
(g1067
(idivisor
TwoPDivisor
p3320
(dp3321
g1070
I-1
sg1071
I421
sbtp3322
sg356
(g1153
(idivisor
TwoPDivisor
p3323
(dp3324
g1070
I-1
sg1071
I471
sbtp3325
sg442
(g1143
(idivisor
TwoPDivisor
p3326
(dp3327
g1070
I-1
sg1071
I425
sbtp3328
sg271
(g1339
(idivisor
TwoPDivisor
p3329
(dp3330
g1070
I-1
sg1071
I441
sbtp3331
sg69
(g1289
(idivisor
TwoPDivisor
p3332
(dp3333
g1070
I-1
sg1071
I439
sbtp3334
sg200
(g1300
(idivisor
TwoPDivisor
p3335
(dp3336
g1070
I-1
sg1071
I410
sbtp3337
sg24
(g1393
(idivisor
TwoPDivisor
p3338
(dp3339
g1070
I-1
sg1071
I431
sbtp3340
sg682
(g1174
(idivisor
TwoPDivisor
p3341
(dp3342
g1070
I-1
sg1071
I420
sbtp3343
sg64
(g1080
(idivisor
TwoPDivisor
p3344
(dp3345
g1070
I-1
sg1071
I429
sbtp3346
sg1038
(g1153
(idivisor
TwoPDivisor
p3347
(dp3348
g1070
I-1
sg1071
I407
sbtp3349
sg68
(g1755
(idivisor
TwoPDivisor
p3350
(dp3351
g1070
I-1
sg1071
I436
sbtp3352
sg992
(g1153
(idivisor
TwoPDivisor
p3353
(dp3354
g1070
I-1
sg1071
I417
sbtp3355
sg727
(g1106
(idivisor
TwoPDivisor
p3356
(dp3357
g1070
I-1
sg1071
I433
sbtp3358
sg590
(g1093
(idivisor
TwoPDivisor
p3359
(dp3360
g1070
I-1
sg1071
I453
sbtp3361
sg471
(g1153
(idivisor
TwoPDivisor
p3362
(dp3363
g1070
I-1
sg1071
I464
sbtp3364
sg605
(g1106
(idivisor
TwoPDivisor
p3365
(dp3366
g1070
I-1
sg1071
I441
sbtp3367
sg699
(g1135
(idivisor
TwoPDivisor
p3368
(dp3369
g1070
I-1
sg1071
I428
sbtp3370
sg426
(g1067
(idivisor
TwoPDivisor
p3371
(dp3372
g1070
I-1
sg1071
I456
sbtp3373
sg659
(g1114
(idivisor
TwoPDivisor
p3374
(dp3375
g1070
I-1
sg1071
I403
sbtp3376
sg526
(g1143
(idivisor
TwoPDivisor
p3377
(dp3378
g1070
I-1
sg1071
I421
sbtp3379
sg569
(g1135
(idivisor
TwoPDivisor
p3380
(dp3381
g1070
I-1
sg1071
I436
sbtp3382
sg542
(g1080
(idivisor
TwoPDivisor
p3383
(dp3384
g1070
I-1
sg1071
I411
sbtp3385
sg508
(g1339
(idivisor
TwoPDivisor
p3386
(dp3387
g1070
I-1
sg1071
I431
sbtp3388
sg907
(g1093
(idivisor
TwoPDivisor
p3389
(dp3390
g1070
I-1
sg1071
I426
sbtp3391
sg740
(g1067
(idivisor
TwoPDivisor
p3392
(dp3393
g1070
I-1
sg1071
I438
sbtp3394
sg694
(g1119
(idivisor
TwoPDivisor
p3395
(dp3396
g1070
I-1
sg1071
I410
sbtp3397
sg965
(g1106
(idivisor
TwoPDivisor
p3398
(dp3399
g1070
I-1
sg1071
I406
sbtp3400
sg989
(g1106
(idivisor
TwoPDivisor
p3401
(dp3402
g1070
I-1
sg1071
I402
sbtp3403
sg230
(g1233
(idivisor
TwoPDivisor
p3404
(dp3405
g1070
I-1
sg1071
I410
sbtp3406
sg55
(g1711
(idivisor
TwoPDivisor
p3407
(dp3408
g1070
I-1
sg1071
I413
sbtp3409
sg100
(g1158
(idivisor
TwoPDivisor
p3410
(dp3411
g1070
I-1
sg1071
I421
sbtp3412
sg779
(g1185
(idivisor
TwoPDivisor
p3413
(dp3414
g1070
I-1
sg1071
I447
sbtp3415
sg120
(g1876
(idivisor
TwoPDivisor
p3416
(dp3417
g1070
I-1
sg1071
I477
sbtp3418
sg390
(g1158
(idivisor
TwoPDivisor
p3419
(dp3420
g1070
I-1
sg1071
I411
sbtp3421
sg814
(g1185
(idivisor
TwoPDivisor
p3422
(dp3423
g1070
I-1
sg1071
I444
sbtp3424
sg34
((idivisor
TwoPDivisor
p3425
(dp3426
g1070
I0
sg1071
I-4
sb(idivisor
TwoPDivisor
p3427
(dp3428
g1070
I-1
sg1071
I461
sbtp3429
sg1026
(g1153
(idivisor
TwoPDivisor
p3430
(dp3431
g1070
I-1
sg1071
I410
sbtp3432
sg1005
(g1067
(idivisor
TwoPDivisor
p3433
(dp3434
g1070
I-1
sg1071
I405
sbtp3435
sg72
(g1174
(idivisor
TwoPDivisor
p3436
(dp3437
g1070
I-1
sg1071
I446
sbtp3438
sg480
(g1080
(idivisor
TwoPDivisor
p3439
(dp3440
g1070
I-1
sg1071
I414
sbtp3441
sg280
(g1305
(idivisor
TwoPDivisor
p3442
(dp3443
g1070
I-1
sg1071
I404
sbtp3444
sg678
(g1075
(idivisor
TwoPDivisor
p3445
(dp3446
g1070
I-1
sg1071
I405
sbtp3447
sg105
(g1393
(idivisor
TwoPDivisor
p3448
(dp3449
g1070
I-1
sg1071
I429
sbtp3450
sg76
(g1373
(idivisor
TwoPDivisor
p3451
(dp3452
g1070
I-1
sg1071
I454
sbtp3453
sg971
(g1106
(idivisor
TwoPDivisor
p3454
(dp3455
g1070
I-1
sg1071
I405
sbtp3456
sg109
(g2109
(idivisor
TwoPDivisor
p3457
(dp3458
g1070
I-1
sg1071
I443
sbtp3459
sg898
(g1106
(idivisor
TwoPDivisor
p3460
(dp3461
g1070
I-1
sg1071
I416
sbtp3462
sg326
(g1135
(idivisor
TwoPDivisor
p3463
(dp3464
g1070
I-1
sg1071
I447
sbtp3465
sg911
(g1135
(idivisor
TwoPDivisor
p3466
(dp3467
g1070
I-1
sg1071
I407
sbtp3468
sg147
(g2021
(idivisor
TwoPDivisor
p3469
(dp3470
g1070
I-1
sg1071
I443
sbtp3471
sg481
(g1393
(idivisor
TwoPDivisor
p3472
(dp3473
g1070
I-1
sg1071
I415
sbtp3474
sg362
(g1233
(idivisor
TwoPDivisor
p3475
(dp3476
g1070
I-1
sg1071
I405
sbtp3477
sg928
(g1093
(idivisor
TwoPDivisor
p3478
(dp3479
g1070
I-1
sg1071
I423
sbtp3480
sg802
(g1153
(idivisor
TwoPDivisor
p3481
(dp3482
g1070
I-1
sg1071
I442
sbtp3483
sg707
(g1075
(idivisor
TwoPDivisor
p3484
(dp3485
g1070
I-1
sg1071
I403
sbtp3486
sg759
(g1289
(idivisor
TwoPDivisor
p3487
(dp3488
g1070
I-1
sg1071
I407
sbtp3489
sg1062
(g1124
(idivisor
TwoPDivisor
p3490
(dp3491
g1070
I-1
sg1071
I404
sbtp3492
sg206
(g1205
(idivisor
TwoPDivisor
p3493
(dp3494
g1070
I-1
sg1071
I419
sbtp3495
sg1043
(g1185
(idivisor
TwoPDivisor
p3496
(dp3497
g1070
I-1
sg1071
I409
sbtp3498
sg4
((idivisor
TwoPDivisor
p3499
(dp3500
g1070
I0
sg1071
I55
sb(idivisor
TwoPDivisor
p3501
(dp3502
g1070
I-1
sg1071
I402
sbtp3503
sg751
(g1106
(idivisor
TwoPDivisor
p3504
(dp3505
g1070
I-1
sg1071
I431
sbtp3506
sg586
(g1339
(idivisor
TwoPDivisor
p3507
(dp3508
g1070
I-1
sg1071
I427
sbtp3509
sg938
(g1124
(idivisor
TwoPDivisor
p3510
(dp3511
g1070
I-1
sg1071
I431
sbtp3512
sg1006
(g1093
(idivisor
TwoPDivisor
p3513
(dp3514
g1070
I-1
sg1071
I410
sbtp3515
sg899
(g1067
(idivisor
TwoPDivisor
p3516
(dp3517
g1070
I-1
sg1071
I422
sbtp3518
sg642
(g1124
(idivisor
TwoPDivisor
p3519
(dp3520
g1070
I-1
sg1071
I460
sbtp3521
sg512
(g1093
(idivisor
TwoPDivisor
p3522
(dp3523
g1070
I-1
sg1071
I458
sbtp3524
sg832
(g1153
(idivisor
TwoPDivisor
p3525
(dp3526
g1070
I-1
sg1071
I439
sbtp3527
sg742
(g1153
(idivisor
TwoPDivisor
p3528
(dp3529
g1070
I-1
sg1071
I447
sbtp3530
sg880
(g1174
(idivisor
TwoPDivisor
p3531
(dp3532
g1070
I-1
sg1071
I402
sbtp3533
sg269
(g1289
(idivisor
TwoPDivisor
p3534
(dp3535
g1070
I-1
sg1071
I433
sbtp3536
sg344
(g1080
(idivisor
TwoPDivisor
p3537
(dp3538
g1070
I-1
sg1071
I420
sbtp3539
sg784
(g1174
(idivisor
TwoPDivisor
p3540
(dp3541
g1070
I-1
sg1071
I412
sbtp3542
sg31
(g2194
(idivisor
TwoPDivisor
p3543
(dp3544
g1070
I-1
sg1071
I453
sbtp3545
sg17
(g1284
(idivisor
TwoPDivisor
p3546
(dp3547
g1070
I-1
sg1071
I420
sbtp3548
sg132
(g1711
(idivisor
TwoPDivisor
p3549
(dp3550
g1070
I-1
sg1071
I411
sbtp3551
sg389
(g1088
(idivisor
TwoPDivisor
p3552
(dp3553
g1070
I-1
sg1071
I410
sbtp3554
sg760
(g1174
(idivisor
TwoPDivisor
p3555
(dp3556
g1070
I-1
sg1071
I414
sbtp3557
sg865
(g1106
(idivisor
TwoPDivisor
p3558
(dp3559
g1070
I-1
sg1071
I420
sbtp3560
sg931
(g1124
(idivisor
TwoPDivisor
p3561
(dp3562
g1070
I-1
sg1071
I432
sbtp3563
sg882
(g1135
(idivisor
TwoPDivisor
p3564
(dp3565
g1070
I-1
sg1071
I411
sbtp3566
sg127
(g1344
(idivisor
TwoPDivisor
p3567
(dp3568
g1070
I-1
sg1071
I404
sbtp3569
sg136
(g1148
(idivisor
TwoPDivisor
p3570
(dp3571
g1070
I-1
sg1071
I418
sbtp3572
sg716
(g1093
(idivisor
TwoPDivisor
p3573
(dp3574
g1070
I-1
sg1071
I445
sbtp3575
sg324
(g1174
(idivisor
TwoPDivisor
p3576
(dp3577
g1070
I-1
sg1071
I438
sbtp3578
sg19
(g1205
(idivisor
TwoPDivisor
p3579
(dp3580
g1070
I-1
sg1071
I424
sbtp3581
sg588
(g1106
(idivisor
TwoPDivisor
p3582
(dp3583
g1070
I-1
sg1071
I442
sbtp3584
sg613
(g1393
(idivisor
TwoPDivisor
p3585
(dp3586
g1070
I-1
sg1071
I408
sbtp3587
sg453
(g1284
(idivisor
TwoPDivisor
p3588
(dp3589
g1070
I-1
sg1071
I405
sbtp3590
sg460
(g1393
(idivisor
TwoPDivisor
p3591
(dp3592
g1070
I-1
sg1071
I416
sbtp3593
sg924
(g1124
(idivisor
TwoPDivisor
p3594
(dp3595
g1070
I-1
sg1071
I433
sbtp3596
sg161
(g1241
(idivisor
TwoPDivisor
p3597
(dp3598
g1070
I-1
sg1071
I402
sbtp3599
sg103
(g1114
(idivisor
TwoPDivisor
p3600
(dp3601
g1070
I-1
sg1071
I427
sbtp3602
sg778
(g1153
(idivisor
TwoPDivisor
p3603
(dp3604
g1070
I-1
sg1071
I444
sbtp3605
sg301
(g1067
(idivisor
TwoPDivisor
p3606
(dp3607
g1070
I-1
sg1071
I462
sbtp3608
sg803
(g1185
(idivisor
TwoPDivisor
p3609
(dp3610
g1070
I-1
sg1071
I445
sbtp3611
sg713
(g1135
(idivisor
TwoPDivisor
p3612
(dp3613
g1070
I-1
sg1071
I427
sbtp3614
sg668
(g1135
(idivisor
TwoPDivisor
p3615
(dp3616
g1070
I-1
sg1071
I430
sbtp3617
sg338
(g1284
(idivisor
TwoPDivisor
p3618
(dp3619
g1070
I-1
sg1071
I410
sbtp3620
sg360
(g1711
(idivisor
TwoPDivisor
p3621
(dp3622
g1070
I-1
sg1071
I403
sbtp3623
sg439
(g1393
(idivisor
TwoPDivisor
p3624
(dp3625
g1070
I-1
sg1071
I417
sbtp3626
sg800
(g1067
(idivisor
TwoPDivisor
p3627
(dp3628
g1070
I-1
sg1071
I433
sbtp3629
sg700
(g1106
(idivisor
TwoPDivisor
p3630
(dp3631
g1070
I-1
sg1071
I435
sbtp3632
sg836
(g1339
(idivisor
TwoPDivisor
p3633
(dp3634
g1070
I-1
sg1071
I408
sbtp3635
sg562
(g1393
(idivisor
TwoPDivisor
p3636
(dp3637
g1070
I-1
sg1071
I411
sbtp3638
sg901
(g1153
(idivisor
TwoPDivisor
p3639
(dp3640
g1070
I-1
sg1071
I431
sbtp3641
sg608
(g1153
(idivisor
TwoPDivisor
p3642
(dp3643
g1070
I-1
sg1071
I456
sbtp3644
sg675
(g1114
(idivisor
TwoPDivisor
p3645
(dp3646
g1070
I-1
sg1071
I402
sbtp3647
sg183
(g1174
(idivisor
TwoPDivisor
p3648
(dp3649
g1070
I-1
sg1071
I443
sbtp3650
sg641
(g1185
(idivisor
TwoPDivisor
p3651
(dp3652
g1070
I-1
sg1071
I458
sbtp3653
sg3
((idivisor
TwoPDivisor
p3654
(dp3655
g1070
I0
sg1071
I-54
sb(idivisor
TwoPDivisor
p3656
(dp3657
g1070
I-1
sg1071
I511
sbtp3658
sg835
(g1174
(idivisor
TwoPDivisor
p3659
(dp3660
g1070
I-1
sg1071
I407
sbtp3661
sg411
(g1148
(idivisor
TwoPDivisor
p3662
(dp3663
g1070
I-1
sg1071
I408
sbtp3664
sg190
(g1093
(idivisor
TwoPDivisor
p3665
(dp3666
g1070
I-1
sg1071
I476
sbtp3667
sg518
(g1088
(idivisor
TwoPDivisor
p3668
(dp3669
g1070
I-1
sg1071
I404
sbtp3670
sg245
(g1135
(idivisor
TwoPDivisor
p3671
(dp3672
g1070
I-1
sg1071
I450
sbtp3673
sg640
(g1153
(idivisor
TwoPDivisor
p3674
(dp3675
g1070
I-1
sg1071
I454
sbtp3676
sg222
(g1185
(idivisor
TwoPDivisor
p3677
(dp3678
g1070
I-1
sg1071
I486
sbtp3679
sg1022
(g1153
(idivisor
TwoPDivisor
p3680
(dp3681
g1070
I-1
sg1071
I411
sbtp3682
sg757
(g1119
(idivisor
TwoPDivisor
p3683
(dp3684
g1070
I-1
sg1071
I405
sbtp3685
sg210
(g1075
(idivisor
TwoPDivisor
p3686
(dp3687
g1070
I-1
sg1071
I427
sbtp3688
sg1019
(g1124
(idivisor
TwoPDivisor
p3689
(dp3690
g1070
I-1
sg1071
I417
sbtp3691
sg148
(g1174
(idivisor
TwoPDivisor
p3692
(dp3693
g1070
I-1
sg1071
I444
sbtp3694
sg874
(g1106
(idivisor
TwoPDivisor
p3695
(dp3696
g1070
I-1
sg1071
I419
sbtp3697
sg108
(g1289
(idivisor
TwoPDivisor
p3698
(dp3699
g1070
I-1
sg1071
I438
sbtp3700
sg723
(g1289
(idivisor
TwoPDivisor
p3701
(dp3702
g1070
I-1
sg1071
I410
sbtp3703
sg826
(g1174
(idivisor
TwoPDivisor
p3704
(dp3705
g1070
I-1
sg1071
I408
sbtp3706
sg776
(g1067
(idivisor
TwoPDivisor
p3707
(dp3708
g1070
I-1
sg1071
I435
sbtp3709
sg424
(g1135
(idivisor
TwoPDivisor
p3710
(dp3711
g1070
I-1
sg1071
I443
sbtp3712
sg1035
(g1185
(idivisor
TwoPDivisor
p3713
(dp3714
g1070
I-1
sg1071
I411
sbtp3715
sg584
(g1289
(idivisor
TwoPDivisor
p3716
(dp3717
g1070
I-1
sg1071
I419
sbtp3718
sg860
(g1185
(idivisor
TwoPDivisor
p3719
(dp3720
g1070
I-1
sg1071
I439
sbtp3721
sg945
(g1124
(idivisor
TwoPDivisor
p3722
(dp3723
g1070
I-1
sg1071
I430
sbtp3724
sg921
(g1093
(idivisor
TwoPDivisor
p3725
(dp3726
g1070
I-1
sg1071
I424
sbtp3727
sg232
(g1148
(idivisor
TwoPDivisor
p3728
(dp3729
g1070
I-1
sg1071
I415
sbtp3730
sg793
(g1119
(idivisor
TwoPDivisor
p3731
(dp3732
g1070
I-1
sg1071
I402
sbtp3733
sg888
(g1124
(idivisor
TwoPDivisor
p3734
(dp3735
g1070
I-1
sg1071
I438
sbtp3736
sg209
(g1393
(idivisor
TwoPDivisor
p3737
(dp3738
g1070
I-1
sg1071
I426
sbtp3739
sg677
(g1393
(idivisor
TwoPDivisor
p3740
(dp3741
g1070
I-1
sg1071
I404
sbtp3742
sg772
(g1174
(idivisor
TwoPDivisor
p3743
(dp3744
g1070
I-1
sg1071
I413
sbtp3745
sg368
(g1114
(idivisor
TwoPDivisor
p3746
(dp3747
g1070
I-1
sg1071
I418
sbtp3748
sg349
(g1289
(idivisor
TwoPDivisor
p3749
(dp3750
g1070
I-1
sg1071
I430
sbtp3751
sg114
(g1373
(idivisor
TwoPDivisor
p3752
(dp3753
g1070
I-1
sg1071
I453
sbtp3754
sg97
(g1233
(idivisor
TwoPDivisor
p3755
(dp3756
g1070
I-1
sg1071
I414
sbtp3757
sg904
(g1135
(idivisor
TwoPDivisor
p3758
(dp3759
g1070
I-1
sg1071
I408
sbtp3760
sg401
(g1135
(idivisor
TwoPDivisor
p3761
(dp3762
g1070
I-1
sg1071
I444
sbtp3763
sg1041
(g1093
(idivisor
TwoPDivisor
p3764
(dp3765
g1070
I-1
sg1071
I402
sbtp3766
sg214
(g1174
(idivisor
TwoPDivisor
p3767
(dp3768
g1070
I-1
sg1071
I442
sbtp3769
sg761
(g1339
(idivisor
TwoPDivisor
p3770
(dp3771
g1070
I-1
sg1071
I415
sbtp3772
sg383
(g1124
(idivisor
TwoPDivisor
p3773
(dp3774
g1070
I-1
sg1071
I478
sbtp3775
sg478
(g1205
(idivisor
TwoPDivisor
p3776
(dp3777
g1070
I-1
sg1071
I408
sbtp3778
sg1010
(g1067
(idivisor
TwoPDivisor
p3779
(dp3780
g1070
I-1
sg1071
I404
sbtp3781
sg607
(g1093
(idivisor
TwoPDivisor
p3782
(dp3783
g1070
I-1
sg1071
I452
sbtp3784
sg736
(g1174
(idivisor
TwoPDivisor
p3785
(dp3786
g1070
I-1
sg1071
I416
sbtp3787
sg687
(g1093
(idivisor
TwoPDivisor
p3788
(dp3789
g1070
I-1
sg1071
I447
sbtp3790
sg107
(g1755
(idivisor
TwoPDivisor
p3791
(dp3792
g1070
I-1
sg1071
I435
sbtp3793
sg519
(g1158
(idivisor
TwoPDivisor
p3794
(dp3795
g1070
I-1
sg1071
I405
sbtp3796
sg122
(g1153
(idivisor
TwoPDivisor
p3797
(dp3798
g1070
I-1
sg1071
I486
sbtp3799
sg947
(g1106
(idivisor
TwoPDivisor
p3800
(dp3801
g1070
I-1
sg1071
I409
sbtp3802
sg509
(g1135
(idivisor
TwoPDivisor
p3803
(dp3804
g1070
I-1
sg1071
I439
sbtp3805
sg717
(g1153
(idivisor
TwoPDivisor
p3806
(dp3807
g1070
I-1
sg1071
I449
sbtp3808
sg768
(g1124
(idivisor
TwoPDivisor
p3809
(dp3810
g1070
I-1
sg1071
I450
sbtp3811
sg81
(g1876
(idivisor
TwoPDivisor
p3812
(dp3813
g1070
I-1
sg1071
I478
sbtp3814
sg182
(g2021
(idivisor
TwoPDivisor
p3815
(dp3816
g1070
I-1
sg1071
I442
sbtp3817
sg877
(g1153
(idivisor
TwoPDivisor
p3818
(dp3819
g1070
I-1
sg1071
I434
sbtp3820
sg981
(g1185
(idivisor
TwoPDivisor
p3821
(dp3822
g1070
I-1
sg1071
I422
sbtp3823
sg614
(g1075
(idivisor
TwoPDivisor
p3824
(dp3825
g1070
I-1
sg1071
I409
sbtp3826
sg806
(g1289
(idivisor
TwoPDivisor
p3827
(dp3828
g1070
I-1
sg1071
I403
sbtp3829
sg296
(g1289
(idivisor
TwoPDivisor
p3830
(dp3831
g1070
I-1
sg1071
I432
sbtp3832
sg345
(g1393
(idivisor
TwoPDivisor
p3833
(dp3834
g1070
I-1
sg1071
I421
sbtp3835
sg952
(g1124
(idivisor
TwoPDivisor
p3836
(dp3837
g1070
I-1
sg1071
I429
sbtp3838
sg224
(g1319
(idivisor
TwoPDivisor
p3839
(dp3840
g1070
I-1
sg1071
I402
sbtp3841
sg79
(g2819
(idivisor
TwoPDivisor
p3842
(dp3843
g1070
I-1
sg1071
I469
sbtp3844
sg1063
(g1124
(idivisor
TwoPDivisor
p3845
(dp3846
g1070
I-1
sg1071
I403
sbtp3847
sg95
(g1711
(idivisor
TwoPDivisor
p3848
(dp3849
g1070
I-1
sg1071
I412
sbtp3850
sg268
(g1143
(idivisor
TwoPDivisor
p3851
(dp3852
g1070
I-1
sg1071
I432
sbtp3853
sg566
(g1289
(idivisor
TwoPDivisor
p3854
(dp3855
g1070
I-1
sg1071
I420
sbtp3856
sg626
(g1124
(idivisor
TwoPDivisor
p3857
(dp3858
g1070
I-1
sg1071
I461
sbtp3859
sg619
(g1339
(idivisor
TwoPDivisor
p3860
(dp3861
g1070
I-1
sg1071
I425
sbtp3862
sg332
(g1124
(idivisor
TwoPDivisor
p3863
(dp3864
g1070
I-1
sg1071
I480
sbtp3865
sg536
(g1124
(idivisor
TwoPDivisor
p3866
(dp3867
g1070
I-1
sg1071
I468
sbtp3868
sg994
(g1124
(idivisor
TwoPDivisor
p3869
(dp3870
g1070
I-1
sg1071
I422
sbtp3871
sg689
(g1185
(idivisor
TwoPDivisor
p3872
(dp3873
g1070
I-1
sg1071
I454
sbtp3874
sg517
(g1148
(idivisor
TwoPDivisor
p3875
(dp3876
g1070
I-1
sg1071
I403
sbtp3877
sg665
(g1289
(idivisor
TwoPDivisor
p3878
(dp3879
g1070
I-1
sg1071
I414
sbtp3880
sg8
(g1241
(idivisor
TwoPDivisor
p3881
(dp3882
g1070
I-1
sg1071
I406
sbtp3883
sg551
(g1106
(idivisor
TwoPDivisor
p3884
(dp3885
g1070
I-1
sg1071
I444
sbtp3886
sg603
(g1339
(idivisor
TwoPDivisor
p3887
(dp3888
g1070
I-1
sg1071
I426
sbtp3889
sg329
(g1093
(idivisor
TwoPDivisor
p3890
(dp3891
g1070
I-1
sg1071
I468
sbtp3892
sg752
(g1067
(idivisor
TwoPDivisor
p3893
(dp3894
g1070
I-1
sg1071
I437
sbtp3895
sg141
(g1080
(idivisor
TwoPDivisor
p3896
(dp3897
g1070
I-1
sg1071
I427
sbtp3898
sg743
(g1185
(idivisor
TwoPDivisor
p3899
(dp3900
g1070
I-1
sg1071
I450
sbtp3901
sg634
(g1174
(idivisor
TwoPDivisor
p3902
(dp3903
g1070
I-1
sg1071
I423
sbtp3904
sg942
(g1093
(idivisor
TwoPDivisor
p3905
(dp3906
g1070
I-1
sg1071
I421
sbtp3907
sg277
(g1185
(idivisor
TwoPDivisor
p3908
(dp3909
g1070
I-1
sg1071
I480
sbtp3910
sg138
(g1158
(idivisor
TwoPDivisor
p3911
(dp3912
g1070
I-1
sg1071
I420
sbtp3913
sg179
(g1119
(idivisor
TwoPDivisor
p3914
(dp3915
g1070
I-1
sg1071
I434
sbtp3916
sg690
(g1124
(idivisor
TwoPDivisor
p3917
(dp3918
g1070
I-1
sg1071
I456
sbtp3919
sg983
(g1106
(idivisor
TwoPDivisor
p3920
(dp3921
g1070
I-1
sg1071
I403
sbtp3922
sg33
(g1373
(idivisor
TwoPDivisor
p3923
(dp3924
g1070
I-1
sg1071
I455
sbtp3925
sg248
(g1093
(idivisor
TwoPDivisor
p3926
(dp3927
g1070
I-1
sg1071
I471
sbtp3928
sg337
(g1233
(idivisor
TwoPDivisor
p3929
(dp3930
g1070
I-1
sg1071
I406
sbtp3931
sg152
(g1135
(idivisor
TwoPDivisor
p3932
(dp3933
g1070
I-1
sg1071
I453
sbtp3934
sg219
(g1067
(idivisor
TwoPDivisor
p3935
(dp3936
g1070
I-1
sg1071
I467
sbtp3937
sg162
(g1344
(idivisor
TwoPDivisor
p3938
(dp3939
g1070
I-1
sg1071
I403
sbtp3940
sg597
(g1393
(idivisor
TwoPDivisor
p3941
(dp3942
g1070
I-1
sg1071
I409
sbtp3943
sg859
(g1153
(idivisor
TwoPDivisor
p3944
(dp3945
g1070
I-1
sg1071
I436
sbtp3946
sg878
(g1185
(idivisor
TwoPDivisor
p3947
(dp3948
g1070
I-1
sg1071
I437
sbtp3949
sg507
(g1174
(idivisor
TwoPDivisor
p3950
(dp3951
g1070
I-1
sg1071
I430
sbtp3952
sg903
(g1124
(idivisor
TwoPDivisor
p3953
(dp3954
g1070
I-1
sg1071
I436
sbtp3955
sg923
(g1185
(idivisor
TwoPDivisor
p3956
(dp3957
g1070
I-1
sg1071
I431
sbtp3958
sg229
(g1300
(idivisor
TwoPDivisor
p3959
(dp3960
g1070
I-1
sg1071
I409
sbtp3961
sg379
(g1067
(idivisor
TwoPDivisor
p3962
(dp3963
g1070
I-1
sg1071
I459
sbtp3964
sg488
(g1135
(idivisor
TwoPDivisor
p3965
(dp3966
g1070
I-1
sg1071
I440
sbtp3967
sg186
(g1135
(idivisor
TwoPDivisor
p3968
(dp3969
g1070
I-1
sg1071
I452
sbtp3970
sg43
((idivisor
TwoPDivisor
p3971
(dp3972
g1070
I0
sg1071
I-38
sb(idivisor
TwoPDivisor
p3973
(dp3974
g1070
I-1
sg1071
I495
sbtp3975
sg633
(g1289
(idivisor
TwoPDivisor
p3976
(dp3977
g1070
I-1
sg1071
I416
sbtp3978
sg73
(g1339
(idivisor
TwoPDivisor
p3979
(dp3980
g1070
I-1
sg1071
I447
sbtp3981
sg782
(g1143
(idivisor
TwoPDivisor
p3982
(dp3983
g1070
I-1
sg1071
I404
sbtp3984
sg753
(g1093
(idivisor
TwoPDivisor
p3985
(dp3986
g1070
I-1
sg1071
I442
sbtp3987
sg537
(g1148
(idivisor
TwoPDivisor
p3988
(dp3989
g1070
I-1
sg1071
I402
sbtp3990
sg392
(g1114
(idivisor
TwoPDivisor
p3991
(dp3992
g1070
I-1
sg1071
I417
sbtp3993
sg469
(g1067
(idivisor
TwoPDivisor
p3994
(dp3995
g1070
I-1
sg1071
I454
sbtp3996
sg999
(g1124
(idivisor
TwoPDivisor
p3997
(dp3998
g1070
I-1
sg1071
I421
sbtp3999
sg412
(g1088
(idivisor
TwoPDivisor
p4000
(dp4001
g1070
I-1
sg1071
I409
sbtp4002
sg697
(g1174
(idivisor
TwoPDivisor
p4003
(dp4004
g1070
I-1
sg1071
I419
sbtp4005
sg413
(g1158
(idivisor
TwoPDivisor
p4006
(dp4007
g1070
I-1
sg1071
I410
sbtp4008
sg243
(g1174
(idivisor
TwoPDivisor
p4009
(dp4010
g1070
I-1
sg1071
I441
sbtp4011
sg521
(g1114
(idivisor
TwoPDivisor
p4012
(dp4013
g1070
I-1
sg1071
I411
sbtp4014
sg467
(g1135
(idivisor
TwoPDivisor
p4015
(dp4016
g1070
I-1
sg1071
I441
sbtp4017
sg239
(g1075
(idivisor
TwoPDivisor
p4018
(dp4019
g1070
I-1
sg1071
I426
sbtp4020
sg273
(g1106
(idivisor
TwoPDivisor
p4021
(dp4022
g1070
I-1
sg1071
I456
sbtp4023
sg213
(g1289
(idivisor
TwoPDivisor
p4024
(dp4025
g1070
I-1
sg1071
I435
sbtp4026
sg652
(g1135
(idivisor
TwoPDivisor
p4027
(dp4028
g1070
I-1
sg1071
I431
sbtp4029
sg441
(g1119
(idivisor
TwoPDivisor
p4030
(dp4031
g1070
I-1
sg1071
I424
sbtp4032
sg749
(g1339
(idivisor
TwoPDivisor
p4033
(dp4034
g1070
I-1
sg1071
I416
sbtp4035
sg371
(g1075
(idivisor
TwoPDivisor
p4036
(dp4037
g1070
I-1
sg1071
I421
sbtp4038
sg446
(g1135
(idivisor
TwoPDivisor
p4039
(dp4040
g1070
I-1
sg1071
I442
sbtp4041
sg116
(g1655
(idivisor
TwoPDivisor
p4042
(dp4043
g1070
I-1
sg1071
I461
sbtp4044
sg905
(g1106
(idivisor
TwoPDivisor
p4045
(dp4046
g1070
I-1
sg1071
I415
sbtp4047
sg808
(g1339
(idivisor
TwoPDivisor
p4048
(dp4049
g1070
I-1
sg1071
I411
sbtp4050
sg294
(g1119
(idivisor
TwoPDivisor
p4051
(dp4052
g1070
I-1
sg1071
I430
sbtp4053
sg731
(g1185
(idivisor
TwoPDivisor
p4054
(dp4055
g1070
I-1
sg1071
I451
sbtp4056
sg680
(g1143
(idivisor
TwoPDivisor
p4057
(dp4058
g1070
I-1
sg1071
I412
sbtp4059
sg174
(g1205
(idivisor
TwoPDivisor
p4060
(dp4061
g1070
I-1
sg1071
I420
sbtp4062
sg196
(g1169
(idivisor
TwoPDivisor
p4063
(dp4064
g1070
I-1
sg1071
I406
sbtp4065
sg955
(g1093
(idivisor
TwoPDivisor
p4066
(dp4067
g1070
I-1
sg1071
I419
sbtp4068
sg617
(g1289
(idivisor
TwoPDivisor
p4069
(dp4070
g1070
I-1
sg1071
I417
sbtp4071
sg354
(g1067
(idivisor
TwoPDivisor
p4072
(dp4073
g1070
I-1
sg1071
I460
sbtp4074
sg80
(g1638
(idivisor
TwoPDivisor
p4075
(dp4076
g1070
I-1
sg1071
I470
sbtp4077
sg840
(g1093
(idivisor
TwoPDivisor
p4078
(dp4079
g1070
I-1
sg1071
I434
sbtp4080
sg991
(g1093
(idivisor
TwoPDivisor
p4081
(dp4082
g1070
I-1
sg1071
I413
sbtp4083
sg1060
(g1124
(idivisor
TwoPDivisor
p4084
(dp4085
g1070
I-1
sg1071
I405
sbtp4086
sg9
(g1344
(idivisor
TwoPDivisor
p4087
(dp4088
g1070
I-1
sg1071
I407
sbtp4089
sg719
(g1124
(idivisor
TwoPDivisor
p4090
(dp4091
g1070
I-1
sg1071
I454
sbtp4092
sg581
(g1075
(idivisor
TwoPDivisor
p4093
(dp4094
g1070
I-1
sg1071
I411
sbtp4095
sg646
(g1075
(idivisor
TwoPDivisor
p4096
(dp4097
g1070
I-1
sg1071
I407
sbtp4098
sg297
(g1174
(idivisor
TwoPDivisor
p4099
(dp4100
g1070
I-1
sg1071
I439
sbtp4101
sg922
(g1153
(idivisor
TwoPDivisor
p4102
(dp4103
g1070
I-1
sg1071
I428
sbtp4104
sg293
(g1075
(idivisor
TwoPDivisor
p4105
(dp4106
g1070
I-1
sg1071
I424
sbtp4107
sg474
(g1284
(idivisor
TwoPDivisor
p4108
(dp4109
g1070
I-1
sg1071
I404
sbtp4110
sg348
(g1143
(idivisor
TwoPDivisor
p4111
(dp4112
g1070
I-1
sg1071
I429
sbtp4113
sg726
(g1135
(idivisor
TwoPDivisor
p4114
(dp4115
g1070
I-1
sg1071
I426
sbtp4116
sg816
(g1289
(idivisor
TwoPDivisor
p4117
(dp4118
g1070
I-1
sg1071
I402
sbtp4119
sg134
(g1233
(idivisor
TwoPDivisor
p4120
(dp4121
g1070
I-1
sg1071
I413
sbtp4122
sg580
(g1393
(idivisor
TwoPDivisor
p4123
(dp4124
g1070
I-1
sg1071
I410
sbtp4125
sg934
(g1067
(idivisor
TwoPDivisor
p4126
(dp4127
g1070
I-1
sg1071
I417
sbtp4128
sg85
(g1185
(idivisor
TwoPDivisor
p4129
(dp4130
g1070
I-1
sg1071
I495
sbtp4131
sg396
(g1119
(idivisor
TwoPDivisor
p4132
(dp4133
g1070
I-1
sg1071
I426
sbtp4134
sg284
(g1233
(idivisor
TwoPDivisor
p4135
(dp4136
g1070
I-1
sg1071
I408
sbtp4137
sg645
(g1393
(idivisor
TwoPDivisor
p4138
(dp4139
g1070
I-1
sg1071
I406
sbtp4140
sg1025
(g1093
(idivisor
TwoPDivisor
p4141
(dp4142
g1070
I-1
sg1071
I406
sbtp4143
sg631
(g1119
(idivisor
TwoPDivisor
p4144
(dp4145
g1070
I-1
sg1071
I414
sbtp4146
sg884
(g1067
(idivisor
TwoPDivisor
p4147
(dp4148
g1070
I-1
sg1071
I424
sbtp4149
sg46
((idivisor
TwoPDivisor
p4150
(dp4151
g1070
I0
sg1071
I54
sb(idivisor
TwoPDivisor
p4152
(dp4153
g1070
I-1
sg1071
I402
sbtp4154
sg824
(g1185
(idivisor
TwoPDivisor
p4155
(dp4156
g1070
I-1
sg1071
I443
sbtp4157
sg557
(g1088
(idivisor
TwoPDivisor
p4158
(dp4159
g1070
I-1
sg1071
I402
sbtp4160
sg463
(g1143
(idivisor
TwoPDivisor
p4161
(dp4162
g1070
I-1
sg1071
I424
sbtp4163
sg436
(g1205
(idivisor
TwoPDivisor
p4164
(dp4165
g1070
I-1
sg1071
I410
sbtp4166
sg602
(g1174
(idivisor
TwoPDivisor
p4167
(dp4168
g1070
I-1
sg1071
I425
sbtp4169
sg421
(g1289
(idivisor
TwoPDivisor
p4170
(dp4171
g1070
I-1
sg1071
I427
sbtp4172
sg295
(g1143
(idivisor
TwoPDivisor
p4173
(dp4174
g1070
I-1
sg1071
I431
sbtp4175
sg67
(g2373
(idivisor
TwoPDivisor
p4176
(dp4177
g1070
I-1
sg1071
I435
sbtp4178
sg197
(g1305
(idivisor
TwoPDivisor
p4179
(dp4180
g1070
I-1
sg1071
I407
sbtp4181
sg489
(g1106
(idivisor
TwoPDivisor
p4182
(dp4183
g1070
I-1
sg1071
I447
sbtp4184
sg211
(g1119
(idivisor
TwoPDivisor
p4185
(dp4186
g1070
I-1
sg1071
I433
sbtp4187
sg215
(g1339
(idivisor
TwoPDivisor
p4188
(dp4189
g1070
I-1
sg1071
I443
sbtp4190
sg679
(g1119
(idivisor
TwoPDivisor
p4191
(dp4192
g1070
I-1
sg1071
I411
sbtp4193
sg801
(g1093
(idivisor
TwoPDivisor
p4194
(dp4195
g1070
I-1
sg1071
I438
sbtp4196
sg968
(g1153
(idivisor
TwoPDivisor
p4197
(dp4198
g1070
I-1
sg1071
I421
sbtp4199
sg1057
(g1185
(idivisor
TwoPDivisor
p4200
(dp4201
g1070
I-1
sg1071
I404
sbtp4202
sg839
(g1067
(idivisor
TwoPDivisor
p4203
(dp4204
g1070
I-1
sg1071
I429
sbtp4205
sg133
(g1300
(idivisor
TwoPDivisor
p4206
(dp4207
g1070
I-1
sg1071
I412
sbtp4208
sg479
(g1114
(idivisor
TwoPDivisor
p4209
(dp4210
g1070
I-1
sg1071
I413
sbtp4211
sg202
(g1284
(idivisor
TwoPDivisor
p4212
(dp4213
g1070
I-1
sg1071
I415
sbtp4214
sg565
(g1143
(idivisor
TwoPDivisor
p4215
(dp4216
g1070
I-1
sg1071
I419
sbtp4217
sg157
(g1093
(idivisor
TwoPDivisor
p4218
(dp4219
g1070
I-1
sg1071
I477
sbtp4220
sg1056
(g1124
(idivisor
TwoPDivisor
p4221
(dp4222
g1070
I-1
sg1071
I407
sbtp4223
sg764
(g1067
(idivisor
TwoPDivisor
p4224
(dp4225
g1070
I-1
sg1071
I436
sbtp4226
sg327
(g1106
(idivisor
TwoPDivisor
p4227
(dp4228
g1070
I-1
sg1071
I454
sbtp4229
sg5
(g4150
(idivisor
TwoPDivisor
p4230
(dp4231
g1070
I-1
sg1071
I403
sbtp4232
sg323
(g1289
(idivisor
TwoPDivisor
p4233
(dp4234
g1070
I-1
sg1071
I431
sbtp4235
sg124
(g1124
(idivisor
TwoPDivisor
p4236
(dp4237
g1070
I-1
sg1071
I496
sbtp4238
sg258
(g1284
(idivisor
TwoPDivisor
p4239
(dp4240
g1070
I-1
sg1071
I413
sbtp4241
sg452
(g1124
(idivisor
TwoPDivisor
p4242
(dp4243
g1070
I-1
sg1071
I472
sbtp4244
sg630
(g1075
(idivisor
TwoPDivisor
p4245
(dp4246
g1070
I-1
sg1071
I408
sbtp4247
sg838
(g1106
(idivisor
TwoPDivisor
p4248
(dp4249
g1070
I-1
sg1071
I423
sbtp4250
sg409
(g1233
(idivisor
TwoPDivisor
p4251
(dp4252
g1070
I-1
sg1071
I403
sbtp4253
sg529
(g1339
(idivisor
TwoPDivisor
p4254
(dp4255
g1070
I-1
sg1071
I430
sbtp4256
sg459
(g1080
(idivisor
TwoPDivisor
p4257
(dp4258
g1070
I-1
sg1071
I415
sbtp4259
sg1049
(g1185
(idivisor
TwoPDivisor
p4260
(dp4261
g1070
I-1
sg1071
I407
sbtp4262
sg920
(g1067
(idivisor
TwoPDivisor
p4263
(dp4264
g1070
I-1
sg1071
I419
sbtp4265
sg612
(g1080
(idivisor
TwoPDivisor
p4266
(dp4267
g1070
I-1
sg1071
I407
sbtp4268
sg496
(g1148
(idivisor
TwoPDivisor
p4269
(dp4270
g1070
I-1
sg1071
I404
sbtp4271
sg498
(g1158
(idivisor
TwoPDivisor
p4272
(dp4273
g1070
I-1
sg1071
I406
sbtp4274
sg554
(g1153
(idivisor
TwoPDivisor
p4275
(dp4276
g1070
I-1
sg1071
I460
sbtp4277
sg56
(g1233
(idivisor
TwoPDivisor
p4278
(dp4279
g1070
I-1
sg1071
I415
sbtp4280
sg435
(g1158
(idivisor
TwoPDivisor
p4281
(dp4282
g1070
I-1
sg1071
I409
sbtp4283
sg910
(g1124
(idivisor
TwoPDivisor
p4284
(dp4285
g1070
I-1
sg1071
I435
sbtp4286
sg539
(g1158
(idivisor
TwoPDivisor
p4287
(dp4288
g1070
I-1
sg1071
I404
sbtp4289
sg622
(g1067
(idivisor
TwoPDivisor
p4290
(dp4291
g1070
I-1
sg1071
I446
sbtp4292
sg790
(g1153
(idivisor
TwoPDivisor
p4293
(dp4294
g1070
I-1
sg1071
I443
sbtp4295
sg535
(g1185
(idivisor
TwoPDivisor
p4296
(dp4297
g1070
I-1
sg1071
I464
sbtp4298
sg395
(g1075
(idivisor
TwoPDivisor
p4299
(dp4300
g1070
I-1
sg1071
I420
sbtp4301
sg36
(g1106
(idivisor
TwoPDivisor
p4302
(dp4303
g1070
I-1
sg1071
I464
sbtp4304
sg844
(g1174
(idivisor
TwoPDivisor
p4305
(dp4306
g1070
I-1
sg1071
I406
sbtp4307
sg662
(g1075
(idivisor
TwoPDivisor
p4308
(dp4309
g1070
I-1
sg1071
I406
sbtp4310
sg867
(g1093
(idivisor
TwoPDivisor
p4311
(dp4312
g1070
I-1
sg1071
I431
sbtp4313
sg235
(g1205
(idivisor
TwoPDivisor
p4314
(dp4315
g1070
I-1
sg1071
I418
sbtp4316
sg50
(g1344
(idivisor
TwoPDivisor
p4317
(dp4318
g1070
I-1
sg1071
I406
sbtp4319
sg370
(g1393
(idivisor
TwoPDivisor
p4320
(dp4321
g1070
I-1
sg1071
I420
sbtp4322
sg632
(g1143
(idivisor
TwoPDivisor
p4323
(dp4324
g1070
I-1
sg1071
I415
sbtp4325
sg475
(g1148
(idivisor
TwoPDivisor
p4326
(dp4327
g1070
I-1
sg1071
I405
sbtp4328
sg1001
(g1093
(idivisor
TwoPDivisor
p4329
(dp4330
g1070
I-1
sg1071
I411
sbtp4331
sg673
(g1185
(idivisor
TwoPDivisor
p4332
(dp4333
g1070
I-1
sg1071
I455
sbtp4334
sg504
(g1119
(idivisor
TwoPDivisor
p4335
(dp4336
g1070
I-1
sg1071
I421
sbtp4337
sg454
(g1148
(idivisor
TwoPDivisor
p4338
(dp4339
g1070
I-1
sg1071
I406
sbtp4340
sg674
(g1124
(idivisor
TwoPDivisor
p4341
(dp4342
g1070
I-1
sg1071
I458
sbtp4343
sg725
(g1339
(idivisor
TwoPDivisor
p4344
(dp4345
g1070
I-1
sg1071
I418
sbtp4346
sg472
(g1185
(idivisor
TwoPDivisor
p4347
(dp4348
g1070
I-1
sg1071
I469
sbtp4349
sg967
(g1093
(idivisor
TwoPDivisor
p4350
(dp4351
g1070
I-1
sg1071
I417
sbtp4352
sg192
(g1185
(idivisor
TwoPDivisor
p4353
(dp4354
g1070
I-1
sg1071
I487
sbtp4355
sg1052
(g1185
(idivisor
TwoPDivisor
p4356
(dp4357
g1070
I-1
sg1071
I406
sbtp4358
sg711
(g1174
(idivisor
TwoPDivisor
p4359
(dp4360
g1070
I-1
sg1071
I418
sbtp4361
sg35
(g3169
(idivisor
TwoPDivisor
p4362
(dp4363
g1070
I-1
sg1071
I462
sbtp4364
sg913
(g1067
(idivisor
TwoPDivisor
p4365
(dp4366
g1070
I-1
sg1071
I420
sbtp4367
ss.