(dp0
S'ind'
p1
(lp2
(I0
I62
I0
tp3
a(I1
I41
I12
tp4
a(I1
I42
I10
tp5
a(I1
I45
I9
tp6
a(I1
I46
I8
tp7
a(I1
I47
I5
tp8
a(I1
I50
I6
tp9
a(I1
I54
I4
tp10
a(I1
I55
I3
tp11
a(I1
I59
I2
tp12
a(I2
I41
I10
tp13
a(I2
I42
I9
tp14
a(I2
I45
I8
tp15
a(I2
I46
I5
tp16
a(I2
I49
I6
tp17
a(I2
I50
I4
tp18
a(I2
I54
I3
tp19
a(I2
I58
I2
tp20
a(I3
I41
I9
tp21
a(I3
I44
I8
tp22
a(I3
I45
I5
tp23
a(I3
I49
I4
tp24
a(I3
I53
I3
tp25
a(I3
I55
I2
tp26
a(I4
I43
I8
tp27
a(I4
I44
I5
tp28
a(I4
I48
I4
tp29
a(I4
I51
I3
tp30
a(I4
I54
I2
tp31
a(I5
I42
I8
tp32
a(I5
I43
I5
tp33
a(I5
I47
I4
tp34
a(I5
I50
I3
tp35
a(I5
I53
I2
tp36
a(I6
I41
I8
tp37
a(I6
I42
I5
tp38
a(I6
I46
I4
tp39
a(I6
I49
I3
tp40
a(I6
I51
I2
tp41
a(I7
I41
I5
tp42
a(I7
I45
I4
tp43
a(I7
I48
I3
tp44
a(I7
I50
I2
tp45
a(I8
I44
I4
tp46
a(I8
I47
I3
tp47
a(I8
I49
I2
tp48
a(I9
I43
I4
tp49
a(I9
I46
I3
tp50
a(I9
I48
I2
tp51
a(I10
I42
I4
tp52
a(I10
I45
I3
tp53
a(I10
I47
I2
tp54
a(I11
I41
I4
tp55
a(I11
I44
I3
tp56
a(I11
I46
I2
tp57
a(I12
I43
I3
tp58
a(I12
I45
I2
tp59
a(I13
I42
I3
tp60
a(I13
I44
I2
tp61
a(I14
I41
I3
tp62
a(I14
I43
I2
tp63
a(I15
I42
I2
tp64
a(I16
I41
I2
tp65
asS'witness'
p66
(dp67
g34
((idivisor
TwoPDivisor
p68
(dp70
S'Q'
p71
I0
sS'P'
p72
I1
sb(idivisor
TwoPDivisor
p73
(dp74
g71
I-1
sg72
I48
sbtp75
sg3
((idivisor
TwoPDivisor
p76
(dp77
g71
I0
sg72
I-10
sb(idivisor
TwoPDivisor
p78
(dp79
g71
I-1
sg72
I63
sbtp80
sg31
((idivisor
TwoPDivisor
p81
(dp82
g71
I0
sg72
I-7
sb(idivisor
TwoPDivisor
p83
(dp84
g71
I-1
sg72
I55
sbtp85
sg42
((idivisor
TwoPDivisor
p86
(dp87
g71
I0
sg72
I5
sb(idivisor
TwoPDivisor
p88
(dp89
g71
I-1
sg72
I42
sbtp90
sg60
((idivisor
TwoPDivisor
p91
(dp92
g71
I0
sg72
I-3
sb(idivisor
TwoPDivisor
p93
(dp94
g71
I-1
sg72
I43
sbtp95
sg41
(g81
(idivisor
TwoPDivisor
p96
(dp97
g71
I-1
sg72
I52
sbtp98
sg55
(g68
(idivisor
TwoPDivisor
p99
(dp100
g71
I-1
sg72
I42
sbtp101
sg20
(g81
(idivisor
TwoPDivisor
p102
(dp103
g71
I-1
sg72
I59
sbtp104
sg51
(g81
(idivisor
TwoPDivisor
p105
(dp106
g71
I-1
sg72
I49
sbtp107
sg30
(g91
(idivisor
TwoPDivisor
p108
(dp109
g71
I-1
sg72
I52
sbtp110
sg62
(g91
(idivisor
TwoPDivisor
p111
(dp112
g71
I-1
sg72
I42
sbtp113
sg10
((idivisor
TwoPDivisor
p114
(dp115
g71
I0
sg72
I-2
sb(idivisor
TwoPDivisor
p116
(dp117
g71
I-1
sg72
I55
sbtp118
sg43
(g68
(idivisor
TwoPDivisor
p119
(dp120
g71
I-1
sg72
I46
sbtp121
sg50
(g91
(idivisor
TwoPDivisor
p122
(dp123
g71
I-1
sg72
I47
sbtp124
sg40
(g91
(idivisor
TwoPDivisor
p125
(dp126
g71
I-1
sg72
I50
sbtp127
sg5
((idivisor
TwoPDivisor
p128
(dp129
g71
I0
sg72
I10
sb(idivisor
TwoPDivisor
p130
(dp131
g71
I-1
sg72
I43
sbtp132
sg27
((idivisor
TwoPDivisor
p133
(dp134
g71
I0
sg72
I6
sb(idivisor
TwoPDivisor
p135
(dp136
g71
I-1
sg72
I44
sbtp137
sg45
(g81
(idivisor
TwoPDivisor
p138
(dp139
g71
I-1
sg72
I51
sbtp140
sg54
(g81
(idivisor
TwoPDivisor
p141
(dp142
g71
I-1
sg72
I48
sbtp143
sg52
(g68
(idivisor
TwoPDivisor
p144
(dp145
g71
I-1
sg72
I43
sbtp146
sg25
(g91
(idivisor
TwoPDivisor
p147
(dp148
g71
I-1
sg72
I54
sbtp149
sg6
((idivisor
TwoPDivisor
p150
(dp151
g71
I0
sg72
I7
sb(idivisor
TwoPDivisor
p152
(dp153
g71
I-1
sg72
I46
sbtp154
sg56
(g91
(idivisor
TwoPDivisor
p155
(dp156
g71
I-1
sg72
I45
sbtp157
sg11
(g91
(idivisor
TwoPDivisor
p158
(dp159
g71
I-1
sg72
I56
sbtp160
sg53
(g91
(idivisor
TwoPDivisor
p161
(dp162
g71
I-1
sg72
I46
sbtp163
sg59
(g81
(idivisor
TwoPDivisor
p164
(dp165
g71
I-1
sg72
I46
sbtp166
sg57
(g81
(idivisor
TwoPDivisor
p167
(dp168
g71
I-1
sg72
I47
sbtp169
sg35
(g91
(idivisor
TwoPDivisor
p170
(dp171
g71
I-1
sg72
I51
sbtp172
sg37
(g133
(idivisor
TwoPDivisor
p173
(dp174
g71
I-1
sg72
I42
sbtp175
sg24
(g68
(idivisor
TwoPDivisor
p176
(dp177
g71
I-1
sg72
I50
sbtp178
sg63
(g81
(idivisor
TwoPDivisor
p179
(dp180
g71
I-1
sg72
I44
sbtp181
sg26
(g81
(idivisor
TwoPDivisor
p182
(dp183
g71
I-1
sg72
I56
sbtp184
sg7
(g133
(idivisor
TwoPDivisor
p185
(dp186
g71
I-1
sg72
I47
sbtp187
sg21
((idivisor
TwoPDivisor
p188
(dp189
g71
I0
sg72
I9
sb(idivisor
TwoPDivisor
p190
(dp191
g71
I-1
sg72
I42
sbtp192
sg46
(g68
(idivisor
TwoPDivisor
p193
(dp194
g71
I-1
sg72
I45
sbtp195
sg14
(g188
(idivisor
TwoPDivisor
p196
(dp197
g71
I-1
sg72
I43
sbtp198
sg32
(g133
(idivisor
TwoPDivisor
p199
(dp200
g71
I-1
sg72
I43
sbtp201
sg4
((idivisor
TwoPDivisor
p202
(dp203
g71
I0
sg72
I11
sb(idivisor
TwoPDivisor
p204
(dp205
g71
I-1
sg72
I42
sbtp206
sg65
(g81
(idivisor
TwoPDivisor
p207
(dp208
g71
I-1
sg72
I42
sbtp209
sg8
(g86
(idivisor
TwoPDivisor
p210
(dp211
g71
I-1
sg72
I48
sbtp212
sg28
(g86
(idivisor
TwoPDivisor
p213
(dp214
g71
I-1
sg72
I45
sbtp215
sg17
((idivisor
TwoPDivisor
p216
(dp217
g71
I0
sg72
I2
sb(idivisor
TwoPDivisor
p218
(dp219
g71
I-1
sg72
I50
sbtp220
sg48
(g81
(idivisor
TwoPDivisor
p221
(dp222
g71
I-1
sg72
I50
sbtp223
sg16
(g86
(idivisor
TwoPDivisor
p224
(dp225
g71
I-1
sg72
I47
sbtp226
sg39
(g68
(idivisor
TwoPDivisor
p227
(dp228
g71
I-1
sg72
I47
sbtp229
sg15
(g133
(idivisor
TwoPDivisor
p230
(dp231
g71
I-1
sg72
I46
sbtp232
sg29
(g68
(idivisor
TwoPDivisor
p233
(dp234
g71
I-1
sg72
I49
sbtp235
sg38
(g86
(idivisor
TwoPDivisor
p236
(dp237
g71
I-1
sg72
I43
sbtp238
sg44
(g91
(idivisor
TwoPDivisor
p239
(dp240
g71
I-1
sg72
I49
sbtp241
sg58
(g91
(idivisor
TwoPDivisor
p242
(dp243
g71
I-1
sg72
I44
sbtp244
sg18
(g68
(idivisor
TwoPDivisor
p245
(dp246
g71
I-1
sg72
I51
sbtp247
sg22
(g133
(idivisor
TwoPDivisor
p248
(dp249
g71
I-1
sg72
I45
sbtp250
sg61
(g81
(idivisor
TwoPDivisor
p251
(dp252
g71
I-1
sg72
I45
sbtp253
sg64
(g81
(idivisor
TwoPDivisor
p254
(dp255
g71
I-1
sg72
I43
sbtp256
sg47
(g91
(idivisor
TwoPDivisor
p257
(dp258
g71
I-1
sg72
I48
sbtp259
sg19
(g91
(idivisor
TwoPDivisor
p260
(dp261
g71
I-1
sg72
I55
sbtp262
sg33
(g86
(idivisor
TwoPDivisor
p263
(dp264
g71
I-1
sg72
I44
sbtp265
sg36
(g81
(idivisor
TwoPDivisor
p266
(dp267
g71
I-1
sg72
I54
sbtp268
sg12
(g81
(idivisor
TwoPDivisor
p269
(dp270
g71
I-1
sg72
I60
sbtp271
sg49
(g68
(idivisor
TwoPDivisor
p272
(dp273
g71
I-1
sg72
I44
sbtp274
sg9
(g216
(idivisor
TwoPDivisor
p275
(dp276
g71
I-1
sg72
I51
sbtp277
sg13
(g128
(idivisor
TwoPDivisor
p278
(dp279
g71
I-1
sg72
I42
sbtp280
sg23
(g86
(idivisor
TwoPDivisor
p281
(dp282
g71
I-1
sg72
I46
sbtp283
ss.