(lp0
(I24
I20
I4
tp1
a(I5
I21
I15
tp2
a(I5
I47
I4
tp3
a(I21
I28
I2
tp4
a(I13
I16
I8
tp5
a(I0
I59
I2
tp6
a(I3
I16
I21
tp7
a(I4
I54
I2
tp8
a(I23
I18
I4
tp9
a(I4
I12
I25
tp10
a(I13
I45
I3
tp11
a(I17
I45
I2
tp12
a(I33
I11
I4
tp13
a(I10
I24
I8
tp14
a(I5
I44
I6
tp15
a(I2
I66
I0
tp16
a(I7
I23
I11
tp17
a(I35
I12
I2
tp18
a(I12
I27
I5
tp19
a(I17
I20
I6
tp20
a(I10
I22
I7
tp21
a(I3
I52
I0
tp22
a(I4
I11
I23
tp23
a(I15
I26
I3
tp24
a(I27
I22
I2
tp25
a(I10
I16
I15
tp26
a(I1
I67
I1
tp27
a(I8
I25
I8
tp28
a(I1
I47
I8
tp29
a(I9
I21
I7
tp30
a(I18
I12
I8
tp31
a(I26
I18
I3
tp32
a(I26
I15
I4
tp33
a(I30
I17
I1
tp34
a(I7
I48
I4
tp35
a(I19
I23
I3
tp36
a(I14
I44
I3
tp37
a(I1
I54
I0
tp38
a(I22
I15
I5
tp39
a(I20
I43
I1
tp40
a(I13
I17
I11
tp41
a(I4
I53
I3
tp42
a(I25
I15
I6
tp43
a(I19
I14
I10
tp44
a(I28
I23
I1
tp45
a(I13
I46
I2
tp46
a(I6
I42
I6
tp47
a(I16
I18
I7
tp48
a(I24
I11
I6
tp49
a(I5
I45
I5
tp50
a(I7
I9
I21
tp51
a(I30
I13
I3
tp52
a(I21
I15
I5
tp53
a(I14
I16
I11
tp54
a(I12
I12
I17
tp55
a(I20
I22
I4
tp56
a(I8
I28
I7
tp57
a(I12
I26
I6
tp58
a(I17
I21
I5
tp59
a(I7
I19
I15
tp60
a(I2
I55
I3
tp61
a(I22
I28
I2
tp62
a(I9
I54
I1
tp63
a(I27
I23
I1
tp64
a(I31
I13
I4
tp65
a(I5
I63
I1
tp66
a(I15
I11
I15
tp67
a(I18
I15
I9
tp68
a(I26
I21
I2
tp69
a(I7
I28
I7
tp70
a(I30
I16
I2
tp71
a(I6
I17
I16
tp72
a(I7
I49
I3
tp73
a(I34
I17
I1
tp74
a(I2
I22
I15
tp75
a(I11
I16
I12
tp76
a(I1
I26
I11
tp77
a(I3
I53
I2
tp78
a(I16
I14
I7
tp79
a(I14
I47
I2
tp80
a(I20
I42
I2
tp81
a(I8
I56
I1
tp82
a(I11
I46
I2
tp83
a(I3
I26
I8
tp84
a(I12
I11
I15
tp85
a(I0
I57
I0
tp86
a(I14
I25
I4
tp87
a(I35
I9
I2
tp88
a(I23
I16
I6
tp89
a(I15
I14
I12
tp90
a(I5
I24
I10
tp91
a(I28
I22
I2
tp92
a(I34
I12
I4
tp93
a(I5
I46
I4
tp94
a(I12
I44
I5
tp95
a(I10
I15
I14
tp96
a(I4
I23
I13
tp97
a(I7
I14
I20
tp98
a(I15
I17
I7
tp99
a(I20
I24
I2
tp100
a(I35
I10
I4
tp101
a(I20
I21
I5
tp102
a(I8
I27
I6
tp103
a(I12
I25
I7
tp104
a(I9
I42
I6
tp105
a(I17
I22
I4
tp106
a(I2
I12
I23
tp107
a(I3
I50
I6
tp108
a(I1
I51
I4
tp109
a(I10
I18
I9
tp110
a(I25
I12
I8
tp111
a(I22
I10
I7
tp112
a(I33
I14
I2
tp113
a(I12
I20
I11
tp114
a(I6
I16
I19
tp115
a(I7
I54
I2
tp116
a(I34
I16
I2
tp117
a(I19
I21
I5
tp118
a(I10
I25
I6
tp119
a(I0
I74
I1
tp120
a(I17
I43
I1
tp121
a(I1
I48
I6
tp122
a(I9
I14
I15
tp123
a(I3
I27
I11
tp124
a(I13
I23
I6
tp125
a(I12
I13
I14
tp126
a(I6
I25
I10
tp127
a(I19
I12
I8
tp128
a(I6
I52
I4
tp129
a(I4
I13
I24
tp130
a(I16
I16
I9
tp131
a(I9
I51
I3
tp132
a(I15
I9
I13
tp133
a(I4
I22
I14
tp134
a(I0
I54
I0
tp135
a(I15
I22
I6
tp136
a(I3
I28
I7
tp137
a(I12
I19
I9
tp138
a(I2
I21
I14
tp139
a(I8
I16
I14
tp140
a(I5
I42
I7
tp141
a(I2
I15
I22
tp142
a(I17
I26
I4
tp143
a(I13
I12
I13
tp144
a(I14
I42
I2
tp145
a(I12
I46
I2
tp146
a(I10
I21
I8
tp147
a(I5
I49
I3
tp148
a(I15
I19
I8
tp149
a(I1
I42
I11
tp150
a(I6
I15
I19
tp151
a(I10
I42
I5
tp152
a(I7
I55
I1
tp153
a(I19
I18
I4
tp154
a(I1
I27
I11
tp155
a(I24
I27
I1
tp156
a(I0
I73
I0
tp157
a(I1
I49
I5
tp158
a(I3
I14
I20
tp159
a(I8
I54
I3
tp160
a(I3
I24
I10
tp161
a(I20
I19
I6
tp162
a(I32
I15
I1
tp163
a(I14
I13
I13
tp164
a(I12
I28
I5
tp165
a(I25
I23
I2
tp166
a(I6
I24
I9
tp167
a(I25
I23
I1
tp168
a(I29
I12
I6
tp169
a(I2
I61
I0
tp170
a(I4
I12
I23
tp171
a(I22
I26
I1
tp172
a(I8
I43
I6
tp173
a(I27
I17
I4
tp174
a(I15
I24
I4
tp175
a(I4
I21
I15
tp176
a(I7
I12
I22
tp177
a(I33
I11
I2
tp178
a(I15
I23
I5
tp179
a(I7
I27
I7
tp180
a(I9
I15
I17
tp181
a(I12
I18
I10
tp182
a(I2
I24
I11
tp183
a(I10
I46
I2
tp184
a(I10
I48
I4
tp185
a(I3
I48
I4
tp186
a(I4
I15
I19
tp187
a(I24
I12
I5
tp188
a(I9
I49
I4
tp189
a(I12
I45
I3
tp190
a(I10
I20
I11
tp191
a(I13
I13
I16
tp192
a(I5
I50
I2
tp193
a(I4
I46
I4
tp194
a(I15
I14
I8
tp195
a(I6
I14
I20
tp196
a(I10
I45
I4
tp197
a(I7
I52
I0
tp198
a(I24
I26
I2
tp199
a(I16
I22
I4
tp200
a(I1
I50
I4
tp201
a(I8
I53
I2
tp202
a(I9
I14
I17
tp203
a(I20
I18
I5
tp204
a(I4
I60
I0
tp205
a(I20
I15
I6
tp206
a(I7
I19
I12
tp207
a(I23
I23
I3
tp208
a(I25
I16
I3
tp209
a(I6
I27
I8
tp210
a(I17
I10
I11
tp211
a(I0
I70
I0
tp212
a(I29
I13
I5
tp213
a(I6
I54
I2
tp214
a(I8
I12
I20
tp215
a(I12
I17
I11
tp216
a(I2
I27
I10
tp217
a(I11
I14
I12
tp218
a(I3
I58
I2
tp219
a(I6
I58
I2
tp220
a(I10
I26
I5
tp221
a(I4
I27
I11
tp222
a(I31
I14
I3
tp223
a(I3
I11
I24
tp224
a(I5
I51
I5
tp225
a(I4
I45
I5
tp226
a(I1
I43
I11
tp227
a(I7
I21
I12
tp228
a(I15
I15
I11
tp229
a(I41
I10
I1
tp230
a(I3
I18
I18
tp231
a(I29
I17
I3
tp232
a(I14
I22
I6
tp233
a(I25
I12
I6
tp234
a(I19
I16
I6
tp235
a(I5
I16
I20
tp236
a(I16
I21
I5
tp237
a(I16
I26
I4
tp238
a(I3
I12
I22
tp239
a(I6
I20
I11
tp240
a(I11
I42
I6
tp241
a(I9
I23
I8
tp242
a(I12
I15
I11
tp243
a(I20
I17
I4
tp244
a(I32
I13
I3
tp245
a(I14
I21
I8
tp246
a(I40
I12
I1
tp247
a(I5
I22
I14
tp248
a(I9
I46
I3
tp249
a(I0
I69
I1
tp250
a(I29
I14
I4
tp251
a(I2
I63
I2
tp252
a(I6
I49
I3
tp253
a(I12
I48
I1
tp254
a(I11
I16
I10
tp255
a(I31
I16
I2
tp256
a(I5
I55
I2
tp257
a(I12
I16
I12
tp258
a(I2
I26
I13
tp259
a(I8
I23
I10
tp260
a(I11
I15
I15
tp261
a(I18
I42
I2
tp262
a(I3
I59
I1
tp263
a(I37
I13
I2
tp264
a(I16
I17
I8
tp265
a(I24
I10
I7
tp266
a(I4
I26
I8
tp267
a(I27
I16
I4
tp268
a(I1
I63
I0
tp269
a(I36
I15
I2
tp270
a(I5
I52
I4
tp271
a(I8
I48
I2
tp272
a(I15
I12
I10
tp273
a(I14
I28
I4
tp274
a(I3
I19
I17
tp275
a(I10
I47
I6
tp276
a(I14
I17
I7
tp277
a(I25
I13
I5
tp278
a(I1
I28
I9
tp279
a(I34
I11
I4
tp280
a(I16
I25
I5
tp281
a(I21
I24
I2
tp282
a(I16
I11
I11
tp283
a(I4
I18
I15
tp284
a(I7
I11
I20
tp285
a(I8
I51
I4
tp286
a(I11
I43
I5
tp287
a(I32
I12
I4
tp288
a(I1
I74
I1
tp289
a(I14
I9
I16
tp290
a(I9
I47
I4
tp291
a(I10
I11
I17
tp292
a(I22
I18
I5
tp293
a(I2
I43
I10
tp294
a(I1
I14
I25
tp295
a(I21
I10
I10
tp296
a(I30
I11
I5
tp297
a(I2
I17
I21
tp298
a(I8
I22
I9
tp299
a(I11
I12
I14
tp300
a(I3
I56
I0
tp301
a(I38
I10
I2
tp302
a(I3
I28
I9
tp303
a(I24
I11
I8
tp304
a(I16
I16
I7
tp305
a(I10
I28
I7
tp306
a(I4
I25
I9
tp307
a(I6
I10
I22
tp308
a(I1
I71
I1
tp309
a(I36
I14
I1
tp310
a(I30
I21
I1
tp311
a(I5
I11
I24
tp312
a(I19
I27
I3
tp313
a(I23
I25
I2
tp314
a(I25
I14
I4
tp315
a(I17
I27
I4
tp316
a(I11
I26
I6
tp317
a(I34
I10
I3
tp318
a(I2
I47
I5
tp319
a(I27
I15
I3
tp320
a(I17
I13
I8
tp321
a(I20
I23
I2
tp322
a(I18
I26
I4
tp323
a(I3
I43
I7
tp324
a(I20
I12
I11
tp325
a(I15
I46
I2
tp326
a(I28
I19
I1
tp327
a(I13
I42
I2
tp328
a(I24
I16
I6
tp329
a(I16
I13
I11
tp330
a(I19
I22
I4
tp331
a(I22
I11
I10
tp332
a(I2
I65
I1
tp333
a(I3
I25
I12
tp334
a(I7
I42
I8
tp335
a(I8
I21
I8
tp336
a(I19
I23
I4
tp337
a(I9
I18
I12
tp338
a(I9
I12
I16
tp339
a(I28
I14
I4
tp340
a(I1
I57
I2
tp341
a(I1
I64
I0
tp342
a(I1
I19
I17
tp343
a(I1
I44
I9
tp344
a(I18
I11
I9
tp345
a(I26
I17
I2
tp346
a(I30
I20
I2
tp347
a(I19
I24
I2
tp348
a(I11
I27
I5
tp349
a(I5
I19
I17
tp350
a(I7
I20
I10
tp351
a(I34
I13
I2
tp352
a(I10
I44
I6
tp353
a(I0
I61
I0
tp354
a(I9
I18
I11
tp355
a(I35
I13
I2
tp356
a(I4
I48
I4
tp357
a(I18
I28
I2
tp358
a(I27
I15
I4
tp359
a(I40
I9
I2
tp360
a(I15
I47
I1
tp361
a(I28
I18
I2
tp362
a(I4
I10
I25
tp363
a(I33
I13
I4
tp364
a(I2
I64
I2
tp365
a(I7
I17
I13
tp366
a(I6
I13
I20
tp367
a(I11
I13
I16
tp368
a(I10
I22
I8
tp369
a(I19
I20
I5
tp370
a(I2
I50
I4
tp371
a(I5
I28
I7
tp372
a(I23
I9
I7
tp373
a(I22
I19
I3
tp374
a(I24
I18
I3
tp375
a(I13
I13
I14
tp376
a(I9
I13
I19
tp377
a(I28
I13
I5
tp378
a(I1
I58
I3
tp379
a(I5
I60
I0
tp380
a(I7
I25
I8
tp381
a(I3
I20
I14
tp382
a(I20
I10
I10
tp383
a(I7
I50
I2
tp384
a(I13
I47
I2
tp385
a(I4
I18
I16
tp386
a(I5
I20
I16
tp387
a(I7
I52
I4
tp388
a(I7
I14
I19
tp389
a(I30
I12
I5
tp390
a(I27
I13
I5
tp391
a(I18
I19
I7
tp392
a(I12
I12
I13
tp393
a(I35
I10
I3
tp394
a(I17
I12
I8
tp395
a(I7
I47
I4
tp396
a(I8
I15
I17
tp397
a(I28
I17
I3
tp398
a(I13
I44
I4
tp399
a(I10
I10
I19
tp400
a(I4
I9
I24
tp401
a(I24
I14
I4
tp402
a(I8
I42
I5
tp403
a(I32
I18
I1
tp404
a(I13
I23
I8
tp405
a(I7
I22
I12
tp406
a(I3
I23
I14
tp407
a(I6
I12
I23
tp408
a(I10
I43
I5
tp409
a(I14
I21
I6
tp410
a(I8
I19
I14
tp411
a(I11
I10
I17
tp412
a(I2
I53
I5
tp413
a(I23
I14
I6
tp414
a(I5
I23
I13
tp415
a(I14
I46
I2
tp416
a(I9
I14
I18
tp417
a(I1
I66
I2
tp418
a(I33
I13
I3
tp419
a(I11
I50
I1
tp420
a(I3
I46
I7
tp421
a(I20
I9
I11
tp422
a(I1
I20
I18
tp423
a(I23
I28
I1
tp424
a(I23
I11
I8
tp425
a(I6
I57
I2
tp426
a(I8
I43
I5
tp427
a(I2
I11
I24
tp428
a(I4
I22
I11
tp429
a(I7
I15
I16
tp430
a(I30
I15
I4
tp431
a(I27
I10
I4
tp432
a(I9
I19
I11
tp433
a(I15
I13
I12
tp434
a(I17
I13
I11
tp435
a(I7
I44
I5
tp436
a(I5
I11
I23
tp437
a(I19
I17
I7
tp438
a(I28
I16
I4
tp439
a(I2
I57
I0
tp440
a(I24
I13
I5
tp441
a(I28
I11
I6
tp442
a(I8
I11
I21
tp443
a(I10
I21
I7
tp444
a(I5
I49
I4
tp445
a(I3
I20
I15
tp446
a(I3
I42
I10
tp447
a(I30
I18
I1
tp448
a(I5
I23
I11
tp449
a(I8
I18
I13
tp450
a(I11
I11
I18
tp451
a(I2
I10
I25
tp452
a(I6
I46
I5
tp453
a(I19
I9
I10
tp454
a(I23
I15
I5
tp455
a(I16
I28
I3
tp456
a(I10
I16
I11
tp457
a(I13
I9
I16
tp458
a(I21
I16
I5
tp459
a(I8
I54
I4
tp460
a(I18
I12
I12
tp461
a(I11
I51
I2
tp462
a(I18
I22
I5
tp463
a(I3
I47
I4
tp464
a(I6
I23
I11
tp465
a(I1
I21
I17
tp466
a(I5
I15
I20
tp467
a(I9
I44
I4
tp468
a(I1
I25
I14
tp469
a(I28
I20
I1
tp470
a(I6
I56
I1
tp471
a(I13
I17
I7
tp472
a(I0
I53
I4
tp473
a(I9
I26
I7
tp474
a(I13
I28
I4
tp475
a(I4
I56
I0
tp476
a(I36
I16
I1
tp477
a(I2
I24
I12
tp478
a(I23
I19
I3
tp479
a(I25
I20
I3
tp480
a(I5
I12
I22
tp481
a(I17
I16
I9
tp482
a(I2
I56
I3
tp483
a(I8
I13
I20
tp484
a(I10
I27
I5
tp485
a(I28
I10
I5
tp486
a(I9
I11
I18
tp487
a(I5
I50
I5
tp488
a(I7
I20
I14
tp489
a(I6
I14
I17
tp490
a(I10
I45
I3
tp491
a(I14
I23
I4
tp492
a(I21
I9
I10
tp493
a(I15
I48
I1
tp494
a(I3
I62
I2
tp495
a(I2
I13
I24
tp496
a(I0
I51
I4
tp497
a(I16
I27
I2
tp498
a(I10
I19
I10
tp499
a(I13
I11
I15
tp500
a(I21
I17
I6
tp501
a(I13
I21
I8
tp502
a(I15
I11
I11
tp503
a(I11
I48
I3
tp504
a(I18
I25
I4
tp505
a(I7
I42
I6
tp506
a(I6
I22
I12
tp507
a(I1
I22
I16
tp508
a(I1
I20
I16
tp509
a(I13
I50
I1
tp510
a(I17
I42
I2
tp511
a(I1
I54
I3
tp512
a(I22
I14
I6
tp513
a(I1
I44
I7
tp514
a(I9
I27
I8
tp515
a(I3
I26
I12
tp516
a(I0
I57
I4
tp517
a(I4
I63
I1
tp518
a(I5
I13
I21
tp519
a(I3
I49
I0
tp520
a(I2
I59
I2
tp521
a(I6
I53
I3
tp522
a(I22
I24
I3
tp523
a(I9
I50
I0
tp524
a(I2
I46
I8
tp525
a(I22
I13
I8
tp526
a(I2
I14
I22
tp527
a(I5
I51
I2
tp528
a(I6
I25
I8
tp529
a(I17
I15
I9
tp530
a(I3
I63
I1
tp531
a(I7
I53
I4
tp532
a(I2
I12
I27
tp533
a(I8
I15
I16
tp534
a(I16
I15
I9
tp535
a(I10
I12
I15
tp536
a(I34
I15
I2
tp537
a(I1
I51
I0
tp538
a(I10
I18
I13
tp539
a(I3
I12
I25
tp540
a(I36
I11
I2
tp541
a(I9
I28
I4
tp542
a(I8
I52
I2
tp543
a(I4
I51
I4
tp544
a(I7
I43
I5
tp545
a(I0
I52
I5
tp546
a(I9
I46
I6
tp547
a(I3
I49
I4
tp548
a(I31
I11
I5
tp549
a(I22
I9
I7
tp550
a(I16
I10
I13
tp551
a(I7
I18
I15
tp552
a(I8
I13
I19
tp553
a(I12
I11
I16
tp554
a(I4
I62
I2
tp555
a(I12
I16
I9
tp556
a(I2
I26
I10
tp557
a(I14
I18
I8
tp558
a(I23
I17
I5
tp559
a(I25
I22
I1
tp560
a(I5
I14
I20
tp561
a(I2
I49
I4
tp562
a(I6
I52
I0
tp563
a(I37
I12
I1
tp564
a(I22
I27
I2
tp565
a(I16
I12
I12
tp566
a(I35
I14
I2
tp567
a(I5
I52
I3
tp568
a(I4
I14
I20
tp569
a(I3
I60
I0
tp570
a(I1
I19
I20
tp571
a(I1
I28
I12
tp572
a(I16
I14
I10
tp573
a(I24
I24
I1
tp574
a(I10
I21
I12
tp575
a(I13
I13
I13
tp576
a(I8
I51
I3
tp577
a(I21
I14
I7
tp578
a(I18
I14
I9
tp579
a(I3
I20
I16
tp580
a(I23
I21
I2
tp581
a(I1
I16
I22
tp582
a(I3
I19
I16
tp583
a(I5
I11
I21
tp584
a(I10
I11
I20
tp585
a(I2
I62
I2
tp586
a(I1
I15
I24
tp587
a(I10
I14
I14
tp588
a(I31
I17
I2
tp589
a(I9
I21
I10
tp590
a(I3
I24
I14
tp591
a(I12
I23
I8
tp592
a(I8
I49
I3
tp593
a(I23
I22
I4
tp594
a(I15
I42
I2
tp595
a(I27
I12
I5
tp596
a(I2
I48
I7
tp597
a(I6
I55
I1
tp598
a(I8
I47
I5
tp599
a(I4
I25
I12
tp600
a(I16
I42
I2
tp601
a(I5
I53
I0
tp602
a(I26
I11
I7
tp603
a(I29
I19
I2
tp604
a(I9
I43
I6
tp605
a(I22
I20
I2
tp606
a(I7
I16
I14
tp607
a(I5
I44
I8
tp608
a(I1
I61
I2
tp609
a(I1
I68
I0
tp610
a(I13
I14
I12
tp611
a(I8
I50
I0
tp612
a(I21
I15
I8
tp613
a(I18
I17
I8
tp614
a(I4
I49
I6
tp615
a(I6
I19
I15
tp616
a(I19
I28
I2
tp617
a(I25
I19
I3
tp618
a(I0
I67
I2
tp619
a(I34
I9
I2
tp620
a(I2
I42
I10
tp621
a(I4
I28
I9
tp622
a(I21
I11
I10
tp623
a(I0
I49
I0
tp624
a(I9
I22
I11
tp625
a(I19
I42
I1
tp626
a(I2
I28
I8
tp627
a(I2
I51
I6
tp628
a(I10
I13
I18
tp629
a(I8
I46
I6
tp630
a(I4
I24
I11
tp631
a(I12
I49
I2
tp632
a(I18
I11
I12
tp633
a(I9
I9
I19
tp634
a(I3
I53
I4
tp635
a(I18
I43
I1
tp636
a(I22
I23
I3
tp637
a(I24
I22
I3
tp638
a(I5
I19
I14
tp639
a(I31
I10
I5
tp640
a(I4
I27
I7
tp641
a(I5
I56
I0
tp642
a(I8
I9
I20
tp643
a(I21
I21
I2
tp644
a(I13
I25
I4
tp645
a(I1
I43
I7
tp646
a(I2
I23
I12
tp647
a(I13
I27
I5
tp648
a(I32
I10
I3
tp649
a(I1
I18
I20
tp650
a(I13
I43
I2
tp651
a(I0
I66
I1
tp652
a(I5
I16
I16
tp653
a(I17
I24
I5
tp654
a(I6
I50
I3
tp655
a(I33
I16
I1
tp656
a(I8
I42
I6
tp657
a(I19
I43
I2
tp658
a(I26
I14
I5
tp659
a(I14
I15
I11
tp660
a(I25
I17
I4
tp661
a(I7
I16
I15
tp662
a(I6
I44
I4
tp663
a(I12
I43
I4
tp664
a(I21
I9
I7
tp665
a(I9
I27
I6
tp666
a(I18
I10
I11
tp667
a(I6
I21
I12
tp668
a(I11
I15
I11
tp669
a(I19
I25
I2
tp670
a(I11
I21
I8
tp671
a(I38
I11
I1
tp672
a(I22
I22
I4
tp673
a(I24
I21
I2
tp674
a(I5
I20
I15
tp675
a(I1
I11
I27
tp676
a(I1
I52
I5
tp677
a(I12
I21
I10
tp678
a(I22
I13
I6
tp679
a(I2
I11
I27
tp680
a(I10
I15
I15
tp681
a(I13
I15
I10
tp682
a(I21
I22
I3
tp683
a(I13
I26
I5
tp684
a(I7
I26
I9
tp685
a(I15
I12
I14
tp686
a(I18
I28
I3
tp687
a(I3
I64
I0
tp688
a(I19
I26
I4
tp689
a(I23
I24
I1
tp690
a(I13
I44
I3
tp691
a(I0
I65
I0
tp692
a(I5
I17
I19
tp693
a(I16
I20
I6
tp694
a(I33
I17
I2
tp695
a(I2
I44
I8
tp696
a(I3
I13
I21
tp697
a(I31
I20
I1
tp698
a(I9
I16
I13
tp699
a(I12
I14
I12
tp700
a(I20
I16
I7
tp701
a(I14
I14
I12
tp702
a(I6
I26
I10
tp703
a(I2
I53
I0
tp704
a(I6
I47
I5
tp705
a(I6
I48
I4
tp706
a(I9
I52
I2
tp707
a(I1
I48
I8
tp708
a(I27
I9
I7
tp709
a(I6
I20
I15
tp710
a(I29
I22
I1
tp711
a(I19
I22
I3
tp712
a(I11
I18
I9
tp713
a(I7
I16
I18
tp714
a(I22
I17
I5
tp715
a(I5
I21
I12
tp716
a(I5
I47
I5
tp717
a(I1
I56
I5
tp718
a(I5
I58
I2
tp719
a(I13
I16
I11
tp720
a(I3
I16
I20
tp721
a(I20
I20
I4
tp722
a(I4
I54
I3
tp723
a(I14
I16
I8
tp724
a(I10
I53
I1
tp725
a(I1
I21
I19
tp726
a(I10
I15
I16
tp727
a(I5
I18
I18
tp728
a(I16
I19
I7
tp729
a(I24
I13
I8
tp730
a(I2
I66
I1
tp731
a(I7
I23
I8
tp732
a(I9
I17
I14
tp733
a(I35
I12
I1
tp734
a(I39
I10
I2
tp735
a(I12
I27
I4
tp736
a(I30
I9
I4
tp737
a(I19
I13
I10
tp738
a(I2
I52
I3
tp739
a(I4
I11
I22
tp740
a(I9
I53
I1
tp741
a(I10
I16
I12
tp742
a(I33
I12
I3
tp743
a(I15
I28
I4
tp744
a(I15
I10
I15
tp745
a(I18
I12
I9
tp746
a(I26
I15
I3
tp747
a(I11
I19
I10
tp748
a(I1
I25
I11
tp749
a(I22
I16
I6
tp750
a(I24
I19
I4
tp751
a(I5
I22
I13
tp752
a(I22
I15
I4
tp753
a(I13
I17
I8
tp754
a(I13
I28
I3
tp755
a(I7
I24
I11
tp756
a(I4
I53
I2
tp757
a(I23
I19
I4
tp758
a(I5
I25
I9
tp759
a(I10
I52
I2
tp760
a(I2
I56
I4
tp761
a(I6
I42
I7
tp762
a(I24
I9
I7
tp763
a(I3
I11
I23
tp764
a(I7
I9
I22
tp765
a(I30
I13
I2
tp766
a(I15
I16
I7
tp767
a(I21
I15
I6
tp768
a(I20
I25
I4
tp769
a(I4
I59
I1
tp770
a(I39
I11
I1
tp771
a(I12
I26
I7
tp772
a(I3
I53
I0
tp773
a(I2
I55
I2
tp774
a(I3
I47
I6
tp775
a(I10
I19
I13
tp776
a(I4
I28
I7
tp777
a(I16
I11
I13
tp778
a(I15
I11
I12
tp779
a(I18
I15
I8
tp780
a(I7
I28
I6
tp781
a(I3
I44
I8
tp782
a(I30
I16
I3
tp783
a(I12
I18
I9
tp784
a(I11
I16
I11
tp785
a(I1
I26
I10
tp786
a(I14
I47
I1
tp787
a(I1
I55
I0
tp788
a(I9
I13
I15
tp789
a(I13
I18
I9
tp790
a(I3
I26
I11
tp791
a(I12
I11
I14
tp792
a(I35
I9
I3
tp793
a(I23
I16
I5
tp794
a(I11
I21
I7
tp795
a(I3
I49
I5
tp796
a(I11
I24
I8
tp797
a(I4
I23
I12
tp798
a(I20
I24
I3
tp799
a(I4
I58
I2
tp800
a(I26
I9
I8
tp801
a(I20
I21
I4
tp802
a(I12
I25
I6
tp803
a(I25
I26
I1
tp804
a(I14
I11
I15
tp805
a(I17
I25
I2
tp806
a(I1
I51
I5
tp807
a(I10
I18
I10
tp808
a(I16
I47
I1
tp809
a(I33
I14
I1
tp810
a(I11
I49
I1
tp811
a(I30
I19
I2
tp812
a(I6
I16
I16
tp813
a(I11
I11
I15
tp814
a(I5
I23
I9
tp815
a(I17
I43
I2
tp816
a(I31
I15
I2
tp817
a(I9
I14
I14
tp818
a(I4
I55
I0
tp819
a(I4
I20
I17
tp820
a(I17
I10
I10
tp821
a(I15
I21
I5
tp822
a(I3
I27
I8
tp823
a(I0
I56
I0
tp824
a(I14
I24
I4
tp825
a(I3
I51
I5
tp826
a(I28
I21
I2
tp827
a(I2
I58
I2
tp828
a(I16
I16
I10
tp829
a(I9
I51
I4
tp830
a(I3
I9
I25
tp831
a(I7
I26
I7
tp832
a(I12
I19
I8
tp833
a(I35
I11
I4
tp834
a(I8
I16
I15
tp835
a(I2
I15
I21
tp836
a(I17
I26
I3
tp837
a(I22
I21
I4
tp838
a(I37
I9
I2
tp839
a(I10
I12
I17
tp840
a(I9
I48
I6
tp841
a(I4
I48
I6
tp842
a(I12
I46
I3
tp843
a(I10
I21
I11
tp844
a(I16
I46
I2
tp845
a(I5
I49
I0
tp846
a(I4
I47
I6
tp847
a(I1
I42
I10
tp848
a(I4
I52
I4
tp849
a(I6
I15
I18
tp850
a(I10
I42
I6
tp851
a(I3
I21
I14
tp852
a(I20
I13
I10
tp853
a(I9
I10
I18
tp854
a(I19
I18
I7
tp855
a(I1
I27
I12
tp856
a(I16
I23
I6
tp857
a(I1
I10
I27
tp858
a(I1
I15
I21
tp859
a(I31
I12
I3
tp860
a(I3
I14
I23
tp861
a(I8
I12
I17
tp862
a(I14
I27
I5
tp863
a(I8
I22
I7
tp864
a(I23
I22
I3
tp865
a(I19
I13
I8
tp866
a(I8
I17
I14
tp867
a(I6
I55
I4
tp868
a(I10
I13
I17
tp869
a(I22
I26
I2
tp870
a(I4
I21
I14
tp871
a(I7
I12
I21
tp872
a(I0
I53
I0
tp873
a(I18
I21
I5
tp874
a(I12
I18
I11
tp875
a(I10
I46
I3
tp876
a(I21
I13
I8
tp877
a(I4
I15
I18
tp878
a(I24
I12
I6
tp879
a(I16
I24
I4
tp880
a(I12
I45
I2
tp881
a(I10
I20
I8
tp882
a(I3
I10
I26
tp883
a(I15
I16
I8
tp884
a(I15
I14
I11
tp885
a(I41
I9
I1
tp886
a(I6
I14
I21
tp887
a(I29
I16
I3
tp888
a(I8
I17
I16
tp889
a(I11
I9
I17
tp890
a(I19
I19
I4
tp891
a(I16
I22
I5
tp892
a(I0
I72
I0
tp893
a(I2
I42
I7
tp894
a(I3
I15
I20
tp895
a(I8
I53
I1
tp896
a(I26
I24
I1
tp897
a(I30
I10
I4
tp898
a(I16
I15
I7
tp899
a(I32
I14
I3
tp900
a(I14
I12
I15
tp901
a(I24
I16
I5
tp902
a(I6
I27
I7
tp903
a(I9
I45
I3
tp904
a(I29
I9
I6
tp905
a(I0
I70
I1
tp906
a(I29
I13
I2
tp907
a(I2
I60
I0
tp908
a(I6
I54
I3
tp909
a(I29
I15
I4
tp910
a(I18
I20
I6
tp911
a(I12
I17
I10
tp912
a(I2
I27
I9
tp913
a(I11
I14
I15
tp914
a(I16
I12
I9
tp915
a(I1
I23
I16
tp916
a(I10
I26
I6
tp917
a(I4
I27
I10
tp918
a(I27
I19
I2
tp919
a(I10
I23
I9
tp920
a(I3
I11
I25
tp921
a(I31
I12
I4
tp922
a(I7
I21
I13
tp923
a(I15
I15
I8
tp924
a(I10
I44
I4
tp925
a(I14
I22
I7
tp926
a(I21
I42
I1
tp927
a(I35
I16
I1
tp928
a(I7
I53
I0
tp929
a(I24
I25
I2
tp930
a(I16
I21
I4
tp931
a(I4
I19
I15
tp932
a(I7
I10
I22
tp933
a(I9
I23
I9
tp934
a(I12
I15
I10
tp935
a(I32
I13
I2
tp936
a(I3
I45
I6
tp937
a(I40
I12
I2
tp938
a(I9
I46
I2
tp939
a(I0
I69
I0
tp940
a(I29
I14
I3
tp941
a(I2
I63
I1
tp942
a(I6
I49
I2
tp943
a(I37
I15
I1
tp944
a(I12
I48
I2
tp945
a(I1
I48
I5
tp946
a(I31
I16
I1
tp947
a(I5
I55
I3
tp948
a(I15
I10
I12
tp949
a(I12
I16
I13
tp950
a(I12
I15
I13
tp951
a(I11
I15
I12
tp952
a(I2
I14
I24
tp953
a(I2
I49
I0
tp954
a(I19
I10
I11
tp955
a(I18
I13
I10
tp956
a(I4
I26
I9
tp957
a(I27
I16
I3
tp958
a(I1
I63
I1
tp959
a(I18
I9
I10
tp960
a(I29
I18
I1
tp961
a(I12
I24
I8
tp962
a(I19
I26
I3
tp963
a(I7
I58
I1
tp964
a(I1
I28
I8
tp965
a(I8
I13
I18
tp966
a(I5
I60
I2
tp967
a(I16
I25
I4
tp968
a(I7
I11
I21
tp969
a(I21
I19
I4
tp970
a(I27
I14
I3
tp971
a(I4
I50
I3
tp972
a(I14
I20
I8
tp973
a(I14
I14
I9
tp974
a(I9
I47
I5
tp975
a(I5
I26
I8
tp976
a(I10
I11
I16
tp977
a(I2
I43
I9
tp978
a(I28
I12
I4
tp979
a(I21
I10
I9
tp980
a(I30
I11
I4
tp981
a(I2
I17
I20
tp982
a(I19
I13
I7
tp983
a(I11
I25
I5
tp984
a(I24
I20
I2
tp985
a(I6
I25
I9
tp986
a(I10
I28
I4
tp987
a(I4
I25
I8
tp988
a(I6
I21
I11
tp989
a(I1
I56
I0
tp990
a(I16
I10
I14
tp991
a(I5
I53
I4
tp992
a(I6
I11
I22
tp993
a(I21
I9
I8
tp994
a(I6
I28
I7
tp995
a(I5
I25
I10
tp996
a(I10
I14
I13
tp997
a(I21
I20
I5
tp998
a(I8
I50
I4
tp999
a(I9
I17
I11
tp1000
a(I12
I14
I16
tp1001
a(I35
I12
I4
tp1002
a(I32
I11
I4
tp1003
a(I7
I13
I18
tp1004
a(I10
I48
I2
tp1005
a(I6
I51
I0
tp1006
a(I22
I11
I9
tp1007
a(I2
I65
I0
tp1008
a(I1
I47
I6
tp1009
a(I3
I25
I13
tp1010
a(I8
I19
I11
tp1011
a(I2
I28
I12
tp1012
a(I18
I44
I1
tp1013
a(I3
I57
I0
tp1014
a(I5
I27
I7
tp1015
a(I31
I11
I3
tp1016
a(I16
I12
I11
tp1017
a(I28
I14
I5
tp1018
a(I1
I57
I3
tp1019
a(I5
I59
I2
tp1020
a(I1
I44
I8
tp1021
a(I18
I11
I8
tp1022
a(I20
I11
I8
tp1023
a(I1
I73
I1
tp1024
a(I7
I45
I4
tp1025
a(I5
I12
I24
tp1026
a(I11
I20
I11
tp1027
a(I28
I9
I6
tp1028
a(I17
I13
I12
tp1029
a(I18
I16
I7
tp1030
a(I35
I13
I3
tp1031
a(I5
I19
I16
tp1032
a(I4
I48
I5
tp1033
a(I7
I46
I6
tp1034
a(I40
I9
I1
tp1035
a(I10
I51
I3
tp1036
a(I28
I18
I3
tp1037
a(I24
I15
I6
tp1038
a(I13
I22
I6
tp1039
a(I7
I17
I14
tp1040
a(I3
I22
I12
tp1041
a(I33
I9
I2
tp1042
a(I11
I13
I17
tp1043
a(I19
I20
I4
tp1044
a(I2
I50
I5
tp1045
a(I9
I13
I16
tp1046
a(I28
I13
I4
tp1047
a(I1
I58
I2
tp1048
a(I1
I65
I0
tp1049
a(I1
I17
I20
tp1050
a(I11
I53
I1
tp1051
a(I26
I13
I5
tp1052
a(I20
I10
I11
tp1053
a(I4
I52
I2
tp1054
a(I17
I15
I7
tp1055
a(I6
I60
I1
tp1056
a(I31
I11
I2
tp1057
a(I6
I43
I5
tp1058
a(I4
I23
I11
tp1059
a(I7
I14
I18
tp1060
a(I27
I13
I6
tp1061
a(I0
I60
I0
tp1062
a(I18
I19
I6
tp1063
a(I12
I12
I14
tp1064
a(I35
I10
I2
tp1065
a(I4
I55
I4
tp1066
a(I17
I12
I11
tp1067
a(I7
I47
I5
tp1068
a(I5
I10
I23
tp1069
a(I28
I17
I2
tp1070
a(I2
I54
I2
tp1071
a(I23
I13
I5
tp1072
a(I24
I14
I5
tp1073
a(I5
I48
I6
tp1074
a(I11
I13
I15
tp1075
a(I20
I27
I2
tp1076
a(I2
I18
I17
tp1077
a(I6
I12
I20
tp1078
a(I10
I43
I4
tp1079
a(I11
I10
I16
tp1080
a(I3
I55
I2
tp1081
a(I2
I53
I4
tp1082
a(I8
I44
I4
tp1083
a(I12
I42
I3
tp1084
a(I10
I17
I11
tp1085
a(I1
I66
I1
tp1086
a(I0
I56
I5
tp1087
a(I3
I46
I6
tp1088
a(I26
I12
I6
tp1089
a(I20
I9
I10
tp1090
a(I13
I23
I7
tp1091
a(I11
I18
I13
tp1092
a(I10
I54
I1
tp1093
a(I13
I48
I2
tp1094
a(I7
I23
I7
tp1095
a(I21
I28
I1
tp1096
a(I7
I15
I17
tp1097
a(I9
I25
I7
tp1098
a(I27
I10
I7
tp1099
a(I9
I19
I12
tp1100
a(I15
I13
I13
tp1101
a(I2
I25
I14
tp1102
a(I23
I18
I3
tp1103
a(I7
I44
I4
tp1104
a(I19
I17
I8
tp1105
a(I2
I57
I3
tp1106
a(I32
I12
I2
tp1107
a(I24
I13
I4
tp1108
a(I5
I44
I5
tp1109
a(I5
I49
I5
tp1110
a(I7
I23
I12
tp1111
a(I2
I18
I18
tp1112
a(I2
I21
I16
tp1113
a(I30
I18
I2
tp1114
a(I17
I20
I5
tp1115
a(I11
I11
I19
tp1116
a(I2
I10
I26
tp1117
a(I3
I52
I3
tp1118
a(I6
I46
I6
tp1119
a(I19
I9
I11
tp1120
a(I27
I22
I1
tp1121
a(I13
I10
I15
tp1122
a(I21
I16
I4
tp1123
a(I5
I62
I1
tp1124
a(I18
I12
I13
tp1125
a(I3
I47
I5
tp1126
a(I6
I23
I10
tp1127
a(I5
I15
I21
tp1128
a(I12
I23
I7
tp1129
a(I28
I20
I2
tp1130
a(I13
I49
I1
tp1131
a(I1
I12
I28
tp1132
a(I31
I9
I4
tp1133
a(I9
I26
I6
tp1134
a(I27
I11
I4
tp1135
a(I0
I58
I2
tp1136
a(I4
I56
I1
tp1137
a(I12
I18
I12
tp1138
a(I2
I24
I13
tp1139
a(I16
I45
I2
tp1140
a(I17
I14
I9
tp1141
a(I25
I20
I2
tp1142
a(I17
I16
I8
tp1143
a(I19
I14
I9
tp1144
a(I2
I56
I0
tp1145
a(I10
I27
I4
tp1146
a(I5
I45
I6
tp1147
a(I9
I11
I19
tp1148
a(I1
I67
I2
tp1149
a(I4
I16
I17
tp1150
a(I5
I50
I4
tp1151
a(I7
I20
I13
tp1152
a(I2
I20
I19
tp1153
a(I6
I14
I18
tp1154
a(I10
I45
I2
tp1155
a(I17
I21
I6
tp1156
a(I32
I14
I2
tp1157
a(I10
I13
I15
tp1158
a(I27
I23
I2
tp1159
a(I10
I19
I9
tp1160
a(I13
I10
I16
tp1161
a(I8
I53
I4
tp1162
a(I9
I14
I16
tp1163
a(I26
I21
I1
tp1164
a(I11
I48
I2
tp1165
a(I32
I14
I4
tp1166
a(I12
I21
I7
tp1167
a(I6
I22
I13
tp1168
a(I7
I49
I0
tp1169
a(I9
I45
I4
tp1170
a(I1
I26
I14
tp1171
a(I0
I75
I1
tp1172
a(I8
I12
I21
tp1173
a(I1
I55
I4
tp1174
a(I1
I66
I0
tp1175
a(I22
I14
I7
tp1176
a(I12
I10
I16
tp1177
a(I8
I14
I19
tp1178
a(I0
I57
I3
tp1179
a(I4
I63
I0
tp1180
a(I2
I27
I12
tp1181
a(I10
I9
I19
tp1182
a(I5
I24
I9
tp1183
a(I2
I59
I1
tp1184
a(I6
I53
I2
tp1185
a(I37
I11
I1
tp1186
a(I25
I9
I8
tp1187
a(I12
I44
I2
tp1188
a(I15
I26
I5
tp1189
a(I16
I44
I1
tp1190
a(I5
I51
I3
tp1191
a(I14
I12
I16
tp1192
a(I2
I12
I24
tp1193
a(I3
I50
I5
tp1194
a(I16
I15
I8
tp1195
a(I1
I65
I2
tp1196
a(I9
I9
I20
tp1197
a(I3
I12
I24
tp1198
a(I21
I18
I6
tp1199
a(I9
I28
I7
tp1200
a(I8
I52
I3
tp1201
a(I15
I20
I8
tp1202
a(I21
I13
I7
tp1203
a(I26
I20
I2
tp1204
a(I18
I24
I4
tp1205
a(I12
I20
I8
tp1206
a(I7
I54
I1
tp1207
a(I9
I46
I5
tp1208
a(I29
I12
I5
tp1209
a(I7
I18
I16
tp1210
a(I6
I58
I0
tp1211
a(I4
I20
I13
tp1212
a(I7
I18
I14
tp1213
a(I11
I47
I2
tp1214
a(I9
I20
I8
tp1215
a(I3
I27
I12
tp1216
a(I3
I17
I21
tp1217
a(I12
I16
I10
tp1218
a(I2
I26
I11
tp1219
a(I14
I18
I9
tp1220
a(I5
I14
I19
tp1221
a(I29
I11
I4
tp1222
a(I22
I27
I1
tp1223
a(I22
I12
I8
tp1224
a(I5
I52
I2
tp1225
a(I15
I22
I5
tp1226
a(I12
I24
I5
tp1227
a(I1
I19
I21
tp1228
a(I16
I14
I11
tp1229
a(I24
I24
I2
tp1230
a(I16
I20
I8
tp1231
a(I1
I60
I0
tp1232
a(I16
I11
I10
tp1233
a(I8
I51
I2
tp1234
a(I21
I14
I6
tp1235
a(I18
I14
I10
tp1236
a(I4
I50
I4
tp1237
a(I6
I16
I15
tp1238
a(I23
I21
I3
tp1239
a(I7
I55
I2
tp1240
a(I9
I47
I2
tp1241
a(I23
I10
I8
tp1242
a(I1
I49
I6
tp1243
a(I9
I15
I13
tp1244
a(I7
I19
I13
tp1245
a(I11
I44
I3
tp1246
a(I9
I21
I11
tp1247
a(I3
I24
I13
tp1248
a(I20
I19
I5
tp1249
a(I4
I61
I2
tp1250
a(I26
I12
I8
tp1251
a(I17
I9
I12
tp1252
a(I6
I24
I10
tp1253
a(I17
I19
I5
tp1254
a(I2
I48
I4
tp1255
a(I5
I26
I11
tp1256
a(I3
I28
I8
tp1257
a(I6
I55
I0
tp1258
a(I8
I47
I4
tp1259
a(I16
I42
I3
tp1260
a(I9
I19
I13
tp1261
a(I1
I74
I0
tp1262
a(I15
I23
I6
tp1263
a(I26
I11
I6
tp1264
a(I6
I10
I23
tp1265
a(I8
I25
I7
tp1266
a(I3
I61
I0
tp1267
a(I18
I9
I12
tp1268
a(I38
I9
I2
tp1269
a(I22
I20
I3
tp1270
a(I10
I20
I12
tp1271
a(I13
I14
I11
tp1272
a(I27
I15
I5
tp1273
a(I3
I21
I16
tp1274
a(I32
I11
I3
tp1275
a(I6
I19
I14
tp1276
a(I19
I28
I1
tp1277
a(I23
I26
I2
tp1278
a(I25
I19
I4
tp1279
a(I13
I42
I4
tp1280
a(I19
I10
I8
tp1281
a(I16
I13
I10
tp1282
a(I2
I42
I11
tp1283
a(I1
I50
I7
tp1284
a(I4
I28
I10
tp1285
a(I11
I45
I4
tp1286
a(I9
I22
I10
tp1287
a(I12
I9
I17
tp1288
a(I20
I18
I6
tp1289
a(I12
I22
I8
tp1290
a(I2
I28
I9
tp1291
a(I14
I12
I11
tp1292
a(I40
I13
I1
tp1293
a(I17
I28
I4
tp1294
a(I2
I51
I5
tp1295
a(I6
I45
I6
tp1296
a(I37
I14
I2
tp1297
a(I3
I60
I2
tp1298
a(I12
I49
I1
tp1299
a(I1
I19
I18
tp1300
a(I5
I54
I0
tp1301
a(I15
I20
I7
tp1302
a(I2
I18
I19
tp1303
a(I29
I20
I2
tp1304
a(I8
I24
I8
tp1305
a(I3
I58
I1
tp1306
a(I22
I23
I2
tp1307
a(I5
I19
I15
tp1308
a(I31
I10
I4
tp1309
a(I5
I20
I12
tp1310
a(I1
I62
I2
tp1311
a(I1
I69
I0
tp1312
a(I21
I21
I3
tp1313
a(I27
I12
I4
tp1314
a(I1
I43
I8
tp1315
a(I7
I21
I9
tp1316
a(I18
I16
I8
tp1317
a(I3
I18
I17
tp1318
a(I13
I24
I6
tp1319
a(I23
I27
I1
tp1320
a(I25
I12
I5
tp1321
a(I13
I43
I3
tp1322
a(I5
I16
I19
tp1323
a(I6
I50
I4
tp1324
a(I1
I9
I27
tp1325
a(I21
I12
I10
tp1326
a(I11
I42
I5
tp1327
a(I12
I15
I14
tp1328
a(I20
I17
I7
tp1329
a(I26
I14
I6
tp1330
a(I14
I15
I10
tp1331
a(I1
I23
I15
tp1332
a(I3
I54
I4
tp1333
a(I6
I44
I5
tp1334
a(I4
I49
I5
tp1335
a(I8
I45
I6
tp1336
a(I13
I13
I15
tp1337
a(I9
I27
I7
tp1338
a(I3
I27
I7
tp1339
a(I29
I21
I1
tp1340
a(I8
I23
I9
tp1341
a(I11
I14
I16
tp1342
a(I19
I25
I3
tp1343
a(I3
I59
I2
tp1344
a(I7
I57
I1
tp1345
a(I16
I11
I12
tp1346
a(I5
I20
I14
tp1347
a(I1
I52
I4
tp1348
a(I7
I52
I3
tp1349
a(I1
I70
I1
tp1350
a(I13
I15
I11
tp1351
a(I36
I15
I1
tp1352
a(I21
I22
I2
tp1353
a(I13
I26
I4
tp1354
a(I7
I26
I8
tp1355
a(I15
I12
I13
tp1356
a(I4
I55
I3
tp1357
a(I14
I17
I10
tp1358
a(I25
I13
I6
tp1359
a(I10
I50
I1
tp1360
a(I8
I18
I11
tp1361
a(I13
I44
I2
tp1362
a(I5
I17
I16
tp1363
a(I16
I20
I7
tp1364
a(I1
I10
I26
tp1365
a(I2
I44
I9
tp1366
a(I21
I13
I9
tp1367
a(I11
I43
I6
tp1368
a(I9
I16
I12
tp1369
a(I35
I15
I1
tp1370
a(I20
I13
I7
tp1371
a(I17
I11
I9
tp1372
a(I25
I18
I4
tp1373
a(I2
I53
I3
tp1374
a(I6
I47
I4
tp1375
a(I6
I48
I5
tp1376
a(I38
I9
I1
tp1377
a(I12
I42
I4
tp1378
a(I10
I17
I14
tp1379
a(I1
I59
I2
tp1380
a(I1
I17
I21
tp1381
a(I6
I20
I12
tp1382
a(I8
I22
I10
tp1383
a(I3
I56
I3
tp1384
a(I11
I18
I8
tp1385
a(I18
I24
I2
tp1386
a(I22
I17
I4
tp1387
a(I14
I45
I2
tp1388
a(I5
I47
I6
tp1389
a(I10
I22
I9
tp1390
a(I5
I58
I1
tp1391
a(I13
I16
I10
tp1392
a(I36
I14
I2
tp1393
a(I4
I22
I12
tp1394
a(I3
I16
I19
tp1395
a(I20
I20
I5
tp1396
a(I4
I54
I0
tp1397
a(I17
I13
I13
tp1398
a(I3
I65
I0
tp1399
a(I23
I20
I2
tp1400
a(I0
I64
I0
tp1401
a(I16
I19
I6
tp1402
a(I8
I11
I20
tp1403
a(I2
I47
I8
tp1404
a(I21
I25
I2
tp1405
a(I15
I19
I7
tp1406
a(I2
I66
I2
tp1407
a(I21
I14
I8
tp1408
a(I0
I62
I2
tp1409
a(I9
I17
I15
tp1410
a(I12
I13
I12
tp1411
a(I25
I24
I2
tp1412
a(I20
I12
I8
tp1413
a(I27
I11
I6
tp1414
a(I2
I45
I7
tp1415
a(I11
I17
I10
tp1416
a(I2
I52
I0
tp1417
a(I4
I11
I25
tp1418
a(I6
I51
I4
tp1419
a(I10
I16
I13
tp1420
a(I33
I12
I2
tp1421
a(I15
I28
I3
tp1422
a(I15
I10
I14
tp1423
a(I3
I25
I9
tp1424
a(I8
I21
I11
tp1425
a(I11
I12
I18
tp1426
a(I11
I13
I14
tp1427
a(I17
I10
I13
tp1428
a(I11
I19
I11
tp1429
a(I22
I16
I7
tp1430
a(I5
I22
I12
tp1431
a(I13
I17
I9
tp1432
a(I11
I52
I2
tp1433
a(I8
I25
I9
tp1434
a(I14
I19
I8
tp1435
a(I11
I20
I7
tp1436
a(I10
I52
I3
tp1437
a(I22
I9
I8
tp1438
a(I11
I27
I6
tp1439
a(I17
I46
I1
tp1440
a(I34
I13
I1
tp1441
a(I30
I13
I5
tp1442
a(I21
I15
I7
tp1443
a(I15
I15
I7
tp1444
a(I20
I22
I2
tp1445
a(I12
I26
I4
tp1446
a(I25
I25
I1
tp1447
a(I2
I13
I22
tp1448
a(I15
I47
I2
tp1449
a(I10
I19
I12
tp1450
a(I4
I19
I16
tp1451
a(I32
I19
I1
tp1452
a(I15
I11
I13
tp1453
a(I18
I15
I7
tp1454
a(I2
I19
I18
tp1455
a(I6
I13
I19
tp1456
a(I14
I26
I4
tp1457
a(I6
I22
I10
tp1458
a(I6
I17
I18
tp1459
a(I8
I20
I12
tp1460
a(I1
I20
I19
tp1461
a(I25
I11
I5
tp1462
a(I24
I18
I4
tp1463
a(I34
I14
I1
tp1464
a(I13
I18
I8
tp1465
a(I11
I46
I4
tp1466
a(I3
I26
I10
tp1467
a(I26
I16
I2
tp1468
a(I1
I23
I14
tp1469
a(I14
I25
I6
tp1470
a(I35
I9
I4
tp1471
a(I20
I10
I7
tp1472
a(I23
I16
I4
tp1473
a(I9
I26
I8
tp1474
a(I5
I24
I12
tp1475
a(I3
I49
I6
tp1476
a(I11
I24
I7
tp1477
a(I10
I26
I8
tp1478
a(I13
I23
I5
tp1479
a(I2
I14
I23
tp1480
a(I2
I68
I0
tp1481
a(I20
I21
I3
tp1482
a(I12
I25
I5
tp1483
a(I14
I11
I14
tp1484
a(I17
I25
I3
tp1485
a(I24
I10
I8
tp1486
a(I1
I51
I6
tp1487
a(I10
I18
I11
tp1488
a(I22
I10
I9
tp1489
a(I32
I18
I2
tp1490
a(I3
I23
I11
tp1491
a(I11
I49
I2
tp1492
a(I3
I45
I8
tp1493
a(I30
I19
I1
tp1494
a(I6
I16
I17
tp1495
a(I8
I19
I13
tp1496
a(I2
I11
I25
tp1497
a(I23
I14
I5
tp1498
a(I24
I17
I5
tp1499
a(I31
I15
I3
tp1500
a(I16
I9
I12
tp1501
a(I8
I55
I2
tp1502
a(I15
I21
I6
tp1503
a(I3
I27
I9
tp1504
a(I26
I19
I3
tp1505
a(I14
I24
I5
tp1506
a(I8
I23
I7
tp1507
a(I7
I51
I2
tp1508
a(I10
I47
I3
tp1509
a(I7
I22
I10
tp1510
a(I28
I21
I1
tp1511
a(I2
I58
I3
tp1512
a(I27
I10
I5
tp1513
a(I6
I57
I1
tp1514
a(I12
I52
I1
tp1515
a(I16
I12
I13
tp1516
a(I3
I9
I26
tp1517
a(I4
I57
I2
tp1518
a(I4
I14
I21
tp1519
a(I2
I25
I10
tp1520
a(I8
I16
I16
tp1521
a(I2
I15
I20
tp1522
a(I18
I9
I11
tp1523
a(I3
I51
I3
tp1524
a(I16
I14
I12
tp1525
a(I14
I42
I4
tp1526
a(I27
I21
I1
tp1527
a(I10
I21
I10
tp1528
a(I4
I17
I18
tp1529
a(I6
I15
I17
tp1530
a(I3
I42
I9
tp1531
a(I20
I13
I9
tp1532
a(I6
I19
I16
tp1533
a(I8
I18
I14
tp1534
a(I38
I13
I2
tp1535
a(I5
I11
I22
tp1536
a(I1
I27
I13
tp1537
a(I23
I15
I6
tp1538
a(I1
I15
I22
tp1539
a(I2
I43
I7
tp1540
a(I31
I12
I2
tp1541
a(I29
I18
I2
tp1542
a(I3
I14
I22
tp1543
a(I8
I54
I1
tp1544
a(I11
I44
I6
tp1545
a(I8
I12
I18
tp1546
a(I17
I28
I2
tp1547
a(I26
I18
I4
tp1548
a(I32
I15
I3
tp1549
a(I14
I27
I4
tp1550
a(I14
I13
I15
tp1551
a(I23
I22
I2
tp1552
a(I7
I48
I3
tp1553
a(I6
I24
I7
tp1554
a(I8
I49
I0
tp1555
a(I19
I13
I9
tp1556
a(I2
I61
I2
tp1557
a(I1
I12
I24
tp1558
a(I6
I56
I2
tp1559
a(I31
I18
I2
tp1560
a(I15
I15
I12
tp1561
a(I18
I21
I4
tp1562
a(I14
I16
I12
tp1563
a(I10
I46
I4
tp1564
a(I5
I12
I21
tp1565
a(I22
I20
I4
tp1566
a(I37
I10
I2
tp1567
a(I24
I12
I7
tp1568
a(I9
I49
I2
tp1569
a(I16
I24
I5
tp1570
a(I13
I14
I14
tp1571
a(I10
I20
I9
tp1572
a(I4
I16
I21
tp1573
a(I5
I50
I0
tp1574
a(I15
I14
I10
tp1575
a(I26
I22
I1
tp1576
a(I10
I45
I6
tp1577
a(I14
I23
I7
tp1578
a(I7
I22
I11
tp1579
a(I3
I62
I1
tp1580
a(I11
I9
I18
tp1581
a(I38
I12
I1
tp1582
a(I23
I12
I7
tp1583
a(I0
I72
I1
tp1584
a(I4
I17
I16
tp1585
a(I3
I15
I21
tp1586
a(I1
I18
I19
tp1587
a(I8
I53
I0
tp1588
a(I30
I10
I5
tp1589
a(I8
I11
I19
tp1590
a(I18
I25
I3
tp1591
a(I7
I42
I5
tp1592
a(I14
I12
I12
tp1593
a(I7
I49
I4
tp1594
a(I29
I13
I3
tp1595
a(I2
I60
I1
tp1596
a(I1
I13
I27
tp1597
a(I31
I19
I1
tp1598
a(I0
I52
I0
tp1599
a(I8
I14
I15
tp1600
a(I12
I17
I9
tp1601
a(I2
I27
I8
tp1602
a(I17
I24
I4
tp1603
a(I11
I14
I14
tp1604
a(I5
I13
I22
tp1605
a(I16
I12
I10
tp1606
a(I22
I10
I8
tp1607
a(I0
I63
I2
tp1608
a(I10
I26
I7
tp1609
a(I9
I50
I3
tp1610
a(I27
I19
I3
tp1611
a(I10
I23
I8
tp1612
a(I15
I17
I8
tp1613
a(I15
I15
I9
tp1614
a(I6
I9
I23
tp1615
a(I10
I44
I5
tp1616
a(I3
I63
I2
tp1617
a(I7
I53
I1
tp1618
a(I11
I28
I6
tp1619
a(I24
I25
I1
tp1620
a(I18
I27
I3
tp1621
a(I14
I43
I4
tp1622
a(I16
I26
I2
tp1623
a(I18
I24
I3
tp1624
a(I4
I19
I14
tp1625
a(I36
I11
I1
tp1626
a(I9
I23
I10
tp1627
a(I4
I51
I3
tp1628
a(I3
I45
I7
tp1629
a(I7
I43
I6
tp1630
a(I14
I15
I13
tp1631
a(I17
I11
I12
tp1632
a(I11
I17
I12
tp1633
a(I29
I14
I2
tp1634
a(I2
I63
I0
tp1635
a(I1
I14
I26
tp1636
a(I22
I9
I10
tp1637
a(I21
I9
I9
tp1638
a(I5
I55
I4
tp1639
a(I4
I25
I10
tp1640
a(I3
I17
I17
tp1641
a(I12
I16
I14
tp1642
a(I11
I15
I13
tp1643
a(I2
I14
I25
tp1644
a(I19
I12
I7
tp1645
a(I22
I22
I2
tp1646
a(I24
I21
I4
tp1647
a(I12
I21
I9
tp1648
a(I27
I16
I2
tp1649
a(I1
I63
I2
tp1650
a(I15
I27
I2
tp1651
a(I33
I10
I4
tp1652
a(I18
I9
I13
tp1653
a(I3
I19
I15
tp1654
a(I10
I47
I4
tp1655
a(I19
I26
I2
tp1656
a(I17
I23
I4
tp1657
a(I11
I22
I8
tp1658
a(I1
I28
I11
tp1659
a(I16
I25
I3
tp1660
a(I21
I24
I4
tp1661
a(I36
I10
I2
tp1662
a(I21
I19
I5
tp1663
a(I11
I43
I3
tp1664
a(I4
I50
I0
tp1665
a(I14
I14
I10
tp1666
a(I40
I11
I2
tp1667
a(I1
I16
I21
tp1668
a(I9
I47
I6
tp1669
a(I0
I68
I0
tp1670
a(I2
I43
I8
tp1671
a(I28
I12
I5
tp1672
a(I4
I43
I8
tp1673
a(I13
I20
I7
tp1674
a(I21
I10
I8
tp1675
a(I30
I11
I3
tp1676
a(I7
I19
I11
tp1677
a(I5
I26
I7
tp1678
a(I23
I11
I7
tp1679
a(I11
I25
I6
tp1680
a(I24
I20
I3
tp1681
a(I10
I28
I5
tp1682
a(I1
I56
I3
tp1683
a(I21
I23
I2
tp1684
a(I17
I28
I3
tp1685
a(I6
I22
I9
tp1686
a(I6
I11
I21
tp1687
a(I9
I20
I12
tp1688
a(I14
I48
I1
tp1689
a(I1
I55
I5
tp1690
a(I36
I9
I3
tp1691
a(I21
I20
I4
tp1692
a(I18
I17
I7
tp1693
a(I3
I66
I1
tp1694
a(I40
I10
I1
tp1695
a(I1
I17
I22
tp1696
a(I10
I48
I3
tp1697
a(I0
I67
I1
tp1698
a(I22
I11
I8
tp1699
a(I1
I47
I7
tp1700
a(I7
I17
I16
tp1701
a(I2
I16
I20
tp1702
a(I19
I12
I11
tp1703
a(I13
I22
I8
tp1704
a(I5
I59
I0
tp1705
a(I15
I43
I2
tp1706
a(I3
I57
I1
tp1707
a(I24
I19
I2
tp1708
a(I8
I46
I3
tp1709
a(I9
I12
I18
tp1710
a(I28
I14
I2
tp1711
a(I1
I57
I0
tp1712
a(I1
I64
I2
tp1713
a(I15
I25
I4
tp1714
a(I5
I54
I4
tp1715
a(I26
I17
I4
tp1716
a(I26
I10
I5
tp1717
a(I20
I11
I11
tp1718
a(I17
I14
I7
tp1719
a(I7
I45
I5
tp1720
a(I7
I56
I2
tp1721
a(I8
I49
I4
tp1722
a(I11
I21
I9
tp1723
a(I12
I13
I16
tp1724
a(I2
I23
I15
tp1725
a(I32
I10
I4
tp1726
a(I6
I18
I13
tp1727
a(I14
I11
I16
tp1728
a(I10
I51
I2
tp1729
a(I0
I66
I2
tp1730
a(I6
I50
I0
tp1731
a(I20
I11
I10
tp1732
a(I2
I64
I0
tp1733
a(I7
I17
I15
tp1734
a(I6
I13
I22
tp1735
a(I4
I13
I20
tp1736
a(I8
I20
I9
tp1737
a(I11
I13
I18
tp1738
a(I3
I54
I0
tp1739
a(I2
I50
I6
tp1740
a(I12
I43
I3
tp1741
a(I9
I13
I17
tp1742
a(I28
I13
I3
tp1743
a(I1
I65
I1
tp1744
a(I36
I12
I1
tp1745
a(I1
I45
I8
tp1746
a(I11
I20
I9
tp1747
a(I7
I25
I10
tp1748
a(I17
I14
I11
tp1749
a(I26
I13
I4
tp1750
a(I20
I10
I8
tp1751
a(I4
I52
I3
tp1752
a(I7
I50
I4
tp1753
a(I17
I18
I7
tp1754
a(I5
I57
I0
tp1755
a(I6
I11
I23
tp1756
a(I1
I52
I0
tp1757
a(I21
I27
I1
tp1758
a(I4
I23
I10
tp1759
a(I9
I24
I7
tp1760
a(I8
I10
I19
tp1761
a(I18
I19
I5
tp1762
a(I12
I12
I15
tp1763
a(I17
I12
I10
tp1764
a(I5
I10
I22
tp1765
a(I9
I42
I5
tp1766
a(I2
I54
I3
tp1767
a(I10
I12
I18
tp1768
a(I23
I13
I6
tp1769
a(I34
I11
I3
tp1770
a(I2
I67
I1
tp1771
a(I18
I27
I4
tp1772
a(I9
I16
I16
tp1773
a(I3
I23
I12
tp1774
a(I6
I12
I21
tp1775
a(I6
I26
I7
tp1776
a(I3
I55
I3
tp1777
a(I9
I18
I14
tp1778
a(I9
I52
I1
tp1779
a(I8
I44
I5
tp1780
a(I10
I17
I10
tp1781
a(I28
I10
I4
tp1782
a(I13
I9
I15
tp1783
a(I3
I42
I8
tp1784
a(I5
I61
I1
tp1785
a(I18
I13
I9
tp1786
a(I26
I12
I7
tp1787
a(I20
I9
I9
tp1788
a(I1
I20
I20
tp1789
a(I9
I11
I17
tp1790
a(I17
I19
I8
tp1791
a(I11
I18
I12
tp1792
a(I1
I24
I15
tp1793
a(I1
I53
I3
tp1794
a(I2
I19
I20
tp1795
a(I27
I10
I6
tp1796
a(I10
I15
I13
tp1797
a(I0
I59
I0
tp1798
a(I15
I13
I14
tp1799
a(I4
I54
I4
tp1800
a(I17
I13
I9
tp1801
a(I3
I18
I20
tp1802
a(I15
I45
I1
tp1803
a(I2
I57
I2
tp1804
a(I34
I10
I4
tp1805
a(I14
I42
I3
tp1806
a(I27
I24
I1
tp1807
a(I6
I15
I20
tp1808
a(I39
I10
I1
tp1809
a(I17
I20
I4
tp1810
a(I11
I11
I16
tp1811
a(I2
I10
I27
tp1812
a(I3
I52
I2
tp1813
a(I2
I52
I4
tp1814
a(I19
I9
I12
tp1815
a(I9
I53
I2
tp1816
a(I8
I43
I4
tp1817
a(I3
I43
I8
tp1818
a(I13
I10
I14
tp1819
a(I21
I16
I7
tp1820
a(I18
I12
I10
tp1821
a(I12
I22
I7
tp1822
a(I6
I23
I9
tp1823
a(I19
I15
I8
tp1824
a(I7
I48
I6
tp1825
a(I9
I44
I6
tp1826
a(I1
I25
I12
tp1827
a(I31
I9
I5
tp1828
a(I22
I15
I7
tp1829
a(I27
I11
I5
tp1830
a(I4
I56
I2
tp1831
a(I17
I14
I8
tp1832
a(I25
I15
I4
tp1833
a(I19
I14
I8
tp1834
a(I17
I27
I2
tp1835
a(I22
I25
I2
tp1836
a(I5
I45
I7
tp1837
a(I9
I11
I20
tp1838
a(I29
I9
I5
tp1839
a(I4
I16
I18
tp1840
a(I32
I16
I1
tp1841
a(I7
I20
I12
tp1842
a(I2
I20
I16
tp1843
a(I6
I14
I19
tp1844
a(I39
I11
I2
tp1845
a(I8
I28
I5
tp1846
a(I12
I14
I13
tp1847
a(I2
I13
I26
tp1848
a(I3
I53
I5
tp1849
a(I10
I13
I14
tp1850
a(I8
I42
I7
tp1851
a(I31
I13
I2
tp1852
a(I10
I19
I8
tp1853
a(I21
I17
I4
tp1854
a(I21
I12
I7
tp1855
a(I30
I16
I4
tp1856
a(I14
I14
I13
tp1857
a(I9
I45
I5
tp1858
a(I11
I16
I14
tp1859
a(I1
I26
I13
tp1860
a(I23
I9
I8
tp1861
a(I0
I75
I0
tp1862
a(I31
I14
I4
tp1863
a(I8
I14
I16
tp1864
a(I13
I24
I5
tp1865
a(I12
I17
I12
tp1866
a(I20
I15
I8
tp1867
a(I5
I13
I19
tp1868
a(I17
I17
I8
tp1869
a(I5
I24
I8
tp1870
a(I2
I59
I0
tp1871
a(I37
I11
I2
tp1872
a(I5
I46
I6
tp1873
a(I12
I44
I3
tp1874
a(I15
I26
I4
tp1875
a(I16
I44
I2
tp1876
a(I9
I20
I9
tp1877
a(I30
I12
I2
tp1878
a(I26
I9
I7
tp1879
a(I17
I22
I6
tp1880
a(I2
I12
I25
tp1881
a(I3
I50
I4
tp1882
a(I16
I15
I11
tp1883
a(I27
I20
I2
tp1884
a(I13
I11
I16
tp1885
a(I21
I18
I5
tp1886
a(I9
I28
I6
tp1887
a(I9
I23
I7
tp1888
a(I26
I20
I3
tp1889
a(I32
I13
I4
tp1890
a(I12
I20
I9
tp1891
a(I6
I17
I15
tp1892
a(I7
I54
I0
tp1893
a(I9
I46
I4
tp1894
a(I6
I58
I1
tp1895
a(I4
I20
I14
tp1896
a(I9
I45
I6
tp1897
a(I11
I47
I3
tp1898
a(I9
I20
I11
tp1899
a(I12
I11
I18
tp1900
a(I4
I62
I0
tp1901
a(I12
I16
I11
tp1902
a(I14
I18
I10
tp1903
a(I5
I14
I18
tp1904
a(I2
I49
I6
tp1905
a(I19
I12
I10
tp1906
a(I9
I51
I1
tp1907
a(I12
I51
I2
tp1908
a(I30
I15
I3
tp1909
a(I15
I22
I4
tp1910
a(I14
I13
I12
tp1911
a(I8
I26
I7
tp1912
a(I12
I24
I6
tp1913
a(I12
I28
I6
tp1914
a(I14
I10
I13
tp1915
a(I22
I21
I3
tp1916
a(I10
I15
I12
tp1917
a(I8
I13
I17
tp1918
a(I1
I72
I1
tp1919
a(I1
I60
I3
tp1920
a(I9
I10
I20
tp1921
a(I3
I13
I24
tp1922
a(I13
I13
I11
tp1923
a(I4
I47
I5
tp1924
a(I15
I9
I15
tp1925
a(I26
I23
I2
tp1926
a(I4
I50
I5
tp1927
a(I13
I24
I7
tp1928
a(I23
I21
I4
tp1929
a(I7
I55
I3
tp1930
a(I9
I47
I3
tp1931
a(I1
I27
I9
tp1932
a(I29
I15
I2
tp1933
a(I16
I23
I5
tp1934
a(I16
I28
I4
tp1935
a(I1
I49
I7
tp1936
a(I9
I15
I14
tp1937
a(I26
I25
I1
tp1938
a(I11
I44
I2
tp1939
a(I9
I21
I8
tp1940
a(I3
I24
I12
tp1941
a(I20
I19
I4
tp1942
a(I35
I16
I2
tp1943
a(I1
I12
I25
tp1944
a(I39
I13
I1
tp1945
a(I14
I13
I11
tp1946
a(I17
I9
I13
tp1947
a(I15
I42
I4
tp1948
a(I17
I19
I6
tp1949
a(I2
I48
I5
tp1950
a(I0
I71
I1
tp1951
a(I29
I12
I4
tp1952
a(I4
I12
I21
tp1953
a(I5
I59
I1
tp1954
a(I24
I11
I7
tp1955
a(I27
I17
I2
tp1956
a(I12
I50
I1
tp1957
a(I15
I24
I6
tp1958
a(I30
I14
I4
tp1959
a(I26
I11
I5
tp1960
a(I5
I21
I13
tp1961
a(I3
I61
I1
tp1962
a(I5
I25
I11
tp1963
a(I3
I48
I6
tp1964
a(I16
I13
I9
tp1965
a(I24
I23
I2
tp1966
a(I5
I18
I15
tp1967
a(I16
I19
I8
tp1968
a(I27
I18
I4
tp1969
a(I1
I61
I0
tp1970
a(I1
I68
I2
tp1971
a(I3
I10
I25
tp1972
a(I13
I14
I10
tp1973
a(I21
I20
I3
tp1974
a(I4
I46
I6
tp1975
a(I3
I21
I17
tp1976
a(I18
I26
I3
tp1977
a(I33
I11
I3
tp1978
a(I7
I52
I2
tp1979
a(I1
I56
I4
tp1980
a(I17
I9
I11
tp1981
a(I16
I22
I6
tp1982
a(I34
I9
I4
tp1983
a(I20
I11
I9
tp1984
a(I1
I50
I6
tp1985
a(I26
I24
I2
tp1986
a(I11
I45
I5
tp1987
a(I9
I22
I9
tp1988
a(I12
I9
I16
tp1989
a(I22
I12
I9
tp1990
a(I17
I10
I12
tp1991
a(I1
I22
I15
tp1992
a(I2
I51
I4
tp1993
a(I25
I11
I8
tp1994
a(I19
I10
I12
tp1995
a(I6
I54
I0
tp1996
a(I8
I46
I4
tp1997
a(I1
I75
I0
tp1998
a(I15
I20
I6
tp1999
a(I13
I24
I4
tp2000
a(I19
I19
I6
tp2001
a(I8
I24
I9
tp2002
a(I3
I58
I0
tp2003
a(I16
I12
I14
tp2004
a(I4
I27
I9
tp2005
a(I1
I62
I1
tp2006
a(I5
I56
I2
tp2007
a(I8
I26
I8
tp2008
a(I4
I45
I7
tp2009
a(I1
I43
I9
tp2010
a(I14
I16
I9
tp2011
a(I3
I18
I16
tp2012
a(I18
I18
I7
tp2013
a(I5
I9
I24
tp2014
a(I12
I19
I7
tp2015
a(I25
I12
I4
tp2016
a(I19
I16
I8
tp2017
a(I5
I16
I18
tp2018
a(I16
I21
I7
tp2019
a(I6
I50
I5
tp2020
a(I7
I10
I21
tp2021
a(I11
I42
I4
tp2022
a(I8
I10
I20
tp2023
a(I20
I17
I6
tp2024
a(I1
I72
I0
tp2025
a(I12
I21
I8
tp2026
a(I20
I14
I7
tp2027
a(I14
I15
I9
tp2028
a(I23
I20
I4
tp2029
a(I28
I16
I2
tp2030
a(I8
I45
I5
tp2031
a(I11
I26
I5
tp2032
a(I5
I55
I0
tp2033
a(I7
I25
I7
tp2034
a(I7
I47
I3
tp2035
a(I6
I21
I14
tp2036
a(I8
I23
I8
tp2037
a(I19
I25
I4
tp2038
a(I2
I14
I21
tp2039
a(I11
I21
I10
tp2040
a(I16
I14
I8
tp2041
a(I31
I11
I4
tp2042
a(I4
I26
I10
tp2043
a(I5
I57
I1
tp2044
a(I13
I15
I12
tp2045
a(I4
I44
I8
tp2046
a(I15
I12
I12
tp2047
a(I3
I19
I19
tp2048
a(I4
I55
I2
tp2049
a(I4
I46
I5
tp2050
a(I3
I17
I18
tp2051
a(I25
I13
I7
tp2052
a(I10
I50
I2
tp2053
a(I28
I17
I4
tp2054
a(I5
I17
I17
tp2055
a(I10
I12
I19
tp2056
a(I3
I13
I23
tp2057
a(I7
I11
I22
tp2058
a(I15
I18
I7
tp2059
a(I0
I63
I0
tp2060
a(I9
I16
I15
tp2061
a(I12
I20
I7
tp2062
a(I17
I11
I10
tp2063
a(I25
I18
I3
tp2064
a(I3
I55
I4
tp2065
a(I10
I11
I19
tp2066
a(I7
I23
I9
tp2067
a(I9
I52
I4
tp2068
a(I12
I42
I5
tp2069
a(I1
I59
I3
tp2070
a(I18
I18
I6
tp2071
a(I6
I20
I13
tp2072
a(I8
I22
I11
tp2073
a(I18
I45
I1
tp2074
a(I3
I56
I2
tp2075
a(I11
I18
I11
tp2076
a(I16
I10
I12
tp2077
a(I1
I53
I4
tp2078
a(I4
I25
I11
tp2079
a(I10
I22
I10
tp2080
a(I5
I58
I0
tp2081
a(I13
I16
I13
tp2082
a(I13
I12
I16
tp2083
a(I7
I27
I8
tp2084
a(I3
I16
I18
tp2085
a(I3
I65
I1
tp2086
a(I14
I12
I14
tp2087
a(I25
I14
I6
tp2088
a(I28
I16
I3
tp2089
a(I7
I22
I9
tp2090
a(I11
I26
I4
tp2091
a(I32
I12
I3
tp2092
a(I5
I18
I16
tp2093
a(I13
I12
I15
tp2094
a(I33
I18
I1
tp2095
a(I2
I47
I7
tp2096
a(I21
I25
I3
tp2097
a(I15
I46
I1
tp2098
a(I23
I12
I8
tp2099
a(I12
I27
I6
tp2100
a(I12
I14
I14
tp2101
a(I20
I12
I9
tp2102
a(I14
I9
I15
tp2103
a(I3
I52
I5
tp2104
a(I4
I11
I24
tp2105
a(I24
I16
I4
tp2106
a(I15
I28
I2
tp2107
a(I18
I12
I7
tp2108
a(I3
I25
I10
tp2109
a(I30
I17
I2
tp2110
a(I13
I22
I7
tp2111
a(I8
I21
I10
tp2112
a(I11
I12
I17
tp2113
a(I2
I9
I26
tp2114
a(I18
I44
I2
tp2115
a(I11
I19
I8
tp2116
a(I22
I16
I4
tp2117
a(I5
I22
I11
tp2118
a(I1
I54
I5
tp2119
a(I4
I24
I12
tp2120
a(I1
I57
I4
tp2121
a(I36
I13
I2
tp2122
a(I18
I11
I11
tp2123
a(I7
I24
I9
tp2124
a(I20
I11
I7
tp2125
a(I4
I53
I0
tp2126
a(I14
I19
I7
tp2127
a(I19
I24
I4
tp2128
a(I29
I9
I4
tp2129
a(I10
I14
I17
tp2130
a(I0
I55
I0
tp2131
a(I6
I21
I10
tp2132
a(I21
I26
I2
tp2133
a(I30
I13
I4
tp2134
a(I0
I61
I2
tp2135
a(I9
I18
I13
tp2136
a(I20
I22
I3
tp2137
a(I12
I26
I5
tp2138
a(I7
I46
I5
tp2139
a(I4
I60
I1
tp2140
a(I2
I55
I0
tp2141
a(I22
I28
I1
tp2142
a(I24
I15
I5
tp2143
a(I2
I16
I19
tp2144
a(I2
I19
I17
tp2145
a(I6
I13
I18
tp2146
a(I14
I26
I5
tp2147
a(I6
I22
I11
tp2148
a(I8
I20
I13
tp2149
a(I25
I11
I6
tp2150
a(I22
I19
I5
tp2151
a(I1
I55
I2
tp2152
a(I12
I10
I17
tp2153
a(I20
I42
I1
tp2154
a(I18
I10
I12
tp2155
a(I26
I16
I3
tp2156
a(I1
I13
I23
tp2157
a(I8
I24
I7
tp2158
a(I7
I50
I0
tp2159
a(I10
I9
I18
tp2160
a(I4
I61
I1
tp2161
a(I29
I10
I5
tp2162
a(I28
I22
I1
tp2163
a(I19
I10
I9
tp2164
a(I11
I24
I6
tp2165
a(I2
I9
I27
tp2166
a(I34
I12
I3
tp2167
a(I18
I13
I8
tp2168
a(I4
I23
I14
tp2169
a(I7
I14
I17
tp2170
a(I0
I55
I4
tp2171
a(I2
I68
I1
tp2172
a(I4
I58
I0
tp2173
a(I7
I18
I12
tp2174
a(I12
I25
I4
tp2175
a(I7
I47
I6
tp2176
a(I14
I11
I13
tp2177
a(I15
I44
I2
tp2178
a(I24
I14
I6
tp2179
a(I9
I55
I1
tp2180
a(I6
I24
I11
tp2181
a(I12
I47
I2
tp2182
a(I22
I10
I10
tp2183
a(I5
I48
I5
tp2184
a(I16
I9
I14
tp2185
a(I20
I27
I1
tp2186
a(I20
I16
I8
tp2187
a(I25
I10
I7
tp2188
a(I8
I19
I12
tp2189
a(I3
I17
I19
tp2190
a(I34
I16
I1
tp2191
a(I5
I26
I10
tp2192
a(I23
I14
I4
tp2193
a(I24
I17
I4
tp2194
a(I13
I19
I8
tp2195
a(I9
I24
I8
tp2196
a(I15
I21
I7
tp2197
a(I41
I12
I1
tp2198
a(I26
I19
I2
tp2199
a(I3
I46
I5
tp2200
a(I7
I16
I17
tp2201
a(I14
I16
I10
tp2202
a(I7
I51
I3
tp2203
a(I6
I25
I7
tp2204
a(I5
I25
I12
tp2205
a(I13
I48
I1
tp2206
a(I6
I57
I0
tp2207
a(I0
I71
I0
tp2208
a(I4
I22
I13
tp2209
a(I7
I15
I18
tp2210
a(I4
I44
I6
tp2211
a(I9
I19
I9
tp2212
a(I15
I13
I10
tp2213
a(I12
I19
I10
tp2214
a(I35
I11
I2
tp2215
a(I39
I9
I1
tp2216
a(I5
I21
I14
tp2217
a(I8
I16
I17
tp2218
a(I22
I15
I8
tp2219
a(I19
I17
I5
tp2220
a(I3
I51
I0
tp2221
a(I24
I13
I7
tp2222
a(I28
I11
I4
tp2223
a(I27
I21
I2
tp2224
a(I4
I17
I17
tp2225
a(I5
I45
I4
tp2226
a(I32
I17
I2
tp2227
a(I7
I24
I10
tp2228
a(I1
I42
I8
tp2229
a(I20
I26
I2
tp2230
a(I6
I15
I16
tp2231
a(I14
I20
I7
tp2232
a(I20
I13
I8
tp2233
a(I8
I18
I15
tp2234
a(I23
I15
I7
tp2235
a(I1
I15
I23
tp2236
a(I1
I49
I0
tp2237
a(I13
I20
I9
tp2238
a(I11
I44
I5
tp2239
a(I8
I12
I19
tp2240
a(I11
I26
I7
tp2241
a(I32
I15
I2
tp2242
a(I14
I27
I3
tp2243
a(I14
I13
I14
tp2244
a(I22
I12
I10
tp2245
a(I7
I48
I2
tp2246
a(I5
I15
I18
tp2247
a(I29
I12
I3
tp2248
a(I13
I49
I2
tp2249
a(I1
I12
I27
tp2250
a(I4
I21
I12
tp2251
a(I7
I12
I19
tp2252
a(I7
I13
I21
tp2253
a(I8
I15
I15
tp2254
a(I26
I11
I8
tp2255
a(I2
I24
I14
tp2256
a(I10
I46
I5
tp2257
a(I5
I52
I0
tp2258
a(I5
I12
I20
tp2259
a(I17
I24
I3
tp2260
a(I3
I20
I18
tp2261
a(I16
I13
I12
tp2262
a(I37
I10
I1
tp2263
a(I10
I27
I7
tp2264
a(I9
I49
I3
tp2265
a(I27
I18
I3
tp2266
a(I10
I14
I16
tp2267
a(I16
I45
I1
tp2268
a(I20
I25
I3
tp2269
a(I26
I22
I2
tp2270
a(I14
I23
I6
tp2271
a(I20
I12
I7
tp2272
a(I6
I18
I16
tp2273
a(I3
I62
I0
tp2274
a(I24
I26
I1
tp2275
a(I24
I12
I8
tp2276
a(I23
I12
I6
tp2277
a(I9
I50
I4
tp2278
a(I13
I11
I13
tp2279
a(I11
I45
I2
tp2280
a(I8
I11
I18
tp2281
a(I18
I25
I2
tp2282
a(I3
I44
I7
tp2283
a(I14
I12
I13
tp2284
a(I7
I49
I5
tp2285
a(I2
I22
I14
tp2286
a(I5
I27
I10
tp2287
a(I29
I11
I6
tp2288
a(I13
I18
I10
tp2289
a(I18
I20
I4
tp2290
a(I12
I17
I8
tp2291
a(I25
I21
I2
tp2292
a(I5
I13
I23
tp2293
a(I19
I15
I7
tp2294
a(I22
I23
I4
tp2295
a(I9
I50
I2
tp2296
a(I2
I46
I6
tp2297
a(I10
I23
I7
tp2298
a(I5
I51
I0
tp2299
a(I15
I17
I9
tp2300
a(I4
I59
I0
tp2301
a(I20
I24
I4
tp2302
a(I6
I9
I22
tp2303
a(I15
I16
I11
tp2304
a(I7
I53
I2
tp2305
a(I11
I28
I5
tp2306
a(I5
I42
I8
tp2307
a(I14
I43
I3
tp2308
a(I16
I26
I3
tp2309
a(I8
I28
I8
tp2310
a(I13
I12
I12
tp2311
a(I8
I52
I0
tp2312
a(I4
I51
I2
tp2313
a(I5
I27
I8
tp2314
a(I7
I43
I7
tp2315
a(I14
I15
I12
tp2316
a(I7
I54
I4
tp2317
a(I10
I25
I7
tp2318
a(I11
I17
I13
tp2319
a(I19
I11
I8
tp2320
a(I4
I49
I4
tp2321
a(I13
I19
I7
tp2322
a(I7
I18
I13
tp2323
a(I0
I51
I0
tp2324
a(I20
I28
I1
tp2325
a(I18
I23
I5
tp2326
a(I6
I19
I13
tp2327
a(I39
I12
I2
tp2328
a(I8
I51
I0
tp2329
a(I12
I13
I15
tp2330
a(I5
I14
I22
tp2331
a(I5
I25
I7
tp2332
a(I23
I10
I7
tp2333
a(I22
I22
I3
tp2334
a(I6
I52
I2
tp2335
a(I1
I17
I19
tp2336
a(I18
I14
I8
tp2337
a(I15
I27
I3
tp2338
a(I9
I24
I9
tp2339
a(I8
I48
I5
tp2340
a(I41
I11
I1
tp2341
a(I1
I73
I0
tp2342
a(I17
I23
I5
tp2343
a(I25
I13
I8
tp2344
a(I1
I28
I10
tp2345
a(I29
I11
I5
tp2346
a(I6
I43
I8
tp2347
a(I36
I10
I3
tp2348
a(I27
I14
I5
tp2349
a(I18
I14
I7
tp2350
a(I14
I10
I15
tp2351
a(I14
I14
I11
tp2352
a(I1
I16
I20
tp2353
a(I10
I49
I3
tp2354
a(I0
I68
I1
tp2355
a(I2
I62
I0
tp2356
a(I1
I16
I23
tp2357
a(I28
I12
I6
tp2358
a(I21
I16
I8
tp2359
a(I7
I19
I14
tp2360
a(I6
I43
I6
tp2361
a(I18
I26
I2
tp2362
a(I24
I17
I3
tp2363
a(I8
I22
I12
tp2364
a(I17
I15
I10
tp2365
a(I4
I51
I0
tp2366
a(I11
I25
I7
tp2367
a(I6
I55
I3
tp2368
a(I8
I47
I3
tp2369
a(I1
I56
I2
tp2370
a(I21
I23
I3
tp2371
a(I5
I53
I2
tp2372
a(I9
I15
I16
tp2373
a(I6
I11
I20
tp2374
a(I17
I13
I7
tp2375
a(I11
I23
I8
tp2376
a(I9
I43
I4
tp2377
a(I10
I14
I15
tp2378
a(I4
I15
I21
tp2379
a(I36
I9
I2
tp2380
a(I8
I50
I2
tp2381
a(I18
I17
I6
tp2382
a(I2
I20
I15
tp2383
a(I4
I49
I0
tp2384
a(I3
I66
I0
tp2385
a(I1
I14
I22
tp2386
a(I23
I26
I1
tp2387
a(I11
I17
I11
tp2388
a(I28
I19
I2
tp2389
a(I0
I67
I0
tp2390
a(I5
I28
I9
tp2391
a(I2
I42
I8
tp2392
a(I22
I11
I7
tp2393
a(I4
I42
I8
tp2394
a(I2
I65
I2
tp2395
a(I21
I11
I8
tp2396
a(I7
I17
I17
tp2397
a(I4
I57
I1
tp2398
a(I2
I16
I21
tp2399
a(I2
I28
I10
tp2400
a(I8
I21
I13
tp2401
a(I25
I16
I5
tp2402
a(I15
I43
I3
tp2403
a(I3
I57
I2
tp2404
a(I2
I51
I0
tp2405
a(I6
I45
I5
tp2406
a(I6
I54
I4
tp2407
a(I13
I25
I5
tp2408
a(I28
I14
I3
tp2409
a(I15
I25
I5
tp2410
a(I11
I20
I10
tp2411
a(I1
I44
I10
tp2412
a(I5
I54
I3
tp2413
a(I26
I10
I6
tp2414
a(I30
I20
I1
tp2415
a(I29
I20
I1
tp2416
a(I7
I45
I6
tp2417
a(I17
I17
I7
tp2418
a(I7
I56
I1
tp2419
a(I4
I14
I22
tp2420
a(I31
I10
I3
tp2421
a(I8
I17
I15
tp2422
a(I21
I21
I4
tp2423
a(I13
I25
I6
tp2424
a(I2
I23
I14
tp2425
a(I14
I22
I8
tp2426
a(I6
I18
I14
tp2427
a(I23
I27
I2
tp2428
a(I10
I51
I1
tp2429
a(I37
I14
I1
tp2430
a(I10
I13
I16
tp2431
a(I1
I9
I28
tp2432
a(I6
I24
I12
tp2433
a(I2
I64
I1
tp2434
a(I21
I12
I9
tp2435
a(I3
I22
I14
tp2436
a(I35
I14
I1
tp2437
a(I8
I20
I10
tp2438
a(I3
I54
I3
tp2439
a(I6
I44
I6
tp2440
a(I6
I49
I5
tp2441
a(I12
I43
I2
tp2442
a(I1
I58
I0
tp2443
a(I36
I12
I2
tp2444
a(I1
I45
I9
tp2445
a(I18
I10
I9
tp2446
a(I26
I16
I4
tp2447
a(I26
I13
I7
tp2448
a(I20
I10
I9
tp2449
a(I29
I21
I2
tp2450
a(I30
I9
I5
tp2451
a(I17
I18
I6
tp2452
a(I9
I22
I7
tp2453
a(I4
I13
I23
tp2454
a(I1
I11
I25
tp2455
a(I21
I27
I2
tp2456
a(I13
I17
I10
tp2457
a(I0
I60
I2
tp2458
a(I18
I19
I4
tp2459
a(I14
I28
I2
tp2460
a(I32
I9
I4
tp2461
a(I14
I17
I9
tp2462
a(I3
I64
I2
tp2463
a(I14
I10
I16
tp2464
a(I9
I42
I4
tp2465
a(I2
I54
I4
tp2466
a(I0
I65
I2
tp2467
a(I23
I13
I7
tp2468
a(I10
I25
I8
tp2469
a(I5
I43
I6
tp2470
a(I7
I13
I19
tp2471
a(I2
I67
I0
tp2472
a(I21
I13
I10
tp2473
a(I3
I23
I13
tp2474
a(I35
I15
I2
tp2475
a(I20
I16
I5
tp2476
a(I29
I10
I6
tp2477
a(I11
I10
I18
tp2478
a(I6
I26
I8
tp2479
a(I3
I55
I0
tp2480
a(I6
I48
I6
tp2481
a(I8
I44
I6
tp2482
a(I10
I17
I13
tp2483
a(I1
I46
I8
tp2484
a(I27
I9
I5
tp2485
a(I11
I50
I2
tp2486
a(I3
I46
I8
tp2487
a(I26
I12
I4
tp2488
a(I20
I9
I8
tp2489
a(I7
I51
I4
tp2490
a(I1
I24
I14
tp2491
a(I3
I28
I10
tp2492
a(I34
I12
I2
tp2493
a(I1
I53
I0
tp2494
a(I22
I12
I7
tp2495
a(I6
I10
I21
tp2496
a(I13
I16
I9
tp2497
a(I0
I59
I3
tp2498
a(I23
I18
I5
tp2499
a(I32
I11
I2
tp2500
a(I15
I45
I2
tp2501
a(I13
I45
I2
tp2502
a(I11
I26
I8
tp2503
a(I5
I44
I7
tp2504
a(I4
I17
I20
tp2505
a(I13
I19
I10
tp2506
a(I7
I23
I10
tp2507
a(I2
I21
I18
tp2508
a(I35
I12
I3
tp2509
a(I20
I23
I4
tp2510
a(I25
I24
I1
tp2511
a(I17
I20
I7
tp2512
a(I11
I11
I17
tp2513
a(I1
I69
I1
tp2514
a(I2
I52
I5
tp2515
a(I3
I11
I26
tp2516
a(I9
I53
I3
tp2517
a(I10
I16
I14
tp2518
a(I21
I16
I6
tp2519
a(I1
I67
I0
tp2520
a(I21
I11
I7
tp2521
a(I15
I10
I13
tp2522
a(I18
I12
I11
tp2523
a(I26
I18
I2
tp2524
a(I11
I51
I1
tp2525
a(I26
I15
I5
tp2526
a(I6
I23
I8
tp2527
a(I7
I48
I5
tp2528
a(I19
I23
I2
tp2529
a(I1
I46
I7
tp2530
a(I11
I19
I12
tp2531
a(I1
I25
I13
tp2532
a(I14
I44
I2
tp2533
a(I34
I14
I2
tp2534
a(I7
I21
I10
tp2535
a(I22
I15
I6
tp2536
a(I11
I22
I9
tp2537
a(I8
I15
I18
tp2538
a(I0
I58
I0
tp2539
a(I4
I53
I4
tp2540
a(I4
I57
I0
tp2541
a(I25
I20
I4
tp2542
a(I17
I16
I10
tp2543
a(I25
I15
I5
tp2544
a(I17
I27
I3
tp2545
a(I34
I13
I4
tp2546
a(I9
I48
I2
tp2547
a(I9
I11
I21
tp2548
a(I4
I16
I19
tp2549
a(I32
I16
I2
tp2550
a(I7
I20
I11
tp2551
a(I2
I20
I17
tp2552
a(I12
I12
I16
tp2553
a(I8
I28
I6
tp2554
a(I25
I25
I2
tp2555
a(I3
I50
I0
tp2556
a(I2
I55
I4
tp2557
a(I4
I10
I23
tp2558
a(I9
I54
I2
tp2559
a(I8
I42
I4
tp2560
a(I31
I13
I3
tp2561
a(I1
I18
I18
tp2562
a(I21
I17
I5
tp2563
a(I33
I13
I2
tp2564
a(I1
I24
I12
tp2565
a(I33
I15
I2
tp2566
a(I18
I15
I10
tp2567
a(I7
I28
I8
tp2568
a(I6
I17
I17
tp2569
a(I7
I49
I2
tp2570
a(I11
I16
I13
tp2571
a(I1
I26
I12
tp2572
a(I17
I21
I4
tp2573
a(I11
I46
I3
tp2574
a(I8
I14
I17
tp2575
a(I3
I26
I9
tp2576
a(I4
I63
I2
tp2577
a(I14
I25
I5
tp2578
a(I12
I18
I7
tp2579
a(I17
I15
I8
tp2580
a(I5
I24
I11
tp2581
a(I6
I53
I4
tp2582
a(I4
I18
I19
tp2583
a(I5
I15
I17
tp2584
a(I16
I17
I7
tp2585
a(I5
I46
I5
tp2586
a(I12
I44
I4
tp2587
a(I30
I12
I3
tp2588
a(I4
I14
I23
tp2589
a(I26
I9
I6
tp2590
a(I8
I27
I7
tp2591
a(I17
I22
I5
tp2592
a(I17
I25
I4
tp2593
a(I16
I15
I10
tp2594
a(I18
I27
I2
tp2595
a(I7
I25
I9
tp2596
a(I27
I20
I1
tp2597
a(I3
I42
I7
tp2598
a(I21
I18
I4
tp2599
a(I33
I14
I3
tp2600
a(I15
I18
I8
tp2601
a(I2
I18
I21
tp2602
a(I15
I16
I9
tp2603
a(I12
I20
I10
tp2604
a(I6
I17
I14
tp2605
a(I6
I16
I18
tp2606
a(I7
I54
I3
tp2607
a(I19
I21
I4
tp2608
a(I13
I51
I1
tp2609
a(I0
I74
I0
tp2610
a(I31
I15
I4
tp2611
a(I4
I20
I15
tp2612
a(I8
I55
I1
tp2613
a(I9
I20
I10
tp2614
a(I20
I14
I8
tp2615
a(I12
I10
I15
tp2616
a(I4
I62
I1
tp2617
a(I14
I24
I6
tp2618
a(I6
I25
I11
tp2619
a(I17
I18
I8
tp2620
a(I25
I9
I7
tp2621
a(I19
I12
I9
tp2622
a(I2
I58
I0
tp2623
a(I37
I12
I2
tp2624
a(I15
I11
I14
tp2625
a(I9
I51
I2
tp2626
a(I15
I27
I4
tp2627
a(I16
I43
I2
tp2628
a(I30
I15
I2
tp2629
a(I15
I22
I7
tp2630
a(I33
I10
I3
tp2631
a(I12
I24
I7
tp2632
a(I8
I16
I13
tp2633
a(I14
I10
I14
tp2634
a(I2
I15
I23
tp2635
a(I3
I51
I4
tp2636
a(I22
I21
I2
tp2637
a(I5
I17
I15
tp2638
a(I25
I17
I2
tp2639
a(I9
I48
I4
tp2640
a(I1
I60
I2
tp2641
a(I10
I21
I9
tp2642
a(I3
I13
I25
tp2643
a(I4
I47
I4
tp2644
a(I1
I42
I12
tp2645
a(I26
I23
I1
tp2646
a(I10
I42
I4
tp2647
a(I5
I23
I10
tp2648
a(I7
I55
I0
tp2649
a(I38
I13
I1
tp2650
a(I1
I27
I10
tp2651
a(I29
I15
I3
tp2652
a(I16
I23
I4
tp2653
a(I0
I73
I1
tp2654
a(I31
I12
I5
tp2655
a(I9
I15
I15
tp2656
a(I3
I14
I21
tp2657
a(I8
I54
I2
tp2658
a(I9
I21
I9
tp2659
a(I3
I24
I11
tp2660
a(I4
I61
I0
tp2661
a(I39
I13
I2
tp2662
a(I14
I13
I10
tp2663
a(I12
I28
I4
tp2664
a(I1
I21
I15
tp2665
a(I6
I24
I8
tp2666
a(I17
I19
I7
tp2667
a(I25
I10
I6
tp2668
a(I7
I16
I16
tp2669
a(I2
I61
I1
tp2670
a(I4
I12
I22
tp2671
a(I37
I13
I1
tp2672
a(I27
I17
I3
tp2673
a(I15
I24
I5
tp2674
a(I4
I21
I16
tp2675
a(I31
I18
I1
tp2676
a(I7
I13
I17
tp2677
a(I15
I23
I4
tp2678
a(I26
I11
I4
tp2679
a(I5
I21
I11
tp2680
a(I3
I61
I2
tp2681
a(I9
I25
I8
tp2682
a(I3
I48
I5
tp2683
a(I16
I13
I8
tp2684
a(I8
I13
I21
tp2685
a(I5
I18
I14
tp2686
a(I12
I45
I4
tp2687
a(I10
I20
I10
tp2688
a(I3
I10
I24
tp2689
a(I5
I50
I3
tp2690
a(I4
I46
I7
tp2691
a(I15
I14
I9
tp2692
a(I10
I45
I5
tp2693
a(I6
I19
I12
tp2694
a(I38
I12
I2
tp2695
a(I6
I42
I8
tp2696
a(I16
I27
I4
tp2697
a(I1
I50
I5
tp2698
a(I8
I53
I3
tp2699
a(I11
I45
I6
tp2700
a(I9
I22
I8
tp2701
a(I17
I12
I13
tp2702
a(I20
I18
I4
tp2703
a(I19
I42
I2
tp2704
a(I2
I28
I7
tp2705
a(I20
I15
I7
tp2706
a(I23
I23
I2
tp2707
a(I15
I9
I14
tp2708
a(I6
I27
I9
tp2709
a(I1
I20
I17
tp2710
a(I29
I13
I4
tp2711
a(I2
I60
I2
tp2712
a(I6
I54
I1
tp2713
a(I8
I46
I5
tp2714
a(I24
I9
I8
tp2715
a(I22
I14
I8
tp2716
a(I16
I10
I11
tp2717
a(I31
I19
I2
tp2718
a(I1
I75
I1
tp2719
a(I7
I24
I7
tp2720
a(I2
I27
I11
tp2721
a(I8
I24
I10
tp2722
a(I11
I14
I13
tp2723
a(I11
I20
I12
tp2724
a(I4
I14
I19
tp2725
a(I16
I18
I8
tp2726
a(I4
I27
I8
tp2727
a(I1
I62
I0
tp2728
a(I5
I51
I4
tp2729
a(I4
I45
I6
tp2730
a(I1
I43
I10
tp2731
a(I7
I21
I11
tp2732
a(I15
I15
I10
tp2733
a(I29
I17
I2
tp2734
a(I14
I22
I5
tp2735
a(I30
I14
I3
tp2736
a(I25
I12
I7
tp2737
a(I19
I16
I7
tp2738
a(I16
I21
I6
tp2739
a(I27
I11
I7
tp2740
a(I33
I16
I2
tp2741
a(I3
I12
I23
tp2742
a(I7
I10
I20
tp2743
a(I8
I52
I4
tp2744
a(I8
I10
I21
tp2745
a(I20
I17
I5
tp2746
a(I19
I43
I1
tp2747
a(I14
I15
I8
tp2748
a(I23
I20
I3
tp2749
a(I25
I17
I3
tp2750
a(I11
I17
I9
tp2751
a(I19
I11
I12
tp2752
a(I6
I49
I0
tp2753
a(I8
I45
I4
tp2754
a(I22
I9
I9
tp2755
a(I31
I16
I3
tp2756
a(I5
I55
I1
tp2757
a(I17
I14
I10
tp2758
a(I2
I26
I12
tp2759
a(I8
I23
I11
tp2760
a(I11
I15
I14
tp2761
a(I18
I42
I1
tp2762
a(I3
I59
I0
tp2763
a(I11
I21
I11
tp2764
a(I1
I70
I0
tp2765
a(I16
I11
I14
tp2766
a(I3
I15
I19
tp2767
a(I1
I52
I6
tp2768
a(I4
I26
I11
tp2769
a(I13
I15
I13
tp2770
a(I15
I12
I11
tp2771
a(I15
I13
I9
tp2772
a(I5
I10
I24
tp2773
a(I12
I19
I11
tp2774
a(I11
I22
I7
tp2775
a(I10
I50
I3
tp2776
a(I33
I9
I4
tp2777
a(I14
I49
I1
tp2778
a(I33
I17
I1
tp2779
a(I2
I44
I7
tp2780
a(I21
I24
I3
tp2781
a(I11
I43
I4
tp2782
a(I9
I16
I14
tp2783
a(I12
I14
I11
tp2784
a(I7
I15
I15
tp2785
a(I17
I11
I11
tp2786
a(I40
I11
I1
tp2787
a(I25
I18
I2
tp2788
a(I25
I13
I4
tp2789
a(I10
I11
I18
tp2790
a(I22
I18
I4
tp2791
a(I6
I48
I3
tp2792
a(I4
I43
I7
tp2793
a(I0
I50
I7
tp2794
a(I18
I13
I7
tp2795
a(I2
I17
I18
tp2796
a(I8
I27
I8
tp2797
a(I8
I22
I8
tp2798
a(I11
I12
I15
tp2799
a(I4
I64
I1
tp2800
a(I17
I26
I2
tp2801
a(I11
I18
I10
tp2802
a(I38
I10
I1
tp2803
a(I22
I17
I6
tp2804
a(I5
I28
I8
tp2805
a(I1
I53
I5
tp2806
a(I10
I28
I6
tp2807
a(I28
I15
I4
tp2808
a(I1
I71
I0
tp2809
a(I13
I16
I12
tp2810
a(I18
I18
I8
tp2811
a(I27
I12
I7
tp2812
a(I14
I16
I7
tp2813
a(I19
I27
I2
tp2814
a(I23
I25
I1
tp2815
a(I25
I14
I5
tp2816
a(I10
I53
I2
tp2817
a(I0
I64
I2
tp2818
a(I14
I48
I2
tp2819
a(I34
I10
I2
tp2820
a(I28
I11
I5
tp2821
a(I2
I47
I6
tp2822
a(I27
I15
I2
tp2823
a(I17
I44
I2
tp2824
a(I9
I17
I13
tp2825
a(I20
I23
I3
tp2826
a(I20
I12
I10
tp2827
a(I14
I9
I14
tp2828
a(I40
I10
I2
tp2829
a(I3
I52
I4
tp2830
a(I13
I42
I3
tp2831
a(I6
I51
I2
tp2832
a(I11
I19
I9
tp2833
a(I3
I43
I9
tp2834
a(I33
I12
I4
tp2835
a(I3
I25
I11
tp2836
a(I9
I21
I12
tp2837
a(I8
I21
I9
tp2838
a(I11
I12
I16
tp2839
a(I25
I10
I8
tp2840
a(I8
I17
I12
tp2841
a(I22
I16
I5
tp2842
a(I10
I13
I19
tp2843
a(I5
I22
I10
tp2844
a(I1
I54
I4
tp2845
a(I9
I12
I17
tp2846
a(I4
I24
I13
tp2847
a(I1
I64
I1
tp2848
a(I36
I13
I1
tp2849
a(I18
I11
I10
tp2850
a(I26
I17
I3
tp2851
a(I7
I24
I8
tp2852
a(I19
I24
I3
tp2853
a(I27
I12
I6
tp2854
a(I10
I52
I1
tp2855
a(I11
I27
I4
tp2856
a(I4
I24
I9
tp2857
a(I34
I13
I3
tp2858
a(I8
I48
I4
tp2859
a(I21
I26
I1
tp2860
a(I8
I9
I21
tp2861
a(I11
I52
I1
tp2862
a(I4
I59
I2
tp2863
a(I35
I13
I1
tp2864
a(I7
I46
I4
tp2865
a(I3
I53
I3
tp2866
a(I13
I43
I4
tp2867
a(I4
I10
I24
tp2868
a(I24
I15
I4
tp2869
a(I4
I19
I18
tp2870
a(I19
I18
I6
tp2871
a(I2
I19
I16
tp2872
a(I6
I13
I21
tp2873
a(I19
I20
I6
tp2874
a(I25
I11
I7
tp2875
a(I19
I11
I7
tp2876
a(I22
I19
I4
tp2877
a(I24
I18
I2
tp2878
a(I1
I55
I3
tp2879
a(I9
I13
I18
tp2880
a(I28
I13
I6
tp2881
a(I1
I58
I4
tp2882
a(I5
I60
I1
tp2883
a(I18
I10
I13
tp2884
a(I4
I52
I0
tp2885
a(I7
I50
I3
tp2886
a(I1
I14
I23
tp2887
a(I5
I9
I23
tp2888
a(I29
I10
I4
tp2889
a(I13
I47
I1
tp2890
a(I7
I14
I16
tp2891
a(I30
I12
I4
tp2892
a(I4
I45
I8
tp2893
a(I27
I13
I4
tp2894
a(I4
I58
I1
tp2895
a(I2
I22
I13
tp2896
a(I13
I21
I7
tp2897
a(I17
I12
I9
tp2898
a(I14
I11
I12
tp2899
a(I2
I54
I0
tp2900
a(I4
I9
I25
tp2901
a(I24
I14
I7
tp2902
a(I4
I18
I17
tp2903
a(I5
I48
I4
tp2904
a(I23
I14
I8
tp2905
a(I6
I12
I22
tp2906
a(I10
I43
I6
tp2907
a(I14
I21
I7
tp2908
a(I23
I14
I7
tp2909
a(I8
I48
I3
tp2910
a(I5
I23
I12
tp2911
a(I14
I46
I1
tp2912
a(I1
I48
I7
tp2913
a(I13
I19
I9
tp2914
a(I15
I21
I8
tp2915
a(I18
I13
I12
tp2916
a(I2
I25
I13
tp2917
a(I7
I51
I0
tp2918
a(I19
I12
I12
tp2919
a(I34
I15
I1
tp2920
a(I2
I17
I19
tp2921
a(I7
I15
I19
tp2922
a(I0
I54
I4
tp2923
a(I4
I44
I7
tp2924
a(I13
I27
I4
tp2925
a(I9
I19
I10
tp2926
a(I15
I13
I11
tp2927
a(I2
I25
I12
tp2928
a(I39
I9
I2
tp2929
a(I17
I13
I10
tp2930
a(I7
I44
I6
tp2931
a(I6
I28
I8
tp2932
a(I19
I17
I6
tp2933
a(I28
I15
I2
tp2934
a(I1
I21
I18
tp2935
a(I8
I13
I16
tp2936
a(I24
I13
I6
tp2937
a(I9
I48
I3
tp2938
a(I3
I27
I10
tp2939
a(I16
I46
I1
tp2940
a(I33
I15
I1
tp2941
a(I32
I17
I1
tp2942
a(I1
I42
I7
tp2943
a(I20
I26
I3
tp2944
a(I24
I19
I3
tp2945
a(I8
I18
I12
tp2946
a(I6
I46
I4
tp2947
a(I19
I9
I9
tp2948
a(I23
I15
I4
tp2949
a(I16
I28
I2
tp2950
a(I19
I22
I5
tp2951
a(I3
I14
I24
tp2952
a(I9
I12
I19
tp2953
a(I13
I20
I8
tp2954
a(I11
I44
I4
tp2955
a(I18
I22
I4
tp2956
a(I3
I47
I7
tp2957
a(I1
I21
I16
tp2958
a(I5
I15
I19
tp2959
a(I9
I44
I5
tp2960
a(I19
I13
I11
tp2961
a(I8
I14
I18
tp2962
a(I1
I12
I26
tp2963
a(I6
I56
I0
tp2964
a(I7
I12
I18
tp2965
a(I30
I14
I2
tp2966
a(I8
I15
I14
tp2967
a(I13
I28
I5
tp2968
a(I0
I58
I4
tp2969
a(I18
I21
I6
tp2970
a(I10
I24
I7
tp2971
a(I10
I46
I6
tp2972
a(I23
I19
I2
tp2973
a(I5
I12
I23
tp2974
a(I2
I11
I26
tp2975
a(I5
I25
I8
tp2976
a(I19
I14
I7
tp2977
a(I2
I56
I2
tp2978
a(I22
I25
I1
tp2979
a(I10
I27
I6
tp2980
a(I9
I49
I0
tp2981
a(I27
I18
I2
tp2982
a(I10
I20
I7
tp2983
a(I20
I25
I2
tp2984
a(I7
I12
I20
tp2985
a(I3
I21
I15
tp2986
a(I29
I16
I4
tp2987
a(I14
I23
I5
tp2988
a(I7
I13
I20
tp2989
a(I6
I18
I17
tp2990
a(I8
I17
I13
tp2991
a(I2
I13
I25
tp2992
a(I16
I16
I8
tp2993
a(I16
I27
I3
tp2994
a(I1
I50
I0
tp2995
a(I10
I19
I11
tp2996
a(I13
I11
I14
tp2997
a(I11
I45
I3
tp2998
a(I31
I14
I2
tp2999
a(I7
I42
I7
tp3000
a(I15
I16
I10
tp3001
a(I1
I22
I17
tp3002
a(I1
I22
I14
tp3003
a(I12
I18
I8
tp3004
a(I19
I10
I10
tp3005
a(I13
I50
I2
tp3006
a(I10
I10
I17
tp3007
a(I1
I13
I25
tp3008
a(I19
I11
I11
tp3009
a(I6
I59
I1
tp3010
a(I22
I14
I5
tp3011
a(I13
I18
I7
tp3012
a(I18
I20
I5
tp3013
a(I26
I10
I8
tp3014
a(I25
I21
I3
tp3015
a(I6
I53
I0
tp3016
a(I22
I24
I2
tp3017
a(I28
I9
I5
tp3018
a(I2
I46
I7
tp3019
a(I28
I9
I4
tp3020
a(I33
I9
I3
tp3021
a(I15
I17
I10
tp3022
a(I18
I18
I5
tp3023
a(I10
I44
I3
tp3024
a(I3
I63
I0
tp3025
a(I7
I53
I3
tp3026
a(I2
I12
I26
tp3027
a(I11
I28
I4
tp3028
a(I16
I13
I13
tp3029
a(I14
I43
I2
tp3030
a(I10
I18
I12
tp3031
a(I3
I12
I26
tp3032
a(I36
I11
I3
tp3033
a(I9
I28
I5
tp3034
a(I8
I52
I1
tp3035
a(I11
I23
I7
tp3036
a(I4
I51
I5
tp3037
a(I7
I43
I4
tp3038
a(I19
I11
I9
tp3039
a(I1
I14
I24
tp3040
a(I28
I10
I6
tp3041
a(I2
I25
I11
tp3042
a(I1
I45
I7
tp3043
a(I17
I12
I12
tp3044
a(I12
I11
I17
tp3045
a(I20
I28
I2
tp3046
a(I18
I23
I4
tp3047
a(I2
I26
I9
tp3048
a(I39
I12
I1
tp3049
a(I14
I18
I7
tp3050
a(I23
I17
I4
tp3051
a(I25
I22
I2
tp3052
a(I5
I14
I21
tp3053
a(I2
I49
I5
tp3054
a(I6
I52
I3
tp3055
a(I16
I14
I9
tp3056
a(I4
I26
I12
tp3057
a(I2
I21
I17
tp3058
a(I12
I51
I1
tp3059
a(I33
I10
I2
tp3060
a(I8
I48
I6
tp3061
a(I10
I47
I2
tp3062
a(I34
I11
I2
tp3063
a(I3
I60
I1
tp3064
a(I1
I19
I19
tp3065
a(I35
I11
I3
tp3066
a(I38
I14
I1
tp3067
a(I19
I11
I10
tp3068
a(I6
I43
I7
tp3069
a(I5
I43
I8
tp3070
a(I13
I13
I12
tp3071
a(I27
I14
I4
tp3072
a(I17
I44
I1
tp3073
a(I2
I21
I15
tp3074
a(I3
I21
I13
tp3075
a(I9
I10
I19
tp3076
a(I7
I55
I4
tp3077
a(I10
I49
I2
tp3078
a(I0
I68
I2
tp3079
a(I17
I11
I13
tp3080
a(I2
I62
I1
tp3081
a(I29
I16
I2
tp3082
a(I6
I12
I19
tp3083
a(I9
I17
I12
tp3084
a(I31
I17
I1
tp3085
a(I0
I50
I0
tp3086
a(I1
I13
I26
tp3087
a(I15
I42
I3
tp3088
a(I2
I48
I6
tp3089
a(I11
I25
I8
tp3090
a(I6
I55
I2
tp3091
a(I8
I47
I2
tp3092
a(I28
I15
I3
tp3093
a(I12
I50
I2
tp3094
a(I21
I23
I4
tp3095
a(I5
I53
I3
tp3096
a(I19
I19
I5
tp3097
a(I29
I19
I1
tp3098
a(I17
I16
I7
tp3099
a(I9
I43
I5
tp3100
a(I24
I23
I1
tp3101
a(I4
I15
I20
tp3102
a(I13
I12
I14
tp3103
a(I1
I68
I1
tp3104
a(I13
I14
I13
tp3105
a(I8
I50
I3
tp3106
a(I15
I14
I13
tp3107
a(I25
I19
I2
tp3108
a(I10
I10
I18
tp3109
a(I34
I9
I3
tp3110
a(I2
I42
I9
tp3111
a(I4
I28
I8
tp3112
a(I4
I42
I9
tp3113
a(I21
I11
I9
tp3114
a(I19
I18
I5
tp3115
a(I2
I28
I11
tp3116
a(I8
I21
I12
tp3117
a(I6
I51
I3
tp3118
a(I25
I16
I4
tp3119
a(I3
I57
I3
tp3120
a(I6
I45
I4
tp3121
a(I4
I12
I24
tp3122
a(I9
I12
I20
tp3123
a(I4
I24
I10
tp3124
a(I5
I54
I2
tp3125
a(I18
I11
I13
tp3126
a(I26
I10
I7
tp3127
a(I4
I13
I22
tp3128
a(I18
I43
I2
tp3129
a(I11
I20
I8
tp3130
a(I24
I22
I2
tp3131
a(I5
I19
I13
tp3132
a(I5
I56
I1
tp3133
a(I1
I49
I4
tp3134
a(I8
I49
I2
tp3135
a(I4
I42
I7
tp3136
a(I17
I45
I1
tp3137
a(I32
I10
I2
tp3138
a(I6
I18
I15
tp3139
a(I0
I62
I0
tp3140
a(I1
I18
I21
tp3141
a(I4
I60
I2
tp3142
a(I0
I66
I0
tp3143
a(I5
I16
I17
tp3144
a(I6
I50
I2
tp3145
a(I2
I45
I8
tp3146
a(I21
I12
I8
tp3147
a(I12
I15
I12
tp3148
a(I26
I14
I4
tp3149
a(I8
I20
I11
tp3150
a(I1
I23
I13
tp3151
a(I3
I54
I2
tp3152
a(I2
I50
I0
tp3153
a(I6
I44
I7
tp3154
a(I1
I59
I0
tp3155
a(I6
I49
I4
tp3156
a(I12
I43
I5
tp3157
a(I6
I23
I12
tp3158
a(I36
I12
I3
tp3159
a(I9
I27
I5
tp3160
a(I18
I10
I10
tp3161
a(I26
I16
I5
tp3162
a(I26
I13
I6
tp3163
a(I6
I21
I13
tp3164
a(I4
I52
I5
tp3165
a(I38
I11
I2
tp3166
a(I5
I27
I9
tp3167
a(I24
I21
I3
tp3168
a(I14
I50
I1
tp3169
a(I1
I11
I26
tp3170
a(I19
I44
I1
tp3171
a(I18
I13
I11
tp3172
a(I4
I26
I7
tp3173
a(I22
I13
I7
tp3174
a(I5
I57
I2
tp3175
a(I13
I15
I9
tp3176
a(I21
I22
I4
tp3177
a(I13
I26
I6
tp3178
a(I0
I60
I3
tp3179
a(I15
I12
I15
tp3180
a(I14
I28
I3
tp3181
a(I32
I9
I3
tp3182
a(I14
I17
I8
tp3183
a(I3
I64
I1
tp3184
a(I23
I24
I2
tp3185
a(I2
I54
I5
tp3186
a(I10
I12
I16
tp3187
a(I23
I13
I8
tp3188
a(I16
I20
I5
tp3189
a(I12
I23
I6
tp3190
a(I5
I43
I7
tp3191
a(I7
I11
I19
tp3192
a(I7
I22
I8
tp3193
a(I12
I14
I15
tp3194
a(I20
I16
I6
tp3195
a(I11
I19
I7
tp3196
a(I8
I19
I10
tp3197
a(I18
I23
I3
tp3198
a(I6
I26
I9
tp3199
a(I5
I26
I9
tp3200
a(I6
I47
I6
tp3201
a(I9
I52
I3
tp3202
a(I10
I17
I12
tp3203
a(I3
I28
I11
tp3204
a(I9
I18
I10
tp3205
a(I21
I10
I7
tp3206
a(I27
I9
I6
tp3207
a(I26
I19
I4
tp3208
a(I26
I12
I5
tp3209
a(I6
I20
I14
tp3210
a(I8
I47
I6
tp3211
a.