(dp0
S'ind'
p1
(lp2
(I0
I62
I0
tp3
a(I1
I12
I28
tp4
a(I1
I13
I27
tp5
a(I1
I14
I25
tp6
a(I1
I15
I24
tp7
a(I1
I17
I22
tp8
a(I1
I18
I21
tp9
a(I1
I19
I20
tp10
a(I1
I20
I19
tp11
a(I1
I21
I18
tp12
a(I1
I22
I17
tp13
a(I1
I24
I15
tp14
a(I1
I25
I14
tp15
a(I1
I27
I13
tp16
a(I1
I29
I12
tp17
a(I1
I30
I11
tp18
a(I1
I31
I10
tp19
a(I1
I32
I9
tp20
a(I1
I35
I8
tp21
a(I1
I37
I7
tp22
a(I1
I39
I6
tp23
a(I1
I43
I5
tp24
a(I1
I45
I4
tp25
a(I1
I47
I3
tp26
a(I1
I55
I2
tp27
a(I1
I62
I1
tp28
a(I2
I11
I27
tp29
a(I2
I13
I26
tp30
a(I2
I14
I24
tp31
a(I2
I15
I22
tp32
a(I2
I16
I21
tp33
a(I2
I17
I20
tp34
a(I2
I18
I19
tp35
a(I2
I19
I18
tp36
a(I2
I20
I17
tp37
a(I2
I21
I16
tp38
a(I2
I22
I15
tp39
a(I2
I24
I14
tp40
a(I2
I26
I13
tp41
a(I2
I28
I11
tp42
a(I2
I29
I10
tp43
a(I2
I30
I9
tp44
a(I2
I33
I8
tp45
a(I2
I35
I7
tp46
a(I2
I37
I6
tp47
a(I2
I39
I5
tp48
a(I2
I43
I4
tp49
a(I2
I45
I3
tp50
a(I2
I53
I2
tp51
a(I2
I55
I1
tp52
a(I3
I11
I26
tp53
a(I3
I13
I25
tp54
a(I3
I14
I23
tp55
a(I3
I15
I21
tp56
a(I3
I16
I20
tp57
a(I3
I17
I19
tp58
a(I3
I18
I18
tp59
a(I3
I19
I17
tp60
a(I3
I20
I16
tp61
a(I3
I21
I15
tp62
a(I3
I23
I14
tp63
a(I3
I25
I13
tp64
a(I3
I28
I10
tp65
a(I3
I29
I9
tp66
a(I3
I32
I8
tp67
a(I3
I33
I7
tp68
a(I3
I35
I6
tp69
a(I3
I37
I5
tp70
a(I3
I42
I4
tp71
a(I3
I43
I3
tp72
a(I3
I51
I2
tp73
a(I3
I53
I1
tp74
a(I4
I12
I25
tp75
a(I4
I13
I24
tp76
a(I4
I14
I22
tp77
a(I4
I17
I18
tp78
a(I4
I18
I17
tp79
a(I4
I22
I14
tp80
a(I4
I24
I13
tp81
a(I4
I25
I12
tp82
a(I4
I26
I11
tp83
a(I4
I27
I10
tp84
a(I4
I31
I8
tp85
a(I4
I32
I7
tp86
a(I4
I34
I6
tp87
a(I4
I36
I5
tp88
a(I4
I41
I4
tp89
a(I4
I42
I3
tp90
a(I4
I50
I2
tp91
a(I4
I51
I1
tp92
a(I5
I12
I24
tp93
a(I5
I13
I23
tp94
a(I5
I14
I21
tp95
a(I5
I15
I20
tp96
a(I5
I16
I19
tp97
a(I5
I17
I17
tp98
a(I5
I19
I16
tp99
a(I5
I20
I15
tp100
a(I5
I21
I14
tp101
a(I5
I23
I13
tp102
a(I5
I24
I12
tp103
a(I5
I25
I11
tp104
a(I5
I26
I10
tp105
a(I5
I30
I8
tp106
a(I5
I31
I7
tp107
a(I5
I33
I6
tp108
a(I5
I35
I5
tp109
a(I5
I40
I4
tp110
a(I5
I41
I3
tp111
a(I5
I47
I2
tp112
a(I5
I50
I1
tp113
a(I6
I12
I23
tp114
a(I6
I13
I22
tp115
a(I6
I14
I20
tp116
a(I6
I15
I19
tp117
a(I6
I16
I18
tp118
a(I6
I18
I16
tp119
a(I6
I19
I15
tp120
a(I6
I20
I14
tp121
a(I6
I22
I13
tp122
a(I6
I23
I12
tp123
a(I6
I24
I11
tp124
a(I6
I26
I9
tp125
a(I6
I29
I8
tp126
a(I6
I30
I7
tp127
a(I6
I32
I6
tp128
a(I6
I34
I5
tp129
a(I6
I39
I4
tp130
a(I6
I40
I3
tp131
a(I6
I45
I2
tp132
a(I6
I47
I1
tp133
a(I7
I12
I22
tp134
a(I7
I13
I21
tp135
a(I7
I14
I19
tp136
a(I7
I15
I18
tp137
a(I7
I16
I17
tp138
a(I7
I17
I16
tp139
a(I7
I18
I15
tp140
a(I7
I19
I14
tp141
a(I7
I21
I13
tp142
a(I7
I22
I12
tp143
a(I7
I23
I11
tp144
a(I7
I25
I10
tp145
a(I7
I28
I8
tp146
a(I7
I29
I7
tp147
a(I7
I31
I6
tp148
a(I7
I33
I5
tp149
a(I7
I38
I4
tp150
a(I7
I39
I3
tp151
a(I7
I43
I2
tp152
a(I7
I45
I1
tp153
a(I8
I12
I21
tp154
a(I8
I13
I20
tp155
a(I8
I14
I18
tp156
a(I8
I15
I17
tp157
a(I8
I16
I16
tp158
a(I8
I17
I15
tp159
a(I8
I18
I14
tp160
a(I8
I20
I13
tp161
a(I8
I21
I12
tp162
a(I8
I22
I11
tp163
a(I8
I24
I10
tp164
a(I8
I27
I8
tp165
a(I8
I30
I6
tp166
a(I8
I32
I5
tp167
a(I8
I37
I4
tp168
a(I8
I38
I3
tp169
a(I8
I42
I2
tp170
a(I8
I43
I1
tp171
a(I9
I12
I20
tp172
a(I9
I13
I19
tp173
a(I9
I14
I17
tp174
a(I9
I17
I14
tp175
a(I9
I19
I13
tp176
a(I9
I20
I12
tp177
a(I9
I21
I11
tp178
a(I9
I23
I10
tp179
a(I9
I28
I7
tp180
a(I9
I29
I6
tp181
a(I9
I31
I5
tp182
a(I9
I35
I4
tp183
a(I9
I37
I3
tp184
a(I9
I41
I2
tp185
a(I9
I42
I1
tp186
a(I10
I12
I19
tp187
a(I10
I13
I18
tp188
a(I10
I15
I16
tp189
a(I10
I16
I15
tp190
a(I10
I18
I13
tp191
a(I10
I19
I12
tp192
a(I10
I20
I11
tp193
a(I10
I22
I10
tp194
a(I10
I26
I8
tp195
a(I10
I27
I7
tp196
a(I10
I30
I5
tp197
a(I10
I34
I4
tp198
a(I10
I35
I3
tp199
a(I10
I40
I2
tp200
a(I10
I41
I1
tp201
a(I11
I12
I18
tp202
a(I11
I13
I17
tp203
a(I11
I14
I16
tp204
a(I11
I15
I15
tp205
a(I11
I16
I14
tp206
a(I11
I17
I13
tp207
a(I11
I18
I12
tp208
a(I11
I19
I11
tp209
a(I11
I21
I10
tp210
a(I11
I25
I8
tp211
a(I11
I26
I7
tp212
a(I11
I28
I6
tp213
a(I11
I29
I5
tp214
a(I11
I33
I4
tp215
a(I11
I34
I3
tp216
a(I11
I39
I2
tp217
a(I11
I40
I1
tp218
a(I12
I12
I17
tp219
a(I12
I14
I15
tp220
a(I12
I15
I14
tp221
a(I12
I17
I12
tp222
a(I12
I18
I11
tp223
a(I12
I20
I10
tp224
a(I12
I24
I8
tp225
a(I12
I25
I7
tp226
a(I12
I27
I6
tp227
a(I12
I32
I4
tp228
a(I12
I33
I3
tp229
a(I12
I38
I2
tp230
a(I12
I39
I1
tp231
a(I13
I13
I16
tp232
a(I13
I14
I14
tp233
a(I13
I16
I13
tp234
a(I13
I17
I11
tp235
a(I13
I19
I10
tp236
a(I13
I23
I8
tp237
a(I13
I24
I7
tp238
a(I13
I26
I6
tp239
a(I13
I28
I5
tp240
a(I13
I31
I4
tp241
a(I13
I32
I3
tp242
a(I13
I37
I2
tp243
a(I13
I38
I1
tp244
a(I14
I12
I16
tp245
a(I14
I13
I15
tp246
a(I14
I15
I13
tp247
a(I14
I16
I12
tp248
a(I14
I18
I10
tp249
a(I14
I22
I8
tp250
a(I14
I23
I7
tp251
a(I14
I25
I6
tp252
a(I14
I27
I5
tp253
a(I14
I30
I4
tp254
a(I14
I31
I3
tp255
a(I14
I35
I2
tp256
a(I14
I37
I1
tp257
a(I15
I12
I15
tp258
a(I15
I13
I14
tp259
a(I15
I14
I13
tp260
a(I15
I15
I12
tp261
a(I15
I16
I11
tp262
a(I15
I17
I10
tp263
a(I15
I21
I8
tp264
a(I15
I22
I7
tp265
a(I15
I24
I6
tp266
a(I15
I26
I5
tp267
a(I15
I29
I4
tp268
a(I15
I30
I3
tp269
a(I15
I34
I2
tp270
a(I15
I35
I1
tp271
a(I16
I12
I14
tp272
a(I16
I14
I12
tp273
a(I16
I15
I11
tp274
a(I16
I20
I8
tp275
a(I16
I21
I7
tp276
a(I16
I23
I6
tp277
a(I16
I25
I5
tp278
a(I16
I29
I3
tp279
a(I16
I33
I2
tp280
a(I16
I34
I1
tp281
a(I17
I13
I13
tp282
a(I17
I14
I11
tp283
a(I17
I16
I10
tp284
a(I17
I19
I8
tp285
a(I17
I20
I7
tp286
a(I17
I22
I6
tp287
a(I17
I24
I5
tp288
a(I17
I28
I4
tp289
a(I17
I32
I2
tp290
a(I17
I33
I1
tp291
a(I18
I12
I13
tp292
a(I18
I13
I12
tp293
a(I18
I15
I10
tp294
a(I18
I18
I8
tp295
a(I18
I19
I7
tp296
a(I18
I21
I6
tp297
a(I18
I23
I5
tp298
a(I18
I27
I4
tp299
a(I18
I28
I3
tp300
a(I18
I31
I2
tp301
a(I18
I32
I1
tp302
a(I19
I12
I12
tp303
a(I19
I13
I11
tp304
a(I19
I14
I10
tp305
a(I19
I17
I8
tp306
a(I19
I18
I7
tp307
a(I19
I20
I6
tp308
a(I19
I22
I5
tp309
a(I19
I26
I4
tp310
a(I19
I27
I3
tp311
a(I19
I30
I2
tp312
a(I19
I31
I1
tp313
a(I20
I12
I11
tp314
a(I20
I17
I7
tp315
a(I20
I19
I6
tp316
a(I20
I21
I5
tp317
a(I20
I25
I4
tp318
a(I20
I26
I3
tp319
a(I20
I29
I2
tp320
a(I20
I30
I1
tp321
a(I21
I13
I10
tp322
a(I21
I16
I8
tp323
a(I21
I18
I6
tp324
a(I21
I20
I5
tp325
a(I21
I24
I4
tp326
a(I21
I25
I3
tp327
a(I21
I29
I1
tp328
a(I22
I12
I10
tp329
a(I22
I15
I8
tp330
a(I22
I16
I7
tp331
a(I22
I17
I6
tp332
a(I22
I19
I5
tp333
a(I22
I23
I4
tp334
a(I22
I24
I3
tp335
a(I22
I28
I2
tp336
a(I23
I14
I8
tp337
a(I23
I15
I7
tp338
a(I23
I18
I5
tp339
a(I23
I22
I4
tp340
a(I23
I23
I3
tp341
a(I23
I27
I2
tp342
a(I23
I28
I1
tp343
a(I24
I14
I7
tp344
a(I24
I16
I6
tp345
a(I24
I17
I5
tp346
a(I24
I21
I4
tp347
a(I24
I22
I3
tp348
a(I24
I26
I2
tp349
a(I24
I27
I1
tp350
a(I25
I13
I8
tp351
a(I25
I15
I6
tp352
a(I25
I20
I4
tp353
a(I25
I21
I3
tp354
a(I25
I25
I2
tp355
a(I25
I26
I1
tp356
a(I26
I12
I8
tp357
a(I26
I13
I7
tp358
a(I26
I14
I6
tp359
a(I26
I16
I5
tp360
a(I26
I19
I4
tp361
a(I26
I20
I3
tp362
a(I26
I24
I2
tp363
a(I26
I25
I1
tp364
a(I27
I12
I7
tp365
a(I27
I15
I5
tp366
a(I27
I18
I4
tp367
a(I27
I19
I3
tp368
a(I27
I23
I2
tp369
a(I27
I24
I1
tp370
a(I28
I13
I6
tp371
a(I28
I14
I5
tp372
a(I28
I17
I4
tp373
a(I28
I18
I3
tp374
a(I28
I22
I2
tp375
a(I28
I23
I1
tp376
a(I29
I12
I6
tp377
a(I29
I17
I3
tp378
a(I29
I21
I2
tp379
a(I29
I22
I1
tp380
a(I30
I13
I5
tp381
a(I30
I16
I4
tp382
a(I30
I20
I2
tp383
a(I30
I21
I1
tp384
a(I31
I12
I5
tp385
a(I31
I15
I4
tp386
a(I31
I16
I3
tp387
a(I31
I19
I2
tp388
a(I31
I20
I1
tp389
a(I32
I14
I4
tp390
a(I32
I15
I3
tp391
a(I32
I18
I2
tp392
a(I32
I19
I1
tp393
a(I33
I14
I3
tp394
a(I33
I17
I2
tp395
a(I33
I18
I1
tp396
a(I34
I13
I4
tp397
a(I34
I17
I1
tp398
a(I35
I12
I4
tp399
a(I35
I13
I3
tp400
a(I35
I16
I2
tp401
a(I36
I12
I3
tp402
a(I36
I15
I2
tp403
a(I36
I16
I1
tp404
a(I37
I14
I2
tp405
a(I37
I15
I1
tp406
a(I38
I14
I1
tp407
a(I39
I13
I2
tp408
a(I40
I12
I2
tp409
a(I40
I13
I1
tp410
a(I41
I12
I1
tp411
asS'witness'
p412
(dp413
g75
((idivisor
TwoPDivisor
p414
(dp416
S'Q'
p417
I10
sS'P'
p418
I14
sb(idivisor
TwoPDivisor
p419
(dp420
g417
I-11
sg418
I20
sbtp421
sg190
((idivisor
TwoPDivisor
p422
(dp423
g417
I12
sg418
I1
sb(idivisor
TwoPDivisor
p424
(dp425
g417
I-13
sg418
I27
sbtp426
sg148
((idivisor
TwoPDivisor
p427
(dp428
g417
I12
sg418
I-14
sb(idivisor
TwoPDivisor
p429
(dp430
g417
I-13
sg418
I44
sbtp431
sg328
((idivisor
TwoPDivisor
p432
(dp433
g417
I11
sg418
I-30
sb(idivisor
TwoPDivisor
p434
(dp435
g417
I-13
sg418
I42
sbtp436
sg235
((idivisor
TwoPDivisor
p437
(dp438
g417
I7
sg418
I1
sb(idivisor
TwoPDivisor
p439
(dp440
g417
I-12
sg418
I28
sbtp441
sg66
((idivisor
TwoPDivisor
p442
(dp443
g417
I5
sg418
I0
sb(idivisor
TwoPDivisor
p444
(dp445
g417
I-9
sg418
I38
sbtp446
sg352
(g427
(idivisor
TwoPDivisor
p447
(dp448
g417
I-12
sg418
I25
sbtp449
sg270
((idivisor
TwoPDivisor
p450
(dp451
g417
I7
sg418
I-20
sb(idivisor
TwoPDivisor
p452
(dp453
g417
I-13
sg418
I47
sbtp454
sg376
(g432
(idivisor
TwoPDivisor
p455
(dp456
g417
I-12
sg418
I34
sbtp457
sg336
(g450
(idivisor
TwoPDivisor
p458
(dp459
g417
I-13
sg418
I40
sbtp460
sg398
(g432
(idivisor
TwoPDivisor
p461
(dp462
g417
I-12
sg418
I28
sbtp463
sg155
((idivisor
TwoPDivisor
p464
(dp465
g417
I6
sg418
I13
sb(idivisor
TwoPDivisor
p466
(dp467
g417
I-12
sg418
I22
sbtp468
sg108
(g427
(idivisor
TwoPDivisor
p469
(dp470
g417
I-13
sg418
I46
sbtp471
sg271
(g432
(idivisor
TwoPDivisor
p472
(dp473
g417
I-13
sg418
I48
sbtp474
sg375
(g450
(idivisor
TwoPDivisor
p475
(dp476
g417
I-12
sg418
I33
sbtp477
sg317
((idivisor
TwoPDivisor
p478
(dp479
g417
I5
sg418
I-8
sb(idivisor
TwoPDivisor
p480
(dp481
g417
I-12
sg418
I32
sbtp482
sg226
((idivisor
TwoPDivisor
p483
(dp484
g417
I8
sg418
I-7
sb(idivisor
TwoPDivisor
p485
(dp486
g417
I-12
sg418
I36
sbtp487
sg131
((idivisor
TwoPDivisor
p488
(dp489
g417
I12
sg418
I-22
sb(idivisor
TwoPDivisor
p490
(dp491
g417
I-13
sg418
I53
sbtp492
sg144
(g437
(idivisor
TwoPDivisor
p493
(dp494
g417
I-12
sg418
I34
sbtp495
sg76
((idivisor
TwoPDivisor
p496
(dp497
g417
I9
sg418
I14
sb(idivisor
TwoPDivisor
p498
(dp499
g417
I-12
sg418
I22
sbtp500
sg80
((idivisor
TwoPDivisor
p501
(dp502
g417
I11
sg418
I1
sb(idivisor
TwoPDivisor
p503
(dp504
g417
I-12
sg418
I33
sbtp505
sg149
(g478
(idivisor
TwoPDivisor
p506
(dp507
g417
I-13
sg418
I46
sbtp508
sg32
((idivisor
TwoPDivisor
p509
(dp510
g417
I12
sg418
I10
sb(idivisor
TwoPDivisor
p511
(dp512
g417
I-1
sg418
I14
sbtp513
sg68
(g483
(idivisor
TwoPDivisor
p514
(dp515
g417
I-12
sg418
I45
sbtp516
sg117
((idivisor
TwoPDivisor
p517
(dp518
g417
I12
sg418
I6
sb(idivisor
TwoPDivisor
p519
(dp520
g417
I-1
sg418
I14
sbtp521
sg350
(g432
(idivisor
TwoPDivisor
p522
(dp523
g417
I-12
sg418
I38
sbtp524
sg316
(g427
(idivisor
TwoPDivisor
p525
(dp526
g417
I-12
sg418
I30
sbtp527
sg377
(g427
(idivisor
TwoPDivisor
p528
(dp529
g417
I-11
sg418
I20
sbtp530
sg134
((idivisor
TwoPDivisor
p531
(dp532
g417
I7
sg418
I14
sb(idivisor
TwoPDivisor
p533
(dp534
g417
I-11
sg418
I20
sbtp535
sg150
((idivisor
TwoPDivisor
p536
(dp537
g417
I4
sg418
I-13
sb(idivisor
TwoPDivisor
p538
(dp539
g417
I-13
sg418
I51
sbtp540
sg193
(g437
(idivisor
TwoPDivisor
p541
(dp542
g417
I-13
sg418
I32
sbtp543
sg232
((idivisor
TwoPDivisor
p544
(dp545
g417
I1
sg418
I13
sb(idivisor
TwoPDivisor
p546
(dp547
g417
I-12
sg418
I22
sbtp548
sg116
(g464
(idivisor
TwoPDivisor
p549
(dp550
g417
I-12
sg418
I24
sbtp551
sg349
(g450
(idivisor
TwoPDivisor
p552
(dp553
g417
I-12
sg418
I37
sbtp554
sg167
(g478
(idivisor
TwoPDivisor
p555
(dp556
g417
I-13
sg418
I45
sbtp557
sg174
((idivisor
TwoPDivisor
p558
(dp559
g417
I12
sg418
I4
sb(idivisor
TwoPDivisor
p560
(dp561
g417
I-9
sg418
I21
sbtp562
sg341
((idivisor
TwoPDivisor
p563
(dp564
g417
I2
sg418
I-11
sb(idivisor
TwoPDivisor
p565
(dp566
g417
I-12
sg418
I34
sbtp567
sg59
((idivisor
TwoPDivisor
p568
(dp569
g417
I11
sg418
I6
sb(idivisor
TwoPDivisor
p570
(dp571
g417
I-13
sg418
I30
sbtp572
sg378
(g563
(idivisor
TwoPDivisor
p573
(dp574
g417
I-12
sg418
I28
sbtp575
sg92
(g432
(idivisor
TwoPDivisor
p576
(dp577
g417
I-13
sg418
I64
sbtp578
sg41
((idivisor
TwoPDivisor
p579
(dp580
g417
I9
sg418
I1
sb(idivisor
TwoPDivisor
p581
(dp582
g417
I-12
sg418
I37
sbtp583
sg205
(g422
(idivisor
TwoPDivisor
p584
(dp585
g417
I-1
sg418
I14
sbtp586
sg403
(g450
(idivisor
TwoPDivisor
p587
(dp588
g417
I-12
sg418
I25
sbtp589
sg82
((idivisor
TwoPDivisor
p590
(dp591
g417
I7
sg418
I2
sb(idivisor
TwoPDivisor
p592
(dp593
g417
I-12
sg418
I36
sbtp594
sg60
(g558
(idivisor
TwoPDivisor
p595
(dp596
g417
I-1
sg418
I19
sbtp597
sg278
(g478
(idivisor
TwoPDivisor
p598
(dp599
g417
I-12
sg418
I36
sbtp600
sg71
(g536
(idivisor
TwoPDivisor
p601
(dp602
g417
I-9
sg418
I51
sbtp603
sg86
(g483
(idivisor
TwoPDivisor
p604
(dp605
g417
I-13
sg418
I45
sbtp606
sg21
((idivisor
TwoPDivisor
p607
(dp608
g417
I1
sg418
I0
sb(idivisor
TwoPDivisor
p609
(dp610
g417
I-3
sg418
I38
sbtp611
sg384
(g432
(idivisor
TwoPDivisor
p612
(dp613
g417
I-12
sg418
I32
sbtp614
sg311
(g563
(idivisor
TwoPDivisor
p615
(dp616
g417
I-12
sg418
I38
sbtp617
sg314
(g437
(idivisor
TwoPDivisor
p618
(dp619
g417
I-11
sg418
I20
sbtp620
sg345
(g427
(idivisor
TwoPDivisor
p621
(dp622
g417
I-13
sg418
I27
sbtp623
sg383
(g450
(idivisor
TwoPDivisor
p624
(dp625
g417
I-13
sg418
I32
sbtp626
sg128
(g427
(idivisor
TwoPDivisor
p627
(dp628
g417
I-13
sg418
I45
sbtp629
sg238
(g483
(idivisor
TwoPDivisor
p630
(dp631
g417
I-12
sg418
I35
sbtp632
sg219
(g558
(idivisor
TwoPDivisor
p633
(dp634
g417
I-11
sg418
I20
sbtp635
sg22
((idivisor
TwoPDivisor
p636
(dp637
g417
I12
sg418
I-13
sb(idivisor
TwoPDivisor
p638
(dp639
g417
I-1
sg418
I38
sbtp640
sg89
(g536
(idivisor
TwoPDivisor
p641
(dp642
g417
I-10
sg418
I51
sbtp643
sg173
(g517
(idivisor
TwoPDivisor
p644
(dp645
g417
I-6
sg418
I16
sbtp646
sg184
(g488
(idivisor
TwoPDivisor
p647
(dp648
g417
I-1
sg418
I38
sbtp649
sg296
(g483
(idivisor
TwoPDivisor
p650
(dp651
g417
I-12
sg418
I30
sbtp652
sg237
((idivisor
TwoPDivisor
p653
(dp654
g417
I1
sg418
I1
sb(idivisor
TwoPDivisor
p655
(dp656
g417
I-12
sg418
I34
sbtp657
sg143
(g590
(idivisor
TwoPDivisor
p658
(dp659
g417
I-12
sg418
I33
sbtp660
sg63
(g501
(idivisor
TwoPDivisor
p661
(dp662
g417
I-12
sg418
I34
sbtp663
sg114
((idivisor
TwoPDivisor
p664
(dp665
g417
I8
sg418
I14
sb(idivisor
TwoPDivisor
p666
(dp667
g417
I-11
sg418
I20
sbtp668
sg102
(g579
(idivisor
TwoPDivisor
p669
(dp670
g417
I-12
sg418
I34
sbtp671
sg236
((idivisor
TwoPDivisor
p672
(dp673
g417
I4
sg418
I2
sb(idivisor
TwoPDivisor
p674
(dp675
g417
I-12
sg418
I30
sbtp676
sg343
(g432
(idivisor
TwoPDivisor
p677
(dp678
g417
I-13
sg418
I40
sbtp679
sg49
(g536
(idivisor
TwoPDivisor
p680
(dp681
g417
I-8
sg418
I51
sbtp682
sg292
(g579
(idivisor
TwoPDivisor
p683
(dp684
g417
I-11
sg418
I20
sbtp685
sg96
(g464
(idivisor
TwoPDivisor
p686
(dp687
g417
I-12
sg418
I25
sbtp688
sg15
(g501
(idivisor
TwoPDivisor
p689
(dp690
g417
I-12
sg418
I36
sbtp691
sg404
(g432
(idivisor
TwoPDivisor
p692
(dp693
g417
I-13
sg418
I27
sbtp694
sg305
(g672
(idivisor
TwoPDivisor
p695
(dp696
g417
I-12
sg418
I24
sbtp697
sg156
(g568
(idivisor
TwoPDivisor
p698
(dp699
g417
I-12
sg418
I24
sbtp700
sg335
(g563
(idivisor
TwoPDivisor
p701
(dp702
g417
I-12
sg418
I35
sbtp703
sg191
(g579
(idivisor
TwoPDivisor
p704
(dp705
g417
I-13
sg418
I30
sbtp706
sg25
(g536
(idivisor
TwoPDivisor
p707
(dp708
g417
I-6
sg418
I51
sbtp709
sg10
((idivisor
TwoPDivisor
p710
(dp711
g417
I5
sg418
I14
sb(idivisor
TwoPDivisor
p712
(dp713
g417
I-7
sg418
I24
sbtp714
sg231
(g432
(idivisor
TwoPDivisor
p715
(dp716
g417
I-13
sg418
I52
sbtp717
sg261
(g590
(idivisor
TwoPDivisor
p718
(dp719
g417
I-12
sg418
I25
sbtp720
sg61
((idivisor
TwoPDivisor
p721
(dp722
g417
I11
sg418
I4
sb(idivisor
TwoPDivisor
p723
(dp724
g417
I-13
sg418
I32
sbtp725
sg7
(g496
(idivisor
TwoPDivisor
p726
(dp727
g417
I-11
sg418
I24
sbtp728
sg340
((idivisor
TwoPDivisor
p729
(dp730
g417
I1
sg418
I-9
sb(idivisor
TwoPDivisor
p731
(dp732
g417
I-12
sg418
I33
sbtp733
sg120
(g422
(idivisor
TwoPDivisor
p734
(dp735
g417
I-1
sg418
I19
sbtp736
sg348
(g563
(idivisor
TwoPDivisor
p737
(dp738
g417
I-12
sg418
I33
sbtp739
sg188
(g568
(idivisor
TwoPDivisor
p740
(dp741
g417
I-12
sg418
I22
sbtp742
sg268
(g729
(idivisor
TwoPDivisor
p743
(dp744
g417
I-13
sg418
I42
sbtp745
sg230
(g450
(idivisor
TwoPDivisor
p746
(dp747
g417
I-13
sg418
I51
sbtp748
sg29
((idivisor
TwoPDivisor
p749
(dp750
g417
I12
sg418
I14
sb(idivisor
TwoPDivisor
p751
(dp752
g417
I-2
sg418
I11
sbtp753
sg300
(g563
(idivisor
TwoPDivisor
p754
(dp755
g417
I-13
sg418
I40
sbtp756
sg310
(g729
(idivisor
TwoPDivisor
p757
(dp758
g417
I-12
sg418
I37
sbtp759
sg395
(g450
(idivisor
TwoPDivisor
p760
(dp761
g417
I-12
sg418
I28
sbtp762
sg389
(g432
(idivisor
TwoPDivisor
p763
(dp764
g417
I-13
sg418
I32
sbtp765
sg166
(g427
(idivisor
TwoPDivisor
p766
(dp767
g417
I-13
sg418
I43
sbtp768
sg380
(g432
(idivisor
TwoPDivisor
p769
(dp770
g417
I-12
sg418
I33
sbtp771
sg57
((idivisor
TwoPDivisor
p772
(dp773
g417
I12
sg418
I8
sb(idivisor
TwoPDivisor
p774
(dp775
g417
I-13
sg418
I27
sbtp776
sg301
(g450
(idivisor
TwoPDivisor
p777
(dp778
g417
I-13
sg418
I44
sbtp779
sg189
(g544
(idivisor
TwoPDivisor
p780
(dp781
g417
I-12
sg418
I25
sbtp782
sg175
(g501
(idivisor
TwoPDivisor
p783
(dp784
g417
I-12
sg418
I28
sbtp785
sg171
(g432
(idivisor
TwoPDivisor
p786
(dp787
g417
I-13
sg418
I56
sbtp788
sg215
((idivisor
TwoPDivisor
p789
(dp790
g417
I4
sg418
I-12
sb(idivisor
TwoPDivisor
p791
(dp792
g417
I-4
sg418
I37
sbtp793
sg318
(g729
(idivisor
TwoPDivisor
p794
(dp795
g417
I-12
sg418
I36
sbtp796
sg248
(g590
(idivisor
TwoPDivisor
p797
(dp798
g417
I-13
sg418
I27
sbtp799
sg170
(g450
(idivisor
TwoPDivisor
p800
(dp801
g417
I-13
sg418
I55
sbtp802
sg100
(g422
(idivisor
TwoPDivisor
p803
(dp804
g417
I-13
sg418
I32
sbtp805
sg356
(g432
(idivisor
TwoPDivisor
p806
(dp807
g417
I-12
sg418
I37
sbtp808
sg165
((idivisor
TwoPDivisor
p809
(dp810
g417
I3
sg418
I0
sb(idivisor
TwoPDivisor
p811
(dp812
g417
I-12
sg418
I38
sbtp813
sg48
((idivisor
TwoPDivisor
p814
(dp815
g417
I6
sg418
I-10
sb(idivisor
TwoPDivisor
p816
(dp817
g417
I-9
sg418
I48
sbtp818
sg73
((idivisor
TwoPDivisor
p819
(dp820
g417
I7
sg418
I-26
sb(idivisor
TwoPDivisor
p821
(dp822
g417
I-13
sg418
I64
sbtp823
sg307
(g483
(idivisor
TwoPDivisor
p824
(dp825
g417
I-13
sg418
I30
sbtp826
sg277
(g427
(idivisor
TwoPDivisor
p827
(dp828
g417
I-12
sg418
I34
sbtp829
sg55
(g664
(idivisor
TwoPDivisor
p830
(dp831
g417
I-12
sg418
I24
sbtp832
sg253
(g478
(idivisor
TwoPDivisor
p833
(dp834
g417
I-12
sg418
I38
sbtp835
sg321
(g432
(idivisor
TwoPDivisor
p836
(dp837
g417
I-13
sg418
I43
sbtp838
sg223
(g437
(idivisor
TwoPDivisor
p839
(dp840
g417
I-13
sg418
I30
sbtp841
sg113
(g432
(idivisor
TwoPDivisor
p842
(dp843
g417
I-1
sg418
I51
sbtp844
sg45
((idivisor
TwoPDivisor
p845
(dp846
g417
I9
sg418
I-7
sb(idivisor
TwoPDivisor
p847
(dp848
g417
I-11
sg418
I44
sbtp849
sg87
(g427
(idivisor
TwoPDivisor
p850
(dp851
g417
I-13
sg418
I47
sbtp852
sg142
(g579
(idivisor
TwoPDivisor
p853
(dp854
g417
I-12
sg418
I32
sbtp855
sg409
(g450
(idivisor
TwoPDivisor
p856
(dp857
g417
I-11
sg418
I20
sbtp858
sg406
(g432
(idivisor
TwoPDivisor
p859
(dp860
g417
I-12
sg418
I25
sbtp861
sg31
(g496
(idivisor
TwoPDivisor
p862
(dp863
g417
I-12
sg418
I24
sbtp864
sg225
(g653
(idivisor
TwoPDivisor
p865
(dp866
g417
I-12
sg418
I35
sbtp867
sg229
(g563
(idivisor
TwoPDivisor
p868
(dp869
g417
I-13
sg418
I46
sbtp870
sg147
(g483
(idivisor
TwoPDivisor
p871
(dp872
g417
I-13
sg418
I42
sbtp873
sg34
(g464
(idivisor
TwoPDivisor
p874
(dp875
g417
I-9
sg418
I25
sbtp876
sg228
(g729
(idivisor
TwoPDivisor
p877
(dp878
g417
I-13
sg418
I45
sbtp879
sg325
(g478
(idivisor
TwoPDivisor
p880
(dp881
g417
I-13
sg418
I32
sbtp882
sg88
(g478
(idivisor
TwoPDivisor
p883
(dp884
g417
I-10
sg418
I46
sbtp885
sg399
(g729
(idivisor
TwoPDivisor
p886
(dp887
g417
I-11
sg418
I20
sbtp888
sg64
(g579
(idivisor
TwoPDivisor
p889
(dp890
g417
I-12
sg418
I36
sbtp891
sg372
(g478
(idivisor
TwoPDivisor
p892
(dp893
g417
I-12
sg418
I24
sbtp894
sg182
(g478
(idivisor
TwoPDivisor
p895
(dp896
g417
I-13
sg418
I44
sbtp897
sg400
(g563
(idivisor
TwoPDivisor
p898
(dp899
g417
I-12
sg418
I22
sbtp900
sg374
(g563
(idivisor
TwoPDivisor
p901
(dp902
g417
I-13
sg418
I30
sbtp903
sg203
(g558
(idivisor
TwoPDivisor
p904
(dp905
g417
I-10
sg418
I20
sbtp906
sg133
(g432
(idivisor
TwoPDivisor
p907
(dp908
g417
I-4
sg418
I51
sbtp909
sg306
(g653
(idivisor
TwoPDivisor
p910
(dp911
g417
I-12
sg418
I28
sbtp912
sg38
(g721
(idivisor
TwoPDivisor
p913
(dp914
g417
I-12
sg418
I32
sbtp915
sg44
((idivisor
TwoPDivisor
p916
(dp917
g417
I12
sg418
I-7
sb(idivisor
TwoPDivisor
p918
(dp919
g417
I-13
sg418
I43
sbtp920
sg4
((idivisor
TwoPDivisor
p921
(dp922
g417
I1
sg418
I26
sb(idivisor
TwoPDivisor
p923
(dp924
g417
I-2
sg418
I11
sbtp925
sg288
(g478
(idivisor
TwoPDivisor
p926
(dp927
g417
I-12
sg418
I35
sbtp928
sg369
(g450
(idivisor
TwoPDivisor
p929
(dp930
g417
I-12
sg418
I34
sbtp931
sg390
(g729
(idivisor
TwoPDivisor
p932
(dp933
g417
I-12
sg418
I24
sbtp934
sg122
(g579
(idivisor
TwoPDivisor
p935
(dp936
g417
I-12
sg418
I33
sbtp937
sg6
((idivisor
TwoPDivisor
p938
(dp939
g417
I12
sg418
I13
sb(idivisor
TwoPDivisor
p940
(dp941
g417
I-13
sg418
I24
sbtp942
sg154
((idivisor
TwoPDivisor
p943
(dp944
g417
I6
sg418
I14
sb(idivisor
TwoPDivisor
p945
(dp946
g417
I-11
sg418
I20
sbtp947
sg169
(g488
(idivisor
TwoPDivisor
p948
(dp949
g417
I-13
sg418
I51
sbtp950
sg267
(g478
(idivisor
TwoPDivisor
p951
(dp952
g417
I-12
sg418
I37
sbtp953
sg245
(g544
(idivisor
TwoPDivisor
p954
(dp955
g417
I-11
sg418
I20
sbtp956
sg324
(g427
(idivisor
TwoPDivisor
p957
(dp958
g417
I-13
sg418
I30
sbtp959
sg180
(g483
(idivisor
TwoPDivisor
p960
(dp961
g417
I-13
sg418
I40
sbtp962
sg285
(g653
(idivisor
TwoPDivisor
p963
(dp964
g417
I-12
sg418
I30
sbtp965
sg275
(g653
(idivisor
TwoPDivisor
p966
(dp967
g417
I-13
sg418
I32
sbtp968
sg110
(g536
(idivisor
TwoPDivisor
p969
(dp970
g417
I-11
sg418
I51
sbtp971
sg109
(g478
(idivisor
TwoPDivisor
p972
(dp973
g417
I-11
sg418
I46
sbtp974
sg282
(g579
(idivisor
TwoPDivisor
p975
(dp976
g417
I-12
sg418
I22
sbtp977
sg178
(g437
(idivisor
TwoPDivisor
p978
(dp979
g417
I-12
sg418
I32
sbtp980
sg357
(g653
(idivisor
TwoPDivisor
p981
(dp982
g417
I-11
sg418
I20
sbtp983
sg43
((idivisor
TwoPDivisor
p984
(dp985
g417
I6
sg418
I0
sb(idivisor
TwoPDivisor
p986
(dp987
g417
I-9
sg418
I38
sbtp988
sg244
(g432
(idivisor
TwoPDivisor
p989
(dp990
g417
I-13
sg418
I51
sbtp991
sg176
(g579
(idivisor
TwoPDivisor
p992
(dp993
g417
I-12
sg418
I30
sbtp994
sg17
((idivisor
TwoPDivisor
p995
(dp996
g417
I7
sg418
I0
sb(idivisor
TwoPDivisor
p997
(dp998
g417
I-9
sg418
I38
sbtp999
sg26
((idivisor
TwoPDivisor
p1000
(dp1001
g417
I2
sg418
I-13
sb(idivisor
TwoPDivisor
p1002
(dp1003
g417
I-4
sg418
I51
sbtp1004
sg410
(g432
(idivisor
TwoPDivisor
p1005
(dp1006
g417
I-12
sg418
I22
sbtp1007
sg289
(g729
(idivisor
TwoPDivisor
p1008
(dp1009
g417
I-13
sg418
I40
sbtp1010
sg405
(g450
(idivisor
TwoPDivisor
p1011
(dp1012
g417
I-12
sg418
I24
sbtp1013
sg35
(g517
(idivisor
TwoPDivisor
p1014
(dp1015
g417
I-13
sg418
I30
sbtp1016
sg366
(g478
(idivisor
TwoPDivisor
p1017
(dp1018
g417
I-12
sg418
I25
sbtp1019
sg97
(g517
(idivisor
TwoPDivisor
p1020
(dp1021
g417
I-13
sg418
I27
sbtp1022
sg315
(g483
(idivisor
TwoPDivisor
p1023
(dp1024
g417
I-12
sg418
I28
sbtp1025
sg359
(g427
(idivisor
TwoPDivisor
p1026
(dp1027
g417
I-12
sg418
I24
sbtp1028
sg204
(g544
(idivisor
TwoPDivisor
p1029
(dp1030
g417
I-12
sg418
I24
sbtp1031
sg19
((idivisor
TwoPDivisor
p1032
(dp1033
g417
I11
sg418
I-6
sb(idivisor
TwoPDivisor
p1034
(dp1035
g417
I-12
sg418
I43
sbtp1036
sg186
(g432
(idivisor
TwoPDivisor
p1037
(dp1038
g417
I-13
sg418
I55
sbtp1039
sg401
(g450
(idivisor
TwoPDivisor
p1040
(dp1041
g417
I-13
sg418
I27
sbtp1042
sg202
(g568
(idivisor
TwoPDivisor
p1043
(dp1044
g417
I-6
sg418
I15
sbtp1045
sg209
(g437
(idivisor
TwoPDivisor
p1046
(dp1047
g417
I-12
sg418
I30
sbtp1048
sg331
(g483
(idivisor
TwoPDivisor
p1049
(dp1050
g417
I-13
sg418
I27
sbtp1051
sg47
(g427
(idivisor
TwoPDivisor
p1052
(dp1053
g417
I-1
sg418
I38
sbtp1054
sg381
(g478
(idivisor
TwoPDivisor
p1055
(dp1056
g417
I-12
sg418
I22
sbtp1057
sg242
(g563
(idivisor
TwoPDivisor
p1058
(dp1059
g417
I-13
sg418
I45
sbtp1060
sg74
(g432
(idivisor
TwoPDivisor
p1061
(dp1062
g417
I-1
sg418
I54
sbtp1063
sg52
((idivisor
TwoPDivisor
p1064
(dp1065
g417
I12
sg418
I-32
sb(idivisor
TwoPDivisor
p1066
(dp1067
g417
I-1
sg418
I56
sbtp1068
sg192
(g590
(idivisor
TwoPDivisor
p1069
(dp1070
g417
I-12
sg418
I30
sbtp1071
sg393
(g432
(idivisor
TwoPDivisor
p1072
(dp1073
g417
I-12
sg418
I30
sbtp1074
sg252
(g427
(idivisor
TwoPDivisor
p1075
(dp1076
g417
I-12
sg418
I36
sbtp1077
sg392
(g450
(idivisor
TwoPDivisor
p1078
(dp1079
g417
I-13
sg418
I30
sbtp1080
sg346
(g478
(idivisor
TwoPDivisor
p1081
(dp1082
g417
I-12
sg418
I28
sbtp1083
sg158
(g721
(idivisor
TwoPDivisor
p1084
(dp1085
g417
I-13
sg418
I27
sbtp1086
sg273
(g590
(idivisor
TwoPDivisor
p1087
(dp1088
g417
I-12
sg418
I24
sbtp1089
sg78
(g568
(idivisor
TwoPDivisor
p1090
(dp1091
g417
I-12
sg418
I28
sbtp1092
sg23
((idivisor
TwoPDivisor
p1093
(dp1094
g417
I7
sg418
I-10
sb(idivisor
TwoPDivisor
p1095
(dp1096
g417
I-9
sg418
I48
sbtp1097
sg160
(g501
(idivisor
TwoPDivisor
p1098
(dp1099
g417
I-13
sg418
I30
sbtp1100
sg391
(g563
(idivisor
TwoPDivisor
p1101
(dp1102
g417
I-12
sg418
I25
sbtp1103
sg246
(g422
(idivisor
TwoPDivisor
p1104
(dp1105
g417
I-12
sg418
I22
sbtp1106
sg12
((idivisor
TwoPDivisor
p1107
(dp1108
g417
I10
sg418
I6
sb(idivisor
TwoPDivisor
p1109
(dp1110
g417
I-11
sg418
I31
sbtp1111
sg233
(g501
(idivisor
TwoPDivisor
p1112
(dp1113
g417
I-12
sg418
I24
sbtp1114
sg251
(g483
(idivisor
TwoPDivisor
p1115
(dp1116
g417
I-12
sg418
I34
sbtp1117
sg56
((idivisor
TwoPDivisor
p1118
(dp1119
g417
I12
sg418
I9
sb(idivisor
TwoPDivisor
p1120
(dp1121
g417
I-1
sg418
I14
sbtp1122
sg5
((idivisor
TwoPDivisor
p1123
(dp1124
g417
I12
sg418
I15
sb(idivisor
TwoPDivisor
p1125
(dp1126
g417
I-13
sg418
I22
sbtp1127
sg368
(g563
(idivisor
TwoPDivisor
p1128
(dp1129
g417
I-12
sg418
I30
sbtp1130
sg213
(g427
(idivisor
TwoPDivisor
p1131
(dp1132
g417
I-13
sg418
I40
sbtp1133
sg91
(g819
(idivisor
TwoPDivisor
p1134
(dp1135
g417
I-1
sg418
I51
sbtp1136
sg179
(g672
(idivisor
TwoPDivisor
p1137
(dp1138
g417
I-12
sg418
I34
sbtp1139
sg247
(g579
(idivisor
TwoPDivisor
p1140
(dp1141
g417
I-12
sg418
I25
sbtp1142
sg67
(g845
(idivisor
TwoPDivisor
p1143
(dp1144
g417
I-11
sg418
I43
sbtp1145
sg221
(g501
(idivisor
TwoPDivisor
p1146
(dp1147
g417
I-12
sg418
I25
sbtp1148
sg347
(g729
(idivisor
TwoPDivisor
p1149
(dp1150
g417
I-12
sg418
I32
sbtp1151
sg326
(g729
(idivisor
TwoPDivisor
p1152
(dp1153
g417
I-12
sg418
I35
sbtp1154
sg177
(g590
(idivisor
TwoPDivisor
p1155
(dp1156
g417
I-13
sg418
I32
sbtp1157
sg8
(g531
(idivisor
TwoPDivisor
p1158
(dp1159
g417
I-9
sg418
I24
sbtp1160
sg111
(g488
(idivisor
TwoPDivisor
p1161
(dp1162
g417
I-13
sg418
I54
sbtp1163
sg139
(g544
(idivisor
TwoPDivisor
p1164
(dp1165
g417
I-9
sg418
I25
sbtp1166
sg132
((idivisor
TwoPDivisor
p1167
(dp1168
g417
I7
sg418
I-21
sb(idivisor
TwoPDivisor
p1169
(dp1170
g417
I-1
sg418
I46
sbtp1171
sg240
(g478
(idivisor
TwoPDivisor
p1172
(dp1173
g417
I-13
sg418
I40
sbtp1174
sg217
(g450
(idivisor
TwoPDivisor
p1175
(dp1176
g417
I-13
sg418
I52
sbtp1177
sg115
(g531
(idivisor
TwoPDivisor
p1178
(dp1179
g417
I-12
sg418
I22
sbtp1180
sg145
(g672
(idivisor
TwoPDivisor
p1181
(dp1182
g417
I-12
sg418
I36
sbtp1183
sg283
(g437
(idivisor
TwoPDivisor
p1184
(dp1185
g417
I-12
sg418
I24
sbtp1186
sg302
(g432
(idivisor
TwoPDivisor
p1187
(dp1188
g417
I-13
sg418
I45
sbtp1189
sg208
(g590
(idivisor
TwoPDivisor
p1190
(dp1191
g417
I-13
sg418
I30
sbtp1192
sg14
((idivisor
TwoPDivisor
p1193
(dp1194
g417
I11
sg418
I2
sb(idivisor
TwoPDivisor
p1195
(dp1196
g417
I-12
sg418
I35
sbtp1197
sg112
((idivisor
TwoPDivisor
p1198
(dp1199
g417
I7
sg418
I-23
sb(idivisor
TwoPDivisor
p1200
(dp1201
g417
I-1
sg418
I48
sbtp1202
sg259
(g501
(idivisor
TwoPDivisor
p1203
(dp1204
g417
I-12
sg418
I22
sbtp1205
sg370
(g432
(idivisor
TwoPDivisor
p1206
(dp1207
g417
I-12
sg418
I35
sbtp1208
sg250
(g653
(idivisor
TwoPDivisor
p1209
(dp1210
g417
I-12
sg418
I33
sbtp1211
sg280
(g450
(idivisor
TwoPDivisor
p1212
(dp1213
g417
I-13
sg418
I46
sbtp1214
sg241
(g729
(idivisor
TwoPDivisor
p1215
(dp1216
g417
I-13
sg418
I44
sbtp1217
sg30
((idivisor
TwoPDivisor
p1218
(dp1219
g417
I11
sg418
I14
sb(idivisor
TwoPDivisor
p1220
(dp1221
g417
I-12
sg418
I22
sbtp1222
sg183
(g789
(idivisor
TwoPDivisor
p1223
(dp1224
g417
I-2
sg418
I37
sbtp1225
sg382
(g729
(idivisor
TwoPDivisor
p1226
(dp1227
g417
I-13
sg418
I27
sbtp1228
sg206
(g501
(idivisor
TwoPDivisor
p1229
(dp1230
g417
I-13
sg418
I27
sbtp1231
sg222
(g590
(idivisor
TwoPDivisor
p1232
(dp1233
g417
I-12
sg418
I28
sbtp1234
sg104
(g437
(idivisor
TwoPDivisor
p1235
(dp1236
g417
I-12
sg418
I36
sbtp1237
sg287
(g427
(idivisor
TwoPDivisor
p1238
(dp1239
g417
I-12
sg418
I33
sbtp1240
sg130
(g536
(idivisor
TwoPDivisor
p1241
(dp1242
g417
I-12
sg418
I51
sbtp1243
sg274
(g437
(idivisor
TwoPDivisor
p1244
(dp1245
g417
I-12
sg418
I25
sbtp1246
sg362
(g563
(idivisor
TwoPDivisor
p1247
(dp1248
g417
I-13
sg418
I32
sbtp1249
sg312
(g450
(idivisor
TwoPDivisor
p1250
(dp1251
g417
I-13
sg418
I43
sbtp1252
sg279
(g563
(idivisor
TwoPDivisor
p1253
(dp1254
g417
I-13
sg418
I42
sbtp1255
sg249
(g672
(idivisor
TwoPDivisor
p1256
(dp1257
g417
I-13
sg418
I30
sbtp1258
sg299
(g729
(idivisor
TwoPDivisor
p1259
(dp1260
g417
I-12
sg418
I38
sbtp1261
sg313
(g432
(idivisor
TwoPDivisor
p1262
(dp1263
g417
I-13
sg418
I44
sbtp1264
sg364
(g432
(idivisor
TwoPDivisor
p1265
(dp1266
g417
I-12
sg418
I36
sbtp1267
sg124
(g437
(idivisor
TwoPDivisor
p1268
(dp1269
g417
I-12
sg418
I35
sbtp1270
sg330
(g653
(idivisor
TwoPDivisor
p1271
(dp1272
g417
I-12
sg418
I25
sbtp1273
sg266
(g427
(idivisor
TwoPDivisor
p1274
(dp1275
g417
I-12
sg418
I35
sbtp1276
sg257
(g432
(idivisor
TwoPDivisor
p1277
(dp1278
g417
I-1
sg418
I38
sbtp1279
sg367
(g729
(idivisor
TwoPDivisor
p1280
(dp1281
g417
I-13
sg418
I30
sbtp1282
sg262
(g437
(idivisor
TwoPDivisor
p1283
(dp1284
g417
I-13
sg418
I27
sbtp1285
sg363
(g450
(idivisor
TwoPDivisor
p1286
(dp1287
g417
I-12
sg418
I35
sbtp1288
sg18
((idivisor
TwoPDivisor
p1289
(dp1290
g417
I12
sg418
I-6
sb(idivisor
TwoPDivisor
p1291
(dp1292
g417
I-13
sg418
I43
sbtp1293
sg272
(g501
(idivisor
TwoPDivisor
p1294
(dp1295
g417
I-11
sg418
I20
sbtp1296
sg28
((idivisor
TwoPDivisor
p1297
(dp1298
g417
I12
sg418
I-38
sb(idivisor
TwoPDivisor
p1299
(dp1300
g417
I-1
sg418
I63
sbtp1301
sg276
(g483
(idivisor
TwoPDivisor
p1302
(dp1303
g417
I-12
sg418
I32
sbtp1304
sg152
(g450
(idivisor
TwoPDivisor
p1305
(dp1306
g417
I-13
sg418
I56
sbtp1307
sg210
(g672
(idivisor
TwoPDivisor
p1308
(dp1309
g417
I-12
sg418
I32
sbtp1310
sg373
(g729
(idivisor
TwoPDivisor
p1311
(dp1312
g417
I-12
sg418
I28
sbtp1313
sg214
(g478
(idivisor
TwoPDivisor
p1314
(dp1315
g417
I-13
sg418
I42
sbtp1316
sg98
(g558
(idivisor
TwoPDivisor
p1317
(dp1318
g417
I-3
sg418
I19
sbtp1319
sg46
((idivisor
TwoPDivisor
p1320
(dp1321
g417
I12
sg418
I-12
sb(idivisor
TwoPDivisor
p1322
(dp1323
g417
I-1
sg418
I36
sbtp1324
sg51
(g819
(idivisor
TwoPDivisor
p1325
(dp1326
g417
I-11
sg418
I64
sbtp1327
sg199
(g563
(idivisor
TwoPDivisor
p1328
(dp1329
g417
I-13
sg418
I48
sbtp1330
sg163
(g437
(idivisor
TwoPDivisor
p1331
(dp1332
g417
I-12
sg418
I33
sbtp1333
sg309
(g478
(idivisor
TwoPDivisor
p1334
(dp1335
g417
I-12
sg418
I33
sbtp1336
sg194
(g672
(idivisor
TwoPDivisor
p1337
(dp1338
g417
I-12
sg418
I33
sbtp1339
sg234
(g579
(idivisor
TwoPDivisor
p1340
(dp1341
g417
I-13
sg418
I27
sbtp1342
sg396
(g432
(idivisor
TwoPDivisor
p1343
(dp1344
g417
I-13
sg418
I30
sbtp1345
sg327
(g563
(idivisor
TwoPDivisor
p1346
(dp1347
g417
I-12
sg418
I36
sbtp1348
sg227
(g427
(idivisor
TwoPDivisor
p1349
(dp1350
g417
I-12
sg418
I38
sbtp1351
sg198
(g789
(idivisor
TwoPDivisor
p1352
(dp1353
g417
I-3
sg418
I37
sbtp1354
sg153
(g432
(idivisor
TwoPDivisor
p1355
(dp1356
g417
I-6
sg418
I51
sbtp1357
sg20
((idivisor
TwoPDivisor
p1358
(dp1359
g417
I10
sg418
I-6
sb(idivisor
TwoPDivisor
p1360
(dp1361
g417
I-11
sg418
I43
sbtp1362
sg161
(g579
(idivisor
TwoPDivisor
p1363
(dp1364
g417
I-13
sg418
I32
sbtp1365
sg333
(g478
(idivisor
TwoPDivisor
p1366
(dp1367
g417
I-12
sg418
I30
sbtp1368
sg27
(g819
(idivisor
TwoPDivisor
p1369
(dp1370
g417
I-9
sg418
I64
sbtp1371
sg126
(g653
(idivisor
TwoPDivisor
p1372
(dp1373
g417
I-8
sg418
I37
sbtp1374
sg58
(g517
(idivisor
TwoPDivisor
p1375
(dp1376
g417
I-3
sg418
I19
sbtp1377
sg39
((idivisor
TwoPDivisor
p1378
(dp1379
g417
I10
sg418
I4
sb(idivisor
TwoPDivisor
p1380
(dp1381
g417
I-12
sg418
I33
sbtp1382
sg105
((idivisor
TwoPDivisor
p1383
(dp1384
g417
I6
sg418
I1
sb(idivisor
TwoPDivisor
p1385
(dp1386
g417
I-12
sg418
I37
sbtp1387
sg411
(g432
(idivisor
TwoPDivisor
p1388
(dp1389
g417
I-11
sg418
I20
sbtp1390
sg138
(g558
(idivisor
TwoPDivisor
p1391
(dp1392
g417
I-13
sg418
I27
sbtp1393
sg168
(g536
(idivisor
TwoPDivisor
p1394
(dp1395
g417
I-1
sg418
I38
sbtp1396
sg137
(g568
(idivisor
TwoPDivisor
p1397
(dp1398
g417
I-12
sg418
I25
sbtp1399
sg101
(g501
(idivisor
TwoPDivisor
p1400
(dp1401
g417
I-12
sg418
I32
sbtp1402
sg338
(g483
(idivisor
TwoPDivisor
p1403
(dp1404
g417
I-12
sg418
I25
sbtp1405
sg135
(g943
(idivisor
TwoPDivisor
p1406
(dp1407
g417
I-12
sg418
I22
sbtp1408
sg40
(g501
(idivisor
TwoPDivisor
p1409
(dp1410
g417
I-12
sg418
I35
sbtp1411
sg196
(g483
(idivisor
TwoPDivisor
p1412
(dp1413
g417
I-12
sg418
I38
sbtp1414
sg84
(g672
(idivisor
TwoPDivisor
p1415
(dp1416
g417
I-9
sg418
I36
sbtp1417
sg136
(g517
(idivisor
TwoPDivisor
p1418
(dp1419
g417
I-7
sg418
I19
sbtp1420
sg119
(g544
(idivisor
TwoPDivisor
p1421
(dp1422
g417
I-7
sg418
I24
sbtp1423
sg69
(g427
(idivisor
TwoPDivisor
p1424
(dp1425
g417
I-13
sg418
I48
sbtp1426
sg94
(g664
(idivisor
TwoPDivisor
p1427
(dp1428
g417
I-12
sg418
I22
sbtp1429
sg334
(g729
(idivisor
TwoPDivisor
p1430
(dp1431
g417
I-12
sg418
I34
sbtp1432
sg207
(g579
(idivisor
TwoPDivisor
p1433
(dp1434
g417
I-12
sg418
I28
sbtp1435
sg290
(g450
(idivisor
TwoPDivisor
p1436
(dp1437
g417
I-13
sg418
I45
sbtp1438
sg197
(g478
(idivisor
TwoPDivisor
p1439
(dp1440
g417
I-13
sg418
I43
sbtp1441
sg298
(g478
(idivisor
TwoPDivisor
p1442
(dp1443
g417
I-12
sg418
I34
sbtp1444
sg351
(g653
(idivisor
TwoPDivisor
p1445
(dp1446
g417
I-12
sg418
I22
sbtp1447
sg286
(g483
(idivisor
TwoPDivisor
p1448
(dp1449
g417
I-13
sg418
I32
sbtp1450
sg291
(g432
(idivisor
TwoPDivisor
p1451
(dp1452
g417
I-13
sg418
I46
sbtp1453
sg323
(g653
(idivisor
TwoPDivisor
p1454
(dp1455
g417
I-13
sg418
I27
sbtp1456
sg141
(g501
(idivisor
TwoPDivisor
p1457
(dp1458
g417
I-12
sg418
I30
sbtp1459
sg36
(g568
(idivisor
TwoPDivisor
p1460
(dp1461
g417
I-12
sg418
I30
sbtp1462
sg218
(g432
(idivisor
TwoPDivisor
p1463
(dp1464
g417
I-13
sg418
I53
sbtp1465
sg33
(g1118
(idivisor
TwoPDivisor
p1466
(dp1467
g417
I-13
sg418
I27
sbtp1468
sg77
(g531
(idivisor
TwoPDivisor
p1469
(dp1470
g417
I-12
sg418
I24
sbtp1471
sg159
(g422
(idivisor
TwoPDivisor
p1472
(dp1473
g417
I-7
sg418
I23
sbtp1474
sg24
((idivisor
TwoPDivisor
p1475
(dp1476
g417
I6
sg418
I-13
sb(idivisor
TwoPDivisor
p1477
(dp1478
g417
I-8
sg418
I51
sbtp1479
sg342
(g450
(idivisor
TwoPDivisor
p1480
(dp1481
g417
I-12
sg418
I38
sbtp1482
sg85
(g653
(idivisor
TwoPDivisor
p1483
(dp1484
g417
I-6
sg418
I37
sbtp1485
sg358
(g483
(idivisor
TwoPDivisor
p1486
(dp1487
g417
I-12
sg418
I22
sbtp1488
sg379
(g450
(idivisor
TwoPDivisor
p1489
(dp1490
g417
I-12
sg418
I32
sbtp1491
sg187
(g517
(idivisor
TwoPDivisor
p1492
(dp1493
g417
I-6
sg418
I15
sbtp1494
sg322
(g672
(idivisor
TwoPDivisor
p1495
(dp1496
g417
I-12
sg418
I22
sbtp1497
sg103
(g590
(idivisor
TwoPDivisor
p1498
(dp1499
g417
I-12
sg418
I35
sbtp1500
sg256
(g450
(idivisor
TwoPDivisor
p1501
(dp1502
g417
I-13
sg418
I48
sbtp1503
sg195
(g653
(idivisor
TwoPDivisor
p1504
(dp1505
g417
I-12
sg418
I37
sbtp1506
sg53
(g1218
(idivisor
TwoPDivisor
p1507
(dp1508
g417
I-12
sg418
I21
sbtp1509
sg255
(g563
(idivisor
TwoPDivisor
p1510
(dp1511
g417
I-13
sg418
I44
sbtp1512
sg339
(g478
(idivisor
TwoPDivisor
p1513
(dp1514
g417
I-13
sg418
I30
sbtp1515
sg90
(g488
(idivisor
TwoPDivisor
p1516
(dp1517
g417
I-13
sg418
I55
sbtp1518
sg201
(g432
(idivisor
TwoPDivisor
p1519
(dp1520
g417
I-13
sg418
I54
sbtp1521
sg254
(g729
(idivisor
TwoPDivisor
p1522
(dp1523
g417
I-13
sg418
I43
sbtp1524
sg353
(g729
(idivisor
TwoPDivisor
p1525
(dp1526
g417
I-13
sg418
I32
sbtp1527
sg284
(g672
(idivisor
TwoPDivisor
p1528
(dp1529
g417
I-13
sg418
I27
sbtp1530
sg397
(g729
(idivisor
TwoPDivisor
p1531
(dp1532
g417
I-12
sg418
I22
sbtp1533
sg37
(g558
(idivisor
TwoPDivisor
p1534
(dp1535
g417
I-13
sg418
I32
sbtp1536
sg355
(g450
(idivisor
TwoPDivisor
p1537
(dp1538
g417
I-12
sg418
I36
sbtp1539
sg294
(g672
(idivisor
TwoPDivisor
p1540
(dp1541
g417
I-12
sg418
I25
sbtp1542
sg146
(g653
(idivisor
TwoPDivisor
p1543
(dp1544
g417
I-9
sg418
I37
sbtp1545
sg200
(g450
(idivisor
TwoPDivisor
p1546
(dp1547
g417
I-13
sg418
I53
sbtp1548
sg224
(g672
(idivisor
TwoPDivisor
p1549
(dp1550
g417
I-13
sg418
I32
sbtp1551
sg118
(g568
(idivisor
TwoPDivisor
p1552
(dp1553
g417
I-13
sg418
I27
sbtp1554
sg337
(g653
(idivisor
TwoPDivisor
p1555
(dp1556
g417
I-12
sg418
I24
sbtp1557
sg386
(g729
(idivisor
TwoPDivisor
p1558
(dp1559
g417
I-12
sg418
I25
sbtp1560
sg157
(g558
(idivisor
TwoPDivisor
p1561
(dp1562
g417
I-1
sg418
I14
sbtp1563
sg385
(g478
(idivisor
TwoPDivisor
p1564
(dp1565
g417
I-11
sg418
I20
sbtp1566
sg408
(g450
(idivisor
TwoPDivisor
p1567
(dp1568
g417
I-12
sg418
I22
sbtp1569
sg140
(g422
(idivisor
TwoPDivisor
p1570
(dp1571
g417
I-13
sg418
I30
sbtp1572
sg388
(g450
(idivisor
TwoPDivisor
p1573
(dp1574
g417
I-12
sg418
I30
sbtp1575
sg320
(g450
(idivisor
TwoPDivisor
p1576
(dp1577
g417
I-13
sg418
I42
sbtp1578
sg164
(g672
(idivisor
TwoPDivisor
p1579
(dp1580
g417
I-12
sg418
I35
sbtp1581
sg269
(g563
(idivisor
TwoPDivisor
p1582
(dp1583
g417
I-13
sg418
I43
sbtp1584
sg387
(g563
(idivisor
TwoPDivisor
p1585
(dp1586
g417
I-13
sg418
I27
sbtp1587
sg83
(g437
(idivisor
TwoPDivisor
p1588
(dp1589
g417
I-12
sg418
I37
sbtp1590
sg332
(g427
(idivisor
TwoPDivisor
p1591
(dp1592
g417
I-12
sg418
I28
sbtp1593
sg295
(g653
(idivisor
TwoPDivisor
p1594
(dp1595
g417
I-13
sg418
I30
sbtp1596
sg365
(g483
(idivisor
TwoPDivisor
p1597
(dp1598
g417
I-11
sg418
I20
sbtp1599
sg212
(g483
(idivisor
TwoPDivisor
p1600
(dp1601
g417
I-12
sg418
I37
sbtp1602
sg3
(g1297
(idivisor
TwoPDivisor
p1603
(dp1604
g417
I-13
sg418
I75
sbtp1605
sg81
(g579
(idivisor
TwoPDivisor
p1606
(dp1607
g417
I-12
sg418
I35
sbtp1608
sg99
(g544
(idivisor
TwoPDivisor
p1609
(dp1610
g417
I-7
sg418
I25
sbtp1611
sg216
(g563
(idivisor
TwoPDivisor
p1612
(dp1613
g417
I-13
sg418
I47
sbtp1614
sg394
(g563
(idivisor
TwoPDivisor
p1615
(dp1616
g417
I-12
sg418
I24
sbtp1617
sg308
(g427
(idivisor
TwoPDivisor
p1618
(dp1619
g417
I-13
sg418
I32
sbtp1620
sg16
((idivisor
TwoPDivisor
p1621
(dp1622
g417
I9
sg418
I0
sb(idivisor
TwoPDivisor
p1623
(dp1624
g417
I-11
sg418
I38
sbtp1625
sg371
(g427
(idivisor
TwoPDivisor
p1626
(dp1627
g417
I-12
sg418
I22
sbtp1628
sg127
(g483
(idivisor
TwoPDivisor
p1629
(dp1630
g417
I-13
sg418
I43
sbtp1631
sg344
(g483
(idivisor
TwoPDivisor
p1632
(dp1633
g417
I-12
sg418
I24
sbtp1634
sg79
(g558
(idivisor
TwoPDivisor
p1635
(dp1636
g417
I-13
sg418
I30
sbtp1637
sg263
(g672
(idivisor
TwoPDivisor
p1638
(dp1639
g417
I-12
sg418
I28
sbtp1640
sg264
(g653
(idivisor
TwoPDivisor
p1641
(dp1642
g417
I-12
sg418
I32
sbtp1643
sg293
(g590
(idivisor
TwoPDivisor
p1644
(dp1645
g417
I-12
sg418
I22
sbtp1646
sg70
(g478
(idivisor
TwoPDivisor
p1647
(dp1648
g417
I-9
sg418
I46
sbtp1649
sg11
(g568
(idivisor
TwoPDivisor
p1650
(dp1651
g417
I-12
sg418
I31
sbtp1652
sg303
(g590
(idivisor
TwoPDivisor
p1653
(dp1654
g417
I-11
sg418
I20
sbtp1655
sg319
(g563
(idivisor
TwoPDivisor
p1656
(dp1657
g417
I-12
sg418
I37
sbtp1658
sg304
(g437
(idivisor
TwoPDivisor
p1659
(dp1660
g417
I-12
sg418
I22
sbtp1661
sg297
(g427
(idivisor
TwoPDivisor
p1662
(dp1663
g417
I-12
sg418
I32
sbtp1664
sg62
(g1378
(idivisor
TwoPDivisor
p1665
(dp1666
g417
I-12
sg418
I32
sbtp1667
sg13
(g721
(idivisor
TwoPDivisor
p1668
(dp1669
g417
I-12
sg418
I33
sbtp1670
sg93
(g496
(idivisor
TwoPDivisor
p1671
(dp1672
g417
I-11
sg418
I20
sbtp1673
sg151
(g488
(idivisor
TwoPDivisor
p1674
(dp1675
g417
I-13
sg418
I52
sbtp1676
sg354
(g563
(idivisor
TwoPDivisor
p1677
(dp1678
g417
I-12
sg418
I32
sbtp1679
sg50
(g1000
(idivisor
TwoPDivisor
p1680
(dp1681
g417
I-6
sg418
I51
sbtp1682
sg95
(g943
(idivisor
TwoPDivisor
p1683
(dp1684
g417
I-12
sg418
I24
sbtp1685
sg243
(g450
(idivisor
TwoPDivisor
p1686
(dp1687
g417
I-1
sg418
I38
sbtp1688
sg329
(g672
(idivisor
TwoPDivisor
p1689
(dp1690
g417
I-11
sg418
I20
sbtp1691
sg407
(g432
(idivisor
TwoPDivisor
p1692
(dp1693
g417
I-12
sg418
I24
sbtp1694
sg181
(g427
(idivisor
TwoPDivisor
p1695
(dp1696
g417
I-13
sg418
I42
sbtp1697
sg54
(g414
(idivisor
TwoPDivisor
p1698
(dp1699
g417
I-12
sg418
I22
sbtp1700
sg129
(g478
(idivisor
TwoPDivisor
p1701
(dp1702
g417
I-12
sg418
I46
sbtp1703
sg211
(g653
(idivisor
TwoPDivisor
p1704
(dp1705
g417
I-12
sg418
I36
sbtp1706
sg260
(g579
(idivisor
TwoPDivisor
p1707
(dp1708
g417
I-12
sg418
I24
sbtp1709
sg72
(g488
(idivisor
TwoPDivisor
p1710
(dp1711
g417
I-13
sg418
I56
sbtp1712
sg106
(g653
(idivisor
TwoPDivisor
p1713
(dp1714
g417
I-7
sg418
I37
sbtp1715
sg42
((idivisor
TwoPDivisor
p1716
(dp1717
g417
I11
sg418
I-4
sb(idivisor
TwoPDivisor
p1718
(dp1719
g417
I-13
sg418
I41
sbtp1720
sg162
(g590
(idivisor
TwoPDivisor
p1721
(dp1722
g417
I-12
sg418
I32
sbtp1723
sg172
(g464
(idivisor
TwoPDivisor
p1724
(dp1725
g417
I-11
sg418
I20
sbtp1726
sg65
(g672
(idivisor
TwoPDivisor
p1727
(dp1728
g417
I-8
sg418
I36
sbtp1729
sg9
((idivisor
TwoPDivisor
p1730
(dp1731
g417
I5
sg418
I15
sb(idivisor
TwoPDivisor
p1732
(dp1733
g417
I-7
sg418
I23
sbtp1734
sg185
(g450
(idivisor
TwoPDivisor
p1735
(dp1736
g417
I-13
sg418
I54
sbtp1737
sg107
(g483
(idivisor
TwoPDivisor
p1738
(dp1739
g417
I-13
sg418
I44
sbtp1740
sg123
(g590
(idivisor
TwoPDivisor
p1741
(dp1742
g417
I-12
sg418
I34
sbtp1743
sg402
(g563
(idivisor
TwoPDivisor
p1744
(dp1745
g417
I-11
sg418
I20
sbtp1746
sg360
(g478
(idivisor
TwoPDivisor
p1747
(dp1748
g417
I-13
sg418
I27
sbtp1749
sg239
(g427
(idivisor
TwoPDivisor
p1750
(dp1751
g417
I-12
sg418
I37
sbtp1752
sg258
(g422
(idivisor
TwoPDivisor
p1753
(dp1754
g417
I-11
sg418
I20
sbtp1755
sg265
(g483
(idivisor
TwoPDivisor
p1756
(dp1757
g417
I-12
sg418
I33
sbtp1758
sg220
(g422
(idivisor
TwoPDivisor
p1759
(dp1760
g417
I-12
sg418
I24
sbtp1761
sg125
((idivisor
TwoPDivisor
p1762
(dp1763
g417
I5
sg418
I1
sb(idivisor
TwoPDivisor
p1764
(dp1765
g417
I-12
sg418
I37
sbtp1766
sg281
(g432
(idivisor
TwoPDivisor
p1767
(dp1768
g417
I-13
sg418
I47
sbtp1769
sg361
(g729
(idivisor
TwoPDivisor
p1770
(dp1771
g417
I-12
sg418
I30
sbtp1772
sg121
(g501
(idivisor
TwoPDivisor
p1773
(dp1774
g417
I-13
sg418
I32
sbtp1775
ss.