(dp0
S'ind'
p1
(lp2
(I0
I62
I0
tp3
a(I1
I9
I28
tp4
a(I1
I12
I24
tp5
a(I1
I13
I26
tp6
a(I1
I15
I23
tp7
a(I1
I16
I22
tp8
a(I1
I17
I21
tp9
a(I1
I18
I20
tp10
a(I1
I19
I19
tp11
a(I1
I20
I18
tp12
a(I1
I21
I17
tp13
a(I1
I22
I16
tp14
a(I1
I25
I14
tp15
a(I1
I27
I13
tp16
a(I1
I29
I12
tp17
a(I1
I30
I10
tp18
a(I1
I31
I9
tp19
a(I1
I35
I8
tp20
a(I1
I37
I7
tp21
a(I1
I43
I5
tp22
a(I1
I45
I4
tp23
a(I1
I47
I3
tp24
a(I1
I55
I2
tp25
a(I2
I9
I26
tp26
a(I2
I11
I25
tp27
a(I2
I12
I23
tp28
a(I2
I15
I22
tp29
a(I2
I17
I20
tp30
a(I2
I19
I18
tp31
a(I2
I21
I16
tp32
a(I2
I22
I13
tp33
a(I2
I24
I12
tp34
a(I2
I29
I10
tp35
a(I2
I30
I9
tp36
a(I2
I32
I8
tp37
a(I2
I35
I7
tp38
a(I2
I43
I4
tp39
a(I2
I45
I3
tp40
a(I2
I53
I2
tp41
a(I3
I9
I25
tp42
a(I3
I11
I24
tp43
a(I3
I12
I22
tp44
a(I3
I15
I21
tp45
a(I3
I20
I16
tp46
a(I3
I21
I13
tp47
a(I3
I23
I12
tp48
a(I3
I25
I10
tp49
a(I3
I29
I9
tp50
a(I3
I31
I8
tp51
a(I3
I34
I6
tp52
a(I3
I42
I4
tp53
a(I3
I43
I3
tp54
a(I3
I51
I2
tp55
a(I4
I9
I24
tp56
a(I4
I11
I23
tp57
a(I4
I12
I21
tp58
a(I4
I17
I18
tp59
a(I4
I20
I13
tp60
a(I4
I22
I12
tp61
a(I4
I24
I10
tp62
a(I4
I30
I8
tp63
a(I4
I33
I6
tp64
a(I4
I41
I4
tp65
a(I4
I42
I3
tp66
a(I4
I50
I2
tp67
a(I5
I9
I23
tp68
a(I5
I11
I22
tp69
a(I5
I15
I20
tp70
a(I5
I19
I16
tp71
a(I5
I21
I12
tp72
a(I5
I23
I10
tp73
a(I5
I29
I8
tp74
a(I5
I32
I6
tp75
a(I5
I40
I4
tp76
a(I5
I41
I3
tp77
a(I5
I47
I2
tp78
a(I6
I9
I22
tp79
a(I6
I11
I21
tp80
a(I6
I12
I20
tp81
a(I6
I19
I13
tp82
a(I6
I20
I12
tp83
a(I6
I22
I10
tp84
a(I6
I28
I8
tp85
a(I6
I31
I6
tp86
a(I6
I39
I4
tp87
a(I6
I40
I3
tp88
a(I6
I45
I2
tp89
a(I7
I9
I21
tp90
a(I7
I15
I18
tp91
a(I7
I17
I16
tp92
a(I7
I21
I10
tp93
a(I7
I30
I6
tp94
a(I7
I38
I4
tp95
a(I7
I39
I3
tp96
a(I7
I43
I2
tp97
a(I8
I11
I20
tp98
a(I8
I12
I18
tp99
a(I8
I17
I13
tp100
a(I8
I19
I12
tp101
a(I8
I20
I10
tp102
a(I8
I27
I8
tp103
a(I8
I29
I6
tp104
a(I8
I37
I4
tp105
a(I8
I38
I3
tp106
a(I8
I42
I2
tp107
a(I9
I9
I20
tp108
a(I9
I25
I8
tp109
a(I9
I28
I6
tp110
a(I9
I35
I4
tp111
a(I9
I37
I3
tp112
a(I9
I41
I2
tp113
a(I10
I11
I18
tp114
a(I10
I15
I16
tp115
a(I10
I17
I12
tp116
a(I10
I19
I10
tp117
a(I10
I24
I8
tp118
a(I10
I34
I4
tp119
a(I10
I35
I3
tp120
a(I10
I40
I2
tp121
a(I11
I9
I18
tp122
a(I11
I12
I16
tp123
a(I11
I15
I13
tp124
a(I11
I23
I8
tp125
a(I11
I27
I6
tp126
a(I11
I33
I4
tp127
a(I11
I34
I3
tp128
a(I11
I39
I2
tp129
a(I12
I12
I13
tp130
a(I12
I17
I10
tp131
a(I12
I22
I8
tp132
a(I12
I25
I6
tp133
a(I12
I32
I4
tp134
a(I12
I33
I3
tp135
a(I12
I38
I2
tp136
a(I13
I11
I16
tp137
a(I13
I15
I12
tp138
a(I13
I21
I8
tp139
a(I13
I24
I6
tp140
a(I13
I31
I4
tp141
a(I13
I32
I3
tp142
a(I13
I37
I2
tp143
a(I14
I9
I16
tp144
a(I14
I11
I13
tp145
a(I14
I12
I12
tp146
a(I14
I20
I8
tp147
a(I14
I23
I6
tp148
a(I14
I30
I4
tp149
a(I14
I31
I3
tp150
a(I14
I35
I2
tp151
a(I15
I9
I13
tp152
a(I15
I15
I10
tp153
a(I15
I22
I6
tp154
a(I15
I29
I4
tp155
a(I15
I30
I3
tp156
a(I15
I34
I2
tp157
a(I16
I11
I12
tp158
a(I16
I12
I10
tp159
a(I16
I19
I8
tp160
a(I16
I21
I6
tp161
a(I16
I28
I4
tp162
a(I16
I29
I3
tp163
a(I16
I33
I2
tp164
a(I17
I9
I12
tp165
a(I17
I20
I6
tp166
a(I17
I28
I3
tp167
a(I17
I32
I2
tp168
a(I18
I11
I10
tp169
a(I18
I17
I8
tp170
a(I18
I27
I4
tp171
a(I18
I31
I2
tp172
a(I19
I9
I10
tp173
a(I19
I19
I6
tp174
a(I19
I25
I4
tp175
a(I19
I27
I3
tp176
a(I19
I30
I2
tp177
a(I20
I24
I4
tp178
a(I20
I25
I3
tp179
a(I20
I29
I2
tp180
a(I21
I15
I8
tp181
a(I21
I17
I6
tp182
a(I21
I23
I4
tp183
a(I21
I24
I3
tp184
a(I21
I28
I2
tp185
a(I22
I12
I8
tp186
a(I22
I22
I4
tp187
a(I22
I23
I3
tp188
a(I23
I21
I4
tp189
a(I23
I22
I3
tp190
a(I23
I27
I2
tp191
a(I24
I11
I8
tp192
a(I24
I15
I6
tp193
a(I24
I20
I4
tp194
a(I24
I21
I3
tp195
a(I24
I25
I2
tp196
a(I25
I9
I8
tp197
a(I25
I12
I6
tp198
a(I25
I20
I3
tp199
a(I25
I24
I2
tp200
a(I26
I19
I4
tp201
a(I26
I23
I2
tp202
a(I27
I11
I6
tp203
a(I27
I19
I3
tp204
a(I27
I22
I2
tp205
a(I28
I9
I6
tp206
a(I28
I17
I4
tp207
a(I28
I21
I2
tp208
a(I29
I17
I3
tp209
a(I29
I20
I2
tp210
a(I31
I15
I4
tp211
a(I31
I19
I2
tp212
a(I32
I12
I4
tp213
a(I32
I15
I3
tp214
a(I33
I12
I3
tp215
a(I33
I17
I2
tp216
a(I34
I11
I4
tp217
a(I35
I9
I4
tp218
a(I35
I11
I3
tp219
a(I36
I9
I3
tp220
a(I36
I15
I2
tp221
a(I37
I12
I2
tp222
a(I39
I11
I2
tp223
a(I40
I9
I2
tp224
asS'witness'
p225
(dp226
g194
((idivisor
TwoPDivisor
p227
(dp229
S'Q'
p230
I0
sS'P'
p231
I-9
sb(idivisor
TwoPDivisor
p232
(dp233
g230
I-1
sg231
I21
sbtp234
sg185
((idivisor
TwoPDivisor
p235
(dp236
g230
I0
sg231
I-19
sb(idivisor
TwoPDivisor
p237
(dp238
g230
I-1
sg231
I29
sbtp239
sg159
((idivisor
TwoPDivisor
p240
(dp241
g230
I0
sg231
I9
sb(idivisor
TwoPDivisor
p242
(dp243
g230
I-1
sg231
I13
sbtp244
sg204
((idivisor
TwoPDivisor
p245
(dp246
g230
I0
sg231
I-11
sb(idivisor
TwoPDivisor
p247
(dp248
g230
I-1
sg231
I19
sbtp249
sg167
(g245
(idivisor
TwoPDivisor
p250
(dp251
g230
I-1
sg231
I29
sbtp252
sg213
(g227
(idivisor
TwoPDivisor
p253
(dp254
g230
I-1
sg231
I13
sbtp255
sg208
(g235
(idivisor
TwoPDivisor
p256
(dp257
g230
I-1
sg231
I22
sbtp258
sg166
((idivisor
TwoPDivisor
p259
(dp260
g230
I0
sg231
I-1
sb(idivisor
TwoPDivisor
p261
(dp262
g230
I-1
sg231
I21
sbtp263
sg57
((idivisor
TwoPDivisor
p264
(dp265
g230
I0
sg231
I23
sb(idivisor
TwoPDivisor
p266
(dp267
g230
I-1
sg231
I11
sbtp268
sg42
((idivisor
TwoPDivisor
p269
(dp270
g230
I0
sg231
I25
sb(idivisor
TwoPDivisor
p271
(dp272
g230
I-1
sg231
I10
sbtp273
sg205
(g235
(idivisor
TwoPDivisor
p274
(dp275
g230
I-1
sg231
I23
sbtp276
sg55
(g235
(idivisor
TwoPDivisor
p277
(dp278
g230
I-1
sg231
I52
sbtp279
sg64
(g259
(idivisor
TwoPDivisor
p280
(dp281
g230
I-1
sg231
I34
sbtp282
sg191
(g235
(idivisor
TwoPDivisor
p283
(dp284
g230
I-1
sg231
I27
sbtp285
sg124
((idivisor
TwoPDivisor
p286
(dp287
g230
I0
sg231
I13
sb(idivisor
TwoPDivisor
p288
(dp289
g230
I-1
sg231
I14
sbtp290
sg4
((idivisor
TwoPDivisor
p291
(dp292
g230
I0
sg231
I27
sb(idivisor
TwoPDivisor
p293
(dp294
g230
I-1
sg231
I10
sbtp295
sg50
((idivisor
TwoPDivisor
p296
(dp297
g230
I0
sg231
I5
sb(idivisor
TwoPDivisor
p298
(dp299
g230
I-1
sg231
I30
sbtp300
sg68
(g264
(idivisor
TwoPDivisor
p301
(dp302
g230
I-1
sg231
I10
sbtp303
sg157
(g235
(idivisor
TwoPDivisor
p304
(dp305
g230
I-1
sg231
I35
sbtp306
sg102
(g240
(idivisor
TwoPDivisor
p307
(dp308
g230
I-1
sg231
I21
sbtp309
sg67
(g235
(idivisor
TwoPDivisor
p310
(dp311
g230
I-1
sg231
I51
sbtp312
sg190
(g245
(idivisor
TwoPDivisor
p313
(dp314
g230
I-1
sg231
I23
sbtp315
sg16
(g240
(idivisor
TwoPDivisor
p316
(dp317
g230
I-1
sg231
I28
sbtp318
sg108
((idivisor
TwoPDivisor
p319
(dp320
g230
I0
sg231
I19
sb(idivisor
TwoPDivisor
p321
(dp322
g230
I-1
sg231
I10
sbtp323
sg118
((idivisor
TwoPDivisor
p324
(dp325
g230
I0
sg231
I3
sb(idivisor
TwoPDivisor
p326
(dp327
g230
I-1
sg231
I25
sbtp328
sg129
(g235
(idivisor
TwoPDivisor
p329
(dp330
g230
I-1
sg231
I40
sbtp331
sg80
((idivisor
TwoPDivisor
p332
(dp333
g230
I0
sg231
I21
sb(idivisor
TwoPDivisor
p334
(dp335
g230
I-1
sg231
I11
sbtp336
sg151
(g235
(idivisor
TwoPDivisor
p337
(dp338
g230
I-1
sg231
I36
sbtp339
sg88
(g245
(idivisor
TwoPDivisor
p340
(dp341
g230
I-1
sg231
I41
sbtp342
sg131
(g240
(idivisor
TwoPDivisor
p343
(dp344
g230
I-1
sg231
I17
sbtp345
sg77
(g245
(idivisor
TwoPDivisor
p346
(dp347
g230
I-1
sg231
I42
sbtp348
sg69
((idivisor
TwoPDivisor
p349
(dp350
g230
I0
sg231
I22
sb(idivisor
TwoPDivisor
p351
(dp352
g230
I-1
sg231
I11
sbtp353
sg150
(g245
(idivisor
TwoPDivisor
p354
(dp355
g230
I-1
sg231
I32
sbtp356
sg89
(g235
(idivisor
TwoPDivisor
p357
(dp358
g230
I-1
sg231
I46
sbtp359
sg196
(g235
(idivisor
TwoPDivisor
p360
(dp361
g230
I-1
sg231
I26
sbtp362
sg154
(g259
(idivisor
TwoPDivisor
p363
(dp364
g230
I-1
sg231
I23
sbtp365
sg66
(g245
(idivisor
TwoPDivisor
p366
(dp367
g230
I-1
sg231
I43
sbtp368
sg29
(g349
(idivisor
TwoPDivisor
p369
(dp370
g230
I-1
sg231
I14
sbtp371
sg13
((idivisor
TwoPDivisor
p372
(dp373
g230
I0
sg231
I15
sb(idivisor
TwoPDivisor
p374
(dp375
g230
I-1
sg231
I22
sbtp376
sg81
(g319
(idivisor
TwoPDivisor
p377
(dp378
g230
I-1
sg231
I13
sbtp379
sg149
(g227
(idivisor
TwoPDivisor
p380
(dp381
g230
I-1
sg231
I31
sbtp382
sg135
(g245
(idivisor
TwoPDivisor
p383
(dp384
g230
I-1
sg231
I34
sbtp385
sg147
(g324
(idivisor
TwoPDivisor
p386
(dp387
g230
I-1
sg231
I21
sbtp388
sg95
(g227
(idivisor
TwoPDivisor
p389
(dp390
g230
I-1
sg231
I39
sbtp391
sg121
(g235
(idivisor
TwoPDivisor
p392
(dp393
g230
I-1
sg231
I41
sbtp394
sg23
(g227
(idivisor
TwoPDivisor
p395
(dp396
g230
I-1
sg231
I46
sbtp397
sg30
(g319
(idivisor
TwoPDivisor
p398
(dp399
g230
I-1
sg231
I17
sbtp400
sg72
((idivisor
TwoPDivisor
p401
(dp402
g230
I0
sg231
I11
sb(idivisor
TwoPDivisor
p403
(dp404
g230
I-1
sg231
I22
sbtp405
sg134
(g227
(idivisor
TwoPDivisor
p406
(dp407
g230
I-1
sg231
I33
sbtp408
sg22
((idivisor
TwoPDivisor
p409
(dp410
g230
I0
sg231
I-7
sb(idivisor
TwoPDivisor
p411
(dp412
g230
I-1
sg231
I44
sbtp413
sg78
(g235
(idivisor
TwoPDivisor
p414
(dp415
g230
I-1
sg231
I48
sbtp416
sg43
((idivisor
TwoPDivisor
p417
(dp418
g230
I0
sg231
I24
sb(idivisor
TwoPDivisor
p419
(dp420
g230
I-1
sg231
I11
sbtp421
sg211
(g227
(idivisor
TwoPDivisor
p422
(dp423
g230
I-1
sg231
I14
sbtp424
sg173
(g240
(idivisor
TwoPDivisor
p425
(dp426
g230
I-1
sg231
I10
sbtp427
sg92
((idivisor
TwoPDivisor
p428
(dp429
g230
I0
sg231
I14
sb(idivisor
TwoPDivisor
p430
(dp431
g230
I-1
sg231
I17
sbtp432
sg198
(g259
(idivisor
TwoPDivisor
p433
(dp434
g230
I-1
sg231
I13
sbtp435
sg44
(g349
(idivisor
TwoPDivisor
p436
(dp437
g230
I-1
sg231
I13
sbtp438
sg222
(g235
(idivisor
TwoPDivisor
p439
(dp440
g230
I-1
sg231
I13
sbtp441
sg86
(g259
(idivisor
TwoPDivisor
p442
(dp443
g230
I-1
sg231
I32
sbtp444
sg18
((idivisor
TwoPDivisor
p445
(dp446
g230
I0
sg231
I6
sb(idivisor
TwoPDivisor
p447
(dp448
g230
I-1
sg231
I31
sbtp449
sg164
(g235
(idivisor
TwoPDivisor
p450
(dp451
g230
I-1
sg231
I34
sbtp452
sg141
(g227
(idivisor
TwoPDivisor
p453
(dp454
g230
I-1
sg231
I32
sbtp455
sg206
(g259
(idivisor
TwoPDivisor
p456
(dp457
g230
I-1
sg231
I10
sbtp458
sg59
((idivisor
TwoPDivisor
p459
(dp460
g230
I0
sg231
I17
sb(idivisor
TwoPDivisor
p461
(dp462
g230
I-1
sg231
I17
sbtp463
sg193
(g259
(idivisor
TwoPDivisor
p464
(dp465
g230
I-1
sg231
I14
sbtp466
sg82
(g286
(idivisor
TwoPDivisor
p467
(dp468
g230
I-1
sg231
I19
sbtp469
sg221
(g235
(idivisor
TwoPDivisor
p470
(dp471
g230
I-1
sg231
I14
sbtp472
sg217
(g227
(idivisor
TwoPDivisor
p473
(dp474
g230
I-1
sg231
I11
sbtp475
sg111
(g227
(idivisor
TwoPDivisor
p476
(dp477
g230
I-1
sg231
I36
sbtp478
sg53
(g227
(idivisor
TwoPDivisor
p479
(dp480
g230
I-1
sg231
I43
sbtp481
sg144
(g428
(idivisor
TwoPDivisor
p482
(dp483
g230
I-1
sg231
I10
sbtp484
sg51
(g324
(idivisor
TwoPDivisor
p485
(dp486
g230
I-1
sg231
I32
sbtp487
sg174
(g259
(idivisor
TwoPDivisor
p488
(dp489
g230
I-1
sg231
I19
sbtp490
sg20
((idivisor
TwoPDivisor
p491
(dp492
g230
I0
sg231
I1
sb(idivisor
TwoPDivisor
p493
(dp494
g230
I-1
sg231
I36
sbtp495
sg62
(g240
(idivisor
TwoPDivisor
p496
(dp497
g230
I-1
sg231
I25
sbtp498
sg176
(g245
(idivisor
TwoPDivisor
p499
(dp500
g230
I-1
sg231
I27
sbtp501
sg87
(g227
(idivisor
TwoPDivisor
p502
(dp503
g230
I-1
sg231
I40
sbtp504
sg212
(g235
(idivisor
TwoPDivisor
p505
(dp506
g230
I-1
sg231
I19
sbtp507
sg137
(g428
(idivisor
TwoPDivisor
p508
(dp509
g230
I-1
sg231
I11
sbtp510
sg180
(g235
(idivisor
TwoPDivisor
p511
(dp512
g230
I-1
sg231
I30
sbtp513
sg110
(g259
(idivisor
TwoPDivisor
p514
(dp515
g230
I-1
sg231
I29
sbtp516
sg177
(g235
(idivisor
TwoPDivisor
p517
(dp518
g230
I-1
sg231
I31
sbtp519
sg163
(g245
(idivisor
TwoPDivisor
p520
(dp521
g230
I-1
sg231
I30
sbtp522
sg153
(g240
(idivisor
TwoPDivisor
p523
(dp524
g230
I-1
sg231
I14
sbtp525
sg48
(g401
(idivisor
TwoPDivisor
p526
(dp527
g230
I-1
sg231
I24
sbtp528
sg161
(g259
(idivisor
TwoPDivisor
p529
(dp530
g230
I-1
sg231
I22
sbtp531
sg90
(g332
(idivisor
TwoPDivisor
p532
(dp533
g230
I-1
sg231
I10
sbtp534
sg34
(g401
(idivisor
TwoPDivisor
p535
(dp536
g230
I-1
sg231
I25
sbtp537
sg156
(g245
(idivisor
TwoPDivisor
p538
(dp539
g230
I-1
sg231
I31
sbtp540
sg83
(g401
(idivisor
TwoPDivisor
p541
(dp542
g230
I-1
sg231
I21
sbtp543
sg224
(g235
(idivisor
TwoPDivisor
p544
(dp545
g230
I-1
sg231
I10
sbtp546
sg202
(g235
(idivisor
TwoPDivisor
p547
(dp548
g230
I-1
sg231
I24
sbtp549
sg171
(g227
(idivisor
TwoPDivisor
p550
(dp551
g230
I-1
sg231
I27
sbtp552
sg189
(g227
(idivisor
TwoPDivisor
p553
(dp554
g230
I-1
sg231
I22
sbtp555
sg21
(g259
(idivisor
TwoPDivisor
p556
(dp557
g230
I-1
sg231
I38
sbtp558
sg65
(g227
(idivisor
TwoPDivisor
p559
(dp560
g230
I-1
sg231
I42
sbtp561
sg162
(g227
(idivisor
TwoPDivisor
p562
(dp563
g230
I-1
sg231
I29
sbtp564
sg184
(g245
(idivisor
TwoPDivisor
p565
(dp566
g230
I-1
sg231
I25
sbtp567
sg58
(g332
(idivisor
TwoPDivisor
p568
(dp569
g230
I-1
sg231
I13
sbtp570
sg114
(g459
(idivisor
TwoPDivisor
p571
(dp572
g230
I-1
sg231
I11
sbtp573
sg160
(g324
(idivisor
TwoPDivisor
p574
(dp575
g230
I-1
sg231
I19
sbtp576
sg106
(g245
(idivisor
TwoPDivisor
p577
(dp578
g230
I-1
sg231
I39
sbtp579
sg35
(g445
(idivisor
TwoPDivisor
p580
(dp581
g230
I-1
sg231
I30
sbtp582
sg3
((idivisor
TwoPDivisor
p583
(dp584
g230
I0
sg231
I-26
sb(idivisor
TwoPDivisor
p585
(dp586
g230
I-1
sg231
I63
sbtp587
sg12
((idivisor
TwoPDivisor
p588
(dp589
g230
I0
sg231
I18
sb(idivisor
TwoPDivisor
p590
(dp591
g230
I-1
sg231
I19
sbtp592
sg93
(g240
(idivisor
TwoPDivisor
p593
(dp594
g230
I-1
sg231
I22
sbtp595
sg123
(g428
(idivisor
TwoPDivisor
p596
(dp597
g230
I-1
sg231
I13
sbtp598
sg60
(g286
(idivisor
TwoPDivisor
p599
(dp600
g230
I-1
sg231
I21
sbtp601
sg169
(g240
(idivisor
TwoPDivisor
p602
(dp603
g230
I-1
sg231
I11
sbtp604
sg186
(g324
(idivisor
TwoPDivisor
p605
(dp606
g230
I-1
sg231
I13
sbtp607
sg39
(g227
(idivisor
TwoPDivisor
p608
(dp609
g230
I-1
sg231
I44
sbtp610
sg97
(g235
(idivisor
TwoPDivisor
p611
(dp612
g230
I-1
sg231
I44
sbtp613
sg71
(g428
(idivisor
TwoPDivisor
p614
(dp615
g230
I-1
sg231
I19
sbtp616
sg128
(g245
(idivisor
TwoPDivisor
p617
(dp618
g230
I-1
sg231
I35
sbtp619
sg70
(g319
(idivisor
TwoPDivisor
p620
(dp621
g230
I-1
sg231
I14
sbtp622
sg15
(g401
(idivisor
TwoPDivisor
p623
(dp624
g230
I-1
sg231
I26
sbtp625
sg175
(g227
(idivisor
TwoPDivisor
p626
(dp627
g230
I-1
sg231
I26
sbtp628
sg199
(g245
(idivisor
TwoPDivisor
p629
(dp630
g230
I-1
sg231
I21
sbtp631
sg138
(g401
(idivisor
TwoPDivisor
p632
(dp633
g230
I-1
sg231
I14
sbtp634
sg76
(g227
(idivisor
TwoPDivisor
p635
(dp636
g230
I-1
sg231
I41
sbtp637
sg207
(g227
(idivisor
TwoPDivisor
p638
(dp639
g230
I-1
sg231
I17
sbtp640
sg165
(g401
(idivisor
TwoPDivisor
p641
(dp642
g230
I-1
sg231
I10
sbtp643
sg38
(g259
(idivisor
TwoPDivisor
p644
(dp645
g230
I-1
sg231
I36
sbtp646
sg117
(g240
(idivisor
TwoPDivisor
p647
(dp648
g230
I-1
sg231
I19
sbtp649
sg182
(g259
(idivisor
TwoPDivisor
p650
(dp651
g230
I-1
sg231
I17
sbtp652
sg139
(g324
(idivisor
TwoPDivisor
p653
(dp654
g230
I-1
sg231
I22
sbtp655
sg41
(g235
(idivisor
TwoPDivisor
p656
(dp657
g230
I-1
sg231
I54
sbtp658
sg14
(g428
(idivisor
TwoPDivisor
p659
(dp660
g230
I-1
sg231
I23
sbtp661
sg33
(g286
(idivisor
TwoPDivisor
p662
(dp663
g230
I-1
sg231
I23
sbtp664
sg94
(g259
(idivisor
TwoPDivisor
p665
(dp666
g230
I-1
sg231
I31
sbtp667
sg120
(g245
(idivisor
TwoPDivisor
p668
(dp669
g230
I-1
sg231
I36
sbtp670
sg17
((idivisor
TwoPDivisor
p671
(dp672
g230
I0
sg231
I7
sb(idivisor
TwoPDivisor
p673
(dp674
g230
I-1
sg231
I30
sbtp675
sg197
(g324
(idivisor
TwoPDivisor
p676
(dp677
g230
I-1
sg231
I10
sbtp678
sg24
(g245
(idivisor
TwoPDivisor
p679
(dp680
g230
I-1
sg231
I48
sbtp681
sg98
(g319
(idivisor
TwoPDivisor
p682
(dp683
g230
I-1
sg231
I11
sbtp684
sg99
(g459
(idivisor
TwoPDivisor
p685
(dp686
g230
I-1
sg231
I13
sbtp687
sg210
(g235
(idivisor
TwoPDivisor
p688
(dp689
g230
I-1
sg231
I21
sbtp690
sg219
(g245
(idivisor
TwoPDivisor
p691
(dp692
g230
I-1
sg231
I11
sbtp693
sg209
(g245
(idivisor
TwoPDivisor
p694
(dp695
g230
I-1
sg231
I17
sbtp696
sg85
(g324
(idivisor
TwoPDivisor
p697
(dp698
g230
I-1
sg231
I29
sbtp699
sg119
(g227
(idivisor
TwoPDivisor
p700
(dp701
g230
I-1
sg231
I35
sbtp702
sg52
(g259
(idivisor
TwoPDivisor
p703
(dp704
g230
I-1
sg231
I35
sbtp705
sg26
((idivisor
TwoPDivisor
p706
(dp707
g230
I0
sg231
I26
sb(idivisor
TwoPDivisor
p708
(dp709
g230
I-1
sg231
I10
sbtp710
sg36
(g296
(idivisor
TwoPDivisor
p711
(dp712
g230
I-1
sg231
I31
sbtp713
sg91
(g459
(idivisor
TwoPDivisor
p714
(dp715
g230
I-1
sg231
I14
sbtp716
sg140
(g259
(idivisor
TwoPDivisor
p717
(dp718
g230
I-1
sg231
I25
sbtp719
sg75
(g259
(idivisor
TwoPDivisor
p720
(dp721
g230
I-1
sg231
I33
sbtp722
sg152
(g286
(idivisor
TwoPDivisor
p723
(dp724
g230
I-1
sg231
I10
sbtp725
sg46
(g428
(idivisor
TwoPDivisor
p726
(dp727
g230
I-1
sg231
I21
sbtp728
sg203
(g259
(idivisor
TwoPDivisor
p729
(dp730
g230
I-1
sg231
I11
sbtp731
sg158
(g401
(idivisor
TwoPDivisor
p732
(dp733
g230
I-1
sg231
I11
sbtp734
sg8
(g349
(idivisor
TwoPDivisor
p735
(dp736
g230
I-1
sg231
I15
sbtp737
sg25
(g235
(idivisor
TwoPDivisor
p738
(dp739
g230
I-1
sg231
I56
sbtp740
sg107
(g235
(idivisor
TwoPDivisor
p741
(dp742
g230
I-1
sg231
I43
sbtp743
sg100
(g286
(idivisor
TwoPDivisor
p744
(dp745
g230
I-1
sg231
I17
sbtp746
sg109
(g324
(idivisor
TwoPDivisor
p747
(dp748
g230
I-1
sg231
I26
sbtp749
sg192
(g324
(idivisor
TwoPDivisor
p750
(dp751
g230
I-1
sg231
I11
sbtp752
sg220
(g245
(idivisor
TwoPDivisor
p753
(dp754
g230
I-1
sg231
I10
sbtp755
sg145
(g286
(idivisor
TwoPDivisor
p756
(dp757
g230
I-1
sg231
I11
sbtp758
sg181
(g324
(idivisor
TwoPDivisor
p759
(dp760
g230
I-1
sg231
I14
sbtp761
sg170
(g324
(idivisor
TwoPDivisor
p762
(dp763
g230
I-1
sg231
I17
sbtp764
sg9
(g319
(idivisor
TwoPDivisor
p765
(dp766
g230
I-1
sg231
I18
sbtp767
sg96
(g245
(idivisor
TwoPDivisor
p768
(dp769
g230
I-1
sg231
I40
sbtp770
sg101
(g401
(idivisor
TwoPDivisor
p771
(dp772
g230
I-1
sg231
I19
sbtp773
sg10
((idivisor
TwoPDivisor
p774
(dp775
g230
I0
sg231
I20
sb(idivisor
TwoPDivisor
p776
(dp777
g230
I-1
sg231
I17
sbtp778
sg37
(g324
(idivisor
TwoPDivisor
p779
(dp780
g230
I-1
sg231
I33
sbtp781
sg104
(g259
(idivisor
TwoPDivisor
p782
(dp783
g230
I-1
sg231
I30
sbtp784
sg40
(g245
(idivisor
TwoPDivisor
p785
(dp786
g230
I-1
sg231
I46
sbtp787
sg200
(g235
(idivisor
TwoPDivisor
p788
(dp789
g230
I-1
sg231
I25
sbtp790
sg105
(g227
(idivisor
TwoPDivisor
p791
(dp792
g230
I-1
sg231
I38
sbtp793
sg132
(g324
(idivisor
TwoPDivisor
p794
(dp795
g230
I-1
sg231
I23
sbtp796
sg188
(g245
(idivisor
TwoPDivisor
p797
(dp798
g230
I-1
sg231
I24
sbtp799
sg28
(g264
(idivisor
TwoPDivisor
p800
(dp801
g230
I-1
sg231
I13
sbtp802
sg143
(g235
(idivisor
TwoPDivisor
p803
(dp804
g230
I-1
sg231
I38
sbtp805
sg155
(g227
(idivisor
TwoPDivisor
p806
(dp807
g230
I-1
sg231
I30
sbtp808
sg112
(g245
(idivisor
TwoPDivisor
p809
(dp810
g230
I-1
sg231
I38
sbtp811
sg7
(g264
(idivisor
TwoPDivisor
p812
(dp813
g230
I-1
sg231
I14
sbtp814
sg126
(g259
(idivisor
TwoPDivisor
p815
(dp816
g230
I-1
sg231
I27
sbtp817
sg142
(g245
(idivisor
TwoPDivisor
p818
(dp819
g230
I-1
sg231
I33
sbtp820
sg19
(g296
(idivisor
TwoPDivisor
p821
(dp822
g230
I-1
sg231
I32
sbtp823
sg187
(g227
(idivisor
TwoPDivisor
p824
(dp825
g230
I-1
sg231
I23
sbtp826
sg136
(g235
(idivisor
TwoPDivisor
p827
(dp828
g230
I-1
sg231
I39
sbtp829
sg31
(g459
(idivisor
TwoPDivisor
p830
(dp831
g230
I-1
sg231
I19
sbtp832
sg84
(g240
(idivisor
TwoPDivisor
p833
(dp834
g230
I-1
sg231
I23
sbtp835
sg45
(g332
(idivisor
TwoPDivisor
p836
(dp837
g230
I-1
sg231
I14
sbtp838
sg103
(g324
(idivisor
TwoPDivisor
p839
(dp840
g230
I-1
sg231
I27
sbtp841
sg6
(g706
(idivisor
TwoPDivisor
p842
(dp843
g230
I-1
sg231
I11
sbtp844
sg179
(g245
(idivisor
TwoPDivisor
p845
(dp846
g230
I-1
sg231
I26
sbtp847
sg216
(g235
(idivisor
TwoPDivisor
p848
(dp849
g230
I-1
sg231
I17
sbtp850
sg148
(g259
(idivisor
TwoPDivisor
p851
(dp852
g230
I-1
sg231
I24
sbtp853
sg218
(g227
(idivisor
TwoPDivisor
p854
(dp855
g230
I-1
sg231
I10
sbtp856
sg183
(g227
(idivisor
TwoPDivisor
p857
(dp858
g230
I-1
sg231
I24
sbtp859
sg130
(g286
(idivisor
TwoPDivisor
p860
(dp861
g230
I-1
sg231
I13
sbtp862
sg11
(g459
(idivisor
TwoPDivisor
p863
(dp864
g230
I-1
sg231
I20
sbtp865
sg54
(g245
(idivisor
TwoPDivisor
p866
(dp867
g230
I-1
sg231
I44
sbtp868
sg32
(g428
(idivisor
TwoPDivisor
p869
(dp870
g230
I-1
sg231
I22
sbtp871
sg27
(g269
(idivisor
TwoPDivisor
p872
(dp873
g230
I-1
sg231
I11
sbtp874
sg172
(g235
(idivisor
TwoPDivisor
p875
(dp876
g230
I-1
sg231
I32
sbtp877
sg73
(g240
(idivisor
TwoPDivisor
p878
(dp879
g230
I-1
sg231
I24
sbtp880
sg115
(g428
(idivisor
TwoPDivisor
p881
(dp882
g230
I-1
sg231
I14
sbtp883
sg178
(g227
(idivisor
TwoPDivisor
p884
(dp885
g230
I-1
sg231
I25
sbtp886
sg79
(g349
(idivisor
TwoPDivisor
p887
(dp888
g230
I-1
sg231
I10
sbtp889
sg56
(g417
(idivisor
TwoPDivisor
p890
(dp891
g230
I-1
sg231
I10
sbtp892
sg61
(g401
(idivisor
TwoPDivisor
p893
(dp894
g230
I-1
sg231
I23
sbtp895
sg215
(g245
(idivisor
TwoPDivisor
p896
(dp897
g230
I-1
sg231
I13
sbtp898
sg168
(g235
(idivisor
TwoPDivisor
p899
(dp900
g230
I-1
sg231
I33
sbtp901
sg113
(g235
(idivisor
TwoPDivisor
p902
(dp903
g230
I-1
sg231
I42
sbtp904
sg127
(g227
(idivisor
TwoPDivisor
p905
(dp906
g230
I-1
sg231
I34
sbtp907
sg49
(g240
(idivisor
TwoPDivisor
p908
(dp909
g230
I-1
sg231
I26
sbtp910
sg146
(g401
(idivisor
TwoPDivisor
p911
(dp912
g230
I-1
sg231
I13
sbtp913
sg214
(g245
(idivisor
TwoPDivisor
p914
(dp915
g230
I-1
sg231
I14
sbtp916
sg5
(g417
(idivisor
TwoPDivisor
p917
(dp918
g230
I-1
sg231
I13
sbtp919
sg133
(g259
(idivisor
TwoPDivisor
p920
(dp921
g230
I-1
sg231
I26
sbtp922
sg195
(g245
(idivisor
TwoPDivisor
p923
(dp924
g230
I-1
sg231
I22
sbtp925
sg74
(g324
(idivisor
TwoPDivisor
p926
(dp927
g230
I-1
sg231
I30
sbtp928
sg47
(g286
(idivisor
TwoPDivisor
p929
(dp930
g230
I-1
sg231
I22
sbtp931
sg122
(g459
(idivisor
TwoPDivisor
p932
(dp933
g230
I-1
sg231
I10
sbtp934
sg223
(g235
(idivisor
TwoPDivisor
p935
(dp936
g230
I-1
sg231
I11
sbtp937
sg125
(g324
(idivisor
TwoPDivisor
p938
(dp939
g230
I-1
sg231
I24
sbtp940
sg116
(g401
(idivisor
TwoPDivisor
p941
(dp942
g230
I-1
sg231
I17
sbtp943
sg63
(g324
(idivisor
TwoPDivisor
p944
(dp945
g230
I-1
sg231
I31
sbtp946
sg201
(g227
(idivisor
TwoPDivisor
p947
(dp948
g230
I-1
sg231
I19
sbtp949
ss.