(dp0
S'ind'
p1
(lp2
(I23
I28
tp3
a(I24
I27
tp4
a(I25
I26
tp5
a(I26
I25
tp6
a(I27
I24
tp7
a(I28
I23
tp8
a(I29
I22
tp9
a(I30
I21
tp10
a(I31
I20
tp11
a(I32
I19
tp12
a(I33
I18
tp13
a(I34
I17
tp14
a(I36
I16
tp15
a(I37
I15
tp16
a(I38
I14
tp17
a(I40
I13
tp18
a(I41
I12
tp19
a(I42
I11
tp20
a(I44
I10
tp21
a(I48
I8
tp22
a(I49
I7
tp23
a(I51
I6
tp24
a(I53
I5
tp25
a(I57
I4
tp26
a(I58
I3
tp27
a(I62
I2
tp28
a(I63
I1
tp29
asS'witness'
p30
(dp31
g28
((idivisor
TwoPDivisor
p32
(dp34
S'Q'
p35
I7
sS'P'
p36
I-20
sbtp37
sg18
((idivisor
TwoPDivisor
p38
(dp39
g35
I9
sg36
I1
sbtp40
sg4
((idivisor
TwoPDivisor
p41
(dp42
g35
I12
sg36
I14
sbtp43
sg5
((idivisor
TwoPDivisor
p44
(dp45
g35
I11
sg36
I14
sbtp46
sg26
((idivisor
TwoPDivisor
p47
(dp48
g35
I4
sg36
I-12
sbtp49
sg27
((idivisor
TwoPDivisor
p50
(dp51
g35
I2
sg36
I-11
sbtp52
sg24
((idivisor
TwoPDivisor
p53
(dp54
g35
I12
sg36
I-14
sbtp55
sg3
((idivisor
TwoPDivisor
p56
(dp57
g35
I1
sg36
I26
sbtp58
sg29
((idivisor
TwoPDivisor
p59
(dp60
g35
I11
sg36
I-30
sbtp61
sg12
((idivisor
TwoPDivisor
p62
(dp63
g35
I12
sg36
I6
sbtp64
sg22
((idivisor
TwoPDivisor
p65
(dp66
g35
I1
sg36
I1
sbtp67
sg13
((idivisor
TwoPDivisor
p68
(dp69
g35
I11
sg36
I6
sbtp70
sg19
((idivisor
TwoPDivisor
p71
(dp72
g35
I7
sg36
I2
sbtp73
sg20
((idivisor
TwoPDivisor
p74
(dp75
g35
I7
sg36
I1
sbtp76
sg21
((idivisor
TwoPDivisor
p77
(dp78
g35
I4
sg36
I2
sbtp79
sg16
((idivisor
TwoPDivisor
p80
(dp81
g35
I12
sg36
I1
sbtp82
sg11
((idivisor
TwoPDivisor
p83
(dp84
g35
I6
sg36
I13
sbtp85
sg6
((idivisor
TwoPDivisor
p86
(dp87
g35
I10
sg36
I14
sbtp88
sg23
((idivisor
TwoPDivisor
p89
(dp90
g35
I8
sg36
I-7
sbtp91
sg8
((idivisor
TwoPDivisor
p92
(dp93
g35
I8
sg36
I14
sbtp94
sg9
((idivisor
TwoPDivisor
p95
(dp96
g35
I7
sg36
I14
sbtp97
sg10
((idivisor
TwoPDivisor
p98
(dp99
g35
I6
sg36
I14
sbtp100
sg15
((idivisor
TwoPDivisor
p101
(dp102
g35
I1
sg36
I13
sbtp103
sg14
((idivisor
TwoPDivisor
p104
(dp105
g35
I12
sg36
I4
sbtp106
sg17
((idivisor
TwoPDivisor
p107
(dp108
g35
I11
sg36
I1
sbtp109
sg7
((idivisor
TwoPDivisor
p110
(dp111
g35
I9
sg36
I14
sbtp112
sg25
((idivisor
TwoPDivisor
p113
(dp114
g35
I5
sg36
I-8
sbtp115
ss.